
T0.axf:     file format elf32-littlearm


Disassembly of section .bootloader:

00000000 <g_pfnVectors>:
   0:	00 20 00 10 35 02 00 00 15 08 00 00 1d 08 00 00     . ..5...........
	...
  2c:	25 08 00 00 00 00 00 00 00 00 00 00 2d 08 00 00     %...........-...
  3c:	35 08 00 00 3d 08 00 00 45 08 00 00 00 00 00 00     5...=...E.......
  4c:	4d 08 00 00 55 08 00 00 5d 08 00 00 00 00 00 00     M...U...].......
  5c:	6d 08 00 00 65 08 00 00 85 08 00 00 8d 08 00 00     m...e...........
  6c:	95 08 00 00 9d 08 00 00 a5 08 00 00 ad 08 00 00     ................
  7c:	b5 08 00 00 bd 08 00 00 c5 08 00 00 cd 08 00 00     ................
  8c:	d5 08 00 00 dd 08 00 00 75 08 00 00 7d 08 00 00     ........u...}...
  9c:	00 00 00 00 e5 08 00 00 ed 08 00 00 f5 08 00 00     ................
  ac:	fd 08 00 00 05 09 00 00 0d 09 00 00 15 09 00 00     ................
  bc:	1d 09 00 00                                         ....

000000c0 <__aeabi_idiv>:
  c0:	b510      	push	{r4, lr}
  c2:	4b02      	ldr	r3, [pc, #8]	; (cc <__aeabi_idiv+0xc>)
  c4:	681b      	ldr	r3, [r3, #0]
  c6:	4798      	blx	r3
  c8:	bd10      	pop	{r4, pc}
  ca:	46c0      	nop			; (mov r8, r8)
  cc:	10000000 	.word	0x10000000

000000d0 <__aeabi_uidiv>:
  d0:	b510      	push	{r4, lr}
  d2:	4b02      	ldr	r3, [pc, #8]	; (dc <__aeabi_uidiv+0xc>)
  d4:	681b      	ldr	r3, [r3, #0]
  d6:	4798      	blx	r3
  d8:	bd10      	pop	{r4, pc}
  da:	0000      	.short	0x0000
  dc:	10000004 	.word	0x10000004
  e0:	00000061 	.word	0x00000061
  e4:	00320002 	.word	0x00320002
  e8:	01020000 	.word	0x01020000
  ec:	000d0efb 	.word	0x000d0efb
  f0:	01010101 	.word	0x01010101
  f4:	01000000 	.word	0x01000000
  f8:	2e010000 	.word	0x2e010000
  fc:	72732f2e 	.word	0x72732f2e
 100:	61000063 	.word	0x61000063
 104:	69626165 	.word	0x69626165
 108:	6d6f725f 	.word	0x6d6f725f
 10c:	5f766964 	.word	0x5f766964
 110:	63746170 	.word	0x63746170
 114:	00732e68 	.word	0x00732e68
 118:	00000001 	.word	0x00000001
 11c:	c0020500 	.word	0xc0020500
 120:	03000000 	.word	0x03000000
 124:	2121013f 	.word	0x2121013f
 128:	022b2121 	.word	0x022b2121
 12c:	01010002 	.word	0x01010002
 130:	d0020500 	.word	0xd0020500
 134:	03000000 	.word	0x03000000
 138:	210100d5 	.word	0x210100d5
 13c:	2b212121 	.word	0x2b212121
 140:	01000202 	.word	0x01000202
 144:	01          	.byte	0x01
 145:	6c          	.byte	0x6c
 146:	0000      	.short	0x0000
 148:	b5000200 	.word	0xb5000200
 14c:	04000001 	.word	0x04000001
 150:	0000e001 	.word	0x0000e001
 154:	0001f000 	.word	0x0001f000
 158:	2f2e2e00 	.word	0x2f2e2e00
 15c:	2f637273 	.word	0x2f637273
 160:	62616561 	.word	0x62616561
 164:	6f725f69 	.word	0x6f725f69
 168:	7669646d 	.word	0x7669646d
 16c:	7461705f 	.word	0x7461705f
 170:	732e6863 	.word	0x732e6863
 174:	5c3a4300 	.word	0x5c3a4300
 178:	72657355 	.word	0x72657355
 17c:	6b6d5c73 	.word	0x6b6d5c73
 180:	73757275 	.word	0x73757275
 184:	7365445c 	.word	0x7365445c
 188:	706f746b 	.word	0x706f746b
 18c:	6361625c 	.word	0x6361625c
 190:	5c70756b 	.word	0x5c70756b
 194:	37323252 	.word	0x37323252
 198:	5c737435 	.word	0x5c737435
 19c:	445c3054 	.word	0x445c3054
 1a0:	67756265 	.word	0x67756265
 1a4:	554e4700 	.word	0x554e4700
 1a8:	20534120 	.word	0x20534120
 1ac:	36322e32 	.word	0x36322e32
 1b0:	0100302e 	.word	0x0100302e
 1b4:	80          	.byte	0x80
 1b5:	01          	.byte	0x01
 1b6:	0011      	.short	0x0011
 1b8:	06550610 	.word	0x06550610
 1bc:	081b0803 	.word	0x081b0803
 1c0:	05130825 	.word	0x05130825
 1c4:	ff000000 	.word	0xff000000
 1c8:	00000024 	.word	0x00000024
 1cc:	01450002 	.word	0x01450002
 1d0:	00040000 	.word	0x00040000
 1d4:	00000000 	.word	0x00000000
 1d8:	000000c0 	.word	0x000000c0
 1dc:	00000010 	.word	0x00000010
 1e0:	000000d0 	.word	0x000000d0
 1e4:	00000010 	.word	0x00000010
	...
 1f0:	ffffffff 	.word	0xffffffff
 1f4:	00000000 	.word	0x00000000
 1f8:	000000c0 	.word	0x000000c0
 1fc:	000000d0 	.word	0x000000d0
 200:	000000d0 	.word	0x000000d0
 204:	000000e0 	.word	0x000000e0
	...
 210:	00002041 	.word	0x00002041
 214:	61656100 	.word	0x61656100
 218:	01006962 	.word	0x01006962
 21c:	00000016 	.word	0x00000016
 220:	726f4305 	.word	0x726f4305
 224:	2d786574 	.word	0x2d786574
 228:	0600304d 	.word	0x0600304d
 22c:	094d070c 	.word	0x094d070c
 230:	ffffff01 	.word	0xffffff01

00000234 <ResetISR>:
 234:	4b8f      	ldr	r3, [pc, #572]	; (474 <ResetISR+0x240>)
 236:	b5f0      	push	{r4, r5, r6, r7, lr}
 238:	681b      	ldr	r3, [r3, #0]
 23a:	b08f      	sub	sp, #60	; 0x3c
 23c:	691a      	ldr	r2, [r3, #16]
 23e:	4b8e      	ldr	r3, [pc, #568]	; (478 <ResetISR+0x244>)
 240:	6811      	ldr	r1, [r2, #0]
 242:	6852      	ldr	r2, [r2, #4]
 244:	6019      	str	r1, [r3, #0]
 246:	605a      	str	r2, [r3, #4]
 248:	2180      	movs	r1, #128	; 0x80
 24a:	23a0      	movs	r3, #160	; 0xa0
 24c:	228e      	movs	r2, #142	; 0x8e
 24e:	061b      	lsls	r3, r3, #24
 250:	0049      	lsls	r1, r1, #1
 252:	0192      	lsls	r2, r2, #6
 254:	5099      	str	r1, [r3, r2]
 256:	2201      	movs	r2, #1
 258:	721a      	strb	r2, [r3, #8]
 25a:	f000 fa51 	bl	700 <Blink5>
 25e:	4987      	ldr	r1, [pc, #540]	; (47c <ResetISR+0x248>)
 260:	4b87      	ldr	r3, [pc, #540]	; (480 <ResetISR+0x24c>)
 262:	2400      	movs	r4, #0
 264:	1a5b      	subs	r3, r3, r1
 266:	109b      	asrs	r3, r3, #2
 268:	001a      	movs	r2, r3
 26a:	2a00      	cmp	r2, #0
 26c:	dd04      	ble.n	278 <ResetISR+0x44>
 26e:	4255      	negs	r5, r2
 270:	18c8      	adds	r0, r1, r3
 272:	5544      	strb	r4, [r0, r5]
 274:	3a01      	subs	r2, #1
 276:	e7f8      	b.n	26a <ResetISR+0x36>
 278:	2180      	movs	r1, #128	; 0x80
 27a:	4a82      	ldr	r2, [pc, #520]	; (484 <ResetISR+0x250>)
 27c:	4882      	ldr	r0, [pc, #520]	; (488 <ResetISR+0x254>)
 27e:	6fd3      	ldr	r3, [r2, #124]	; 0x7c
 280:	02c9      	lsls	r1, r1, #11
 282:	4003      	ands	r3, r0
 284:	430b      	orrs	r3, r1
 286:	2180      	movs	r1, #128	; 0x80
 288:	2501      	movs	r5, #1
 28a:	2704      	movs	r7, #4
 28c:	67d3      	str	r3, [r2, #124]	; 0x7c
 28e:	6fd3      	ldr	r3, [r2, #124]	; 0x7c
 290:	4e7e      	ldr	r6, [pc, #504]	; (48c <ResetISR+0x258>)
 292:	4003      	ands	r3, r0
 294:	430b      	orrs	r3, r1
 296:	67d3      	str	r3, [r2, #124]	; 0x7c
 298:	4b7d      	ldr	r3, [pc, #500]	; (490 <ResetISR+0x25c>)
 29a:	317f      	adds	r1, #127	; 0x7f
 29c:	601d      	str	r5, [r3, #0]
 29e:	4b7d      	ldr	r3, [pc, #500]	; (494 <ResetISR+0x260>)
 2a0:	681c      	ldr	r4, [r3, #0]
 2a2:	438c      	bics	r4, r1
 2a4:	433c      	orrs	r4, r7
 2a6:	601c      	str	r4, [r3, #0]
 2a8:	691c      	ldr	r4, [r3, #16]
 2aa:	46a4      	mov	ip, r4
 2ac:	4667      	mov	r7, ip
 2ae:	4c7a      	ldr	r4, [pc, #488]	; (498 <ResetISR+0x264>)
 2b0:	403c      	ands	r4, r7
 2b2:	27d0      	movs	r7, #208	; 0xd0
 2b4:	037f      	lsls	r7, r7, #13
 2b6:	433c      	orrs	r4, r7
 2b8:	27c0      	movs	r7, #192	; 0xc0
 2ba:	611c      	str	r4, [r3, #16]
 2bc:	68dc      	ldr	r4, [r3, #12]
 2be:	057f      	lsls	r7, r7, #21
 2c0:	0224      	lsls	r4, r4, #8
 2c2:	0a24      	lsrs	r4, r4, #8
 2c4:	433c      	orrs	r4, r7
 2c6:	60dc      	str	r4, [r3, #12]
 2c8:	691c      	ldr	r4, [r3, #16]
 2ca:	46a4      	mov	ip, r4
 2cc:	4667      	mov	r7, ip
 2ce:	4c73      	ldr	r4, [pc, #460]	; (49c <ResetISR+0x268>)
 2d0:	403c      	ands	r4, r7
 2d2:	27c8      	movs	r7, #200	; 0xc8
 2d4:	017f      	lsls	r7, r7, #5
 2d6:	433c      	orrs	r4, r7
 2d8:	270f      	movs	r7, #15
 2da:	611c      	str	r4, [r3, #16]
 2dc:	691c      	ldr	r4, [r3, #16]
 2de:	438c      	bics	r4, r1
 2e0:	433c      	orrs	r4, r7
 2e2:	611c      	str	r4, [r3, #16]
 2e4:	6fd4      	ldr	r4, [r2, #124]	; 0x7c
 2e6:	4b6e      	ldr	r3, [pc, #440]	; (4a0 <ResetISR+0x26c>)
 2e8:	3f0b      	subs	r7, #11
 2ea:	4023      	ands	r3, r4
 2ec:	67d3      	str	r3, [r2, #124]	; 0x7c
 2ee:	6fd3      	ldr	r3, [r2, #124]	; 0x7c
 2f0:	4c6c      	ldr	r4, [pc, #432]	; (4a4 <ResetISR+0x270>)
 2f2:	4018      	ands	r0, r3
 2f4:	2380      	movs	r3, #128	; 0x80
 2f6:	011b      	lsls	r3, r3, #4
 2f8:	4318      	orrs	r0, r3
 2fa:	67d0      	str	r0, [r2, #124]	; 0x7c
 2fc:	6872      	ldr	r2, [r6, #4]
 2fe:	4b6a      	ldr	r3, [pc, #424]	; (4a8 <ResetISR+0x274>)
 300:	486a      	ldr	r0, [pc, #424]	; (4ac <ResetISR+0x278>)
 302:	4013      	ands	r3, r2
 304:	6073      	str	r3, [r6, #4]
 306:	6872      	ldr	r2, [r6, #4]
 308:	4b69      	ldr	r3, [pc, #420]	; (4b0 <ResetISR+0x27c>)
 30a:	4013      	ands	r3, r2
 30c:	432b      	orrs	r3, r5
 30e:	6073      	str	r3, [r6, #4]
 310:	2382      	movs	r3, #130	; 0x82
 312:	6822      	ldr	r2, [r4, #0]
 314:	33ff      	adds	r3, #255	; 0xff
 316:	4013      	ands	r3, r2
 318:	6023      	str	r3, [r4, #0]
 31a:	23be      	movs	r3, #190	; 0xbe
 31c:	6822      	ldr	r2, [r4, #0]
 31e:	33ff      	adds	r3, #255	; 0xff
 320:	4013      	ands	r3, r2
 322:	431f      	orrs	r7, r3
 324:	23f0      	movs	r3, #240	; 0xf0
 326:	031b      	lsls	r3, r3, #12
 328:	6027      	str	r7, [r4, #0]
 32a:	6223      	str	r3, [r4, #32]
 32c:	6fb3      	ldr	r3, [r6, #120]	; 0x78
 32e:	4019      	ands	r1, r3
 330:	f7ff fece 	bl	d0 <__aeabi_uidiv>
 334:	495f      	ldr	r1, [pc, #380]	; (4b4 <ResetISR+0x280>)
 336:	f7ff fecb 	bl	d0 <__aeabi_uidiv>
 33a:	2800      	cmp	r0, #0
 33c:	d100      	bne.n	340 <ResetISR+0x10c>
 33e:	0028      	movs	r0, r5
 340:	3801      	subs	r0, #1
 342:	6260      	str	r0, [r4, #36]	; 0x24
 344:	4857      	ldr	r0, [pc, #348]	; (4a4 <ResetISR+0x270>)
 346:	6fb3      	ldr	r3, [r6, #120]	; 0x78
 348:	6a63      	ldr	r3, [r4, #36]	; 0x24
 34a:	f000 f9c9 	bl	6e0 <SPI_FlushFifos_Bootloader.lto_priv.107>
 34e:	4d5a      	ldr	r5, [pc, #360]	; (4b8 <ResetISR+0x284>)
 350:	4b5a      	ldr	r3, [pc, #360]	; (4bc <ResetISR+0x288>)
 352:	4c5b      	ldr	r4, [pc, #364]	; (4c0 <ResetISR+0x28c>)
 354:	60ab      	str	r3, [r5, #8]
 356:	2308      	movs	r3, #8
 358:	602c      	str	r4, [r5, #0]
 35a:	82ab      	strh	r3, [r5, #20]
 35c:	f000 f9ae 	bl	6bc <SST25_WriteEnable_Bootloader>
 360:	2350      	movs	r3, #80	; 0x50
 362:	7023      	strb	r3, [r4, #0]
 364:	3b4f      	subs	r3, #79	; 0x4f
 366:	612b      	str	r3, [r5, #16]
 368:	f000 f8bc 	bl	4e4 <Chip_SPI_RWFrames_Blocking_Bootloader.constprop.5>
 36c:	f000 f90e 	bl	58c <SST25_ReadBUSY_Bootloader>
 370:	2800      	cmp	r0, #0
 372:	d1fb      	bne.n	36c <ResetISR+0x138>
 374:	2301      	movs	r3, #1
 376:	7023      	strb	r3, [r4, #0]
 378:	18db      	adds	r3, r3, r3
 37a:	7060      	strb	r0, [r4, #1]
 37c:	612b      	str	r3, [r5, #16]
 37e:	f000 f8b1 	bl	4e4 <Chip_SPI_RWFrames_Blocking_Bootloader.constprop.5>
 382:	f000 f903 	bl	58c <SST25_ReadBUSY_Bootloader>
 386:	2800      	cmp	r0, #0
 388:	d1fb      	bne.n	382 <ResetISR+0x14e>
 38a:	0002      	movs	r2, r0
 38c:	ab06      	add	r3, sp, #24
 38e:	54c2      	strb	r2, [r0, r3]
 390:	3001      	adds	r0, #1
 392:	2820      	cmp	r0, #32
 394:	d1fa      	bne.n	38c <ResetISR+0x158>
 396:	20f0      	movs	r0, #240	; 0xf0
 398:	466a      	mov	r2, sp
 39a:	2104      	movs	r1, #4
 39c:	0300      	lsls	r0, r0, #12
 39e:	f000 f909 	bl	5b4 <SST25_Read_Bootloader>
 3a2:	aa01      	add	r2, sp, #4
 3a4:	2104      	movs	r1, #4
 3a6:	4847      	ldr	r0, [pc, #284]	; (4c4 <ResetISR+0x290>)
 3a8:	f000 f904 	bl	5b4 <SST25_Read_Bootloader>
 3ac:	9b01      	ldr	r3, [sp, #4]
 3ae:	3301      	adds	r3, #1
 3b0:	d007      	beq.n	3c2 <ResetISR+0x18e>
 3b2:	9800      	ldr	r0, [sp, #0]
 3b4:	1c43      	adds	r3, r0, #1
 3b6:	d004      	beq.n	3c2 <ResetISR+0x18e>
 3b8:	f000 f91e 	bl	5f8 <Calc_BlockCRC32>
 3bc:	9b01      	ldr	r3, [sp, #4]
 3be:	4283      	cmp	r3, r0
 3c0:	d002      	beq.n	3c8 <ResetISR+0x194>
 3c2:	4b41      	ldr	r3, [pc, #260]	; (4c8 <ResetISR+0x294>)
 3c4:	4798      	blx	r3
 3c6:	e053      	b.n	470 <ResetISR+0x23c>
 3c8:	2402      	movs	r4, #2
 3ca:	2732      	movs	r7, #50	; 0x32
 3cc:	23f8      	movs	r3, #248	; 0xf8
 3ce:	2180      	movs	r1, #128	; 0x80
 3d0:	009b      	lsls	r3, r3, #2
 3d2:	18e5      	adds	r5, r4, r3
 3d4:	02ad      	lsls	r5, r5, #10
 3d6:	4a3d      	ldr	r2, [pc, #244]	; (4cc <ResetISR+0x298>)
 3d8:	00c9      	lsls	r1, r1, #3
 3da:	0028      	movs	r0, r5
 3dc:	f000 f8ea 	bl	5b4 <SST25_Read_Bootloader>
 3e0:	b672      	cpsid	i
 3e2:	4e3b      	ldr	r6, [pc, #236]	; (4d0 <ResetISR+0x29c>)
 3e4:	a906      	add	r1, sp, #24
 3e6:	a801      	add	r0, sp, #4
 3e8:	9701      	str	r7, [sp, #4]
 3ea:	9402      	str	r4, [sp, #8]
 3ec:	9403      	str	r4, [sp, #12]
 3ee:	47b0      	blx	r6
 3f0:	2334      	movs	r3, #52	; 0x34
 3f2:	9301      	str	r3, [sp, #4]
 3f4:	4b37      	ldr	r3, [pc, #220]	; (4d4 <ResetISR+0x2a0>)
 3f6:	a906      	add	r1, sp, #24
 3f8:	9304      	str	r3, [sp, #16]
 3fa:	a801      	add	r0, sp, #4
 3fc:	9402      	str	r4, [sp, #8]
 3fe:	9403      	str	r4, [sp, #12]
 400:	47b0      	blx	r6
 402:	a906      	add	r1, sp, #24
 404:	a801      	add	r0, sp, #4
 406:	9701      	str	r7, [sp, #4]
 408:	9402      	str	r4, [sp, #8]
 40a:	9403      	str	r4, [sp, #12]
 40c:	47b0      	blx	r6
 40e:	2333      	movs	r3, #51	; 0x33
 410:	9301      	str	r3, [sp, #4]
 412:	4b31      	ldr	r3, [pc, #196]	; (4d8 <ResetISR+0x2a4>)
 414:	a906      	add	r1, sp, #24
 416:	18ed      	adds	r5, r5, r3
 418:	4b2c      	ldr	r3, [pc, #176]	; (4cc <ResetISR+0x298>)
 41a:	9502      	str	r5, [sp, #8]
 41c:	9303      	str	r3, [sp, #12]
 41e:	2380      	movs	r3, #128	; 0x80
 420:	00db      	lsls	r3, r3, #3
 422:	9304      	str	r3, [sp, #16]
 424:	4b2b      	ldr	r3, [pc, #172]	; (4d4 <ResetISR+0x2a0>)
 426:	a801      	add	r0, sp, #4
 428:	9305      	str	r3, [sp, #20]
 42a:	47b0      	blx	r6
 42c:	b662      	cpsie	i
 42e:	3401      	adds	r4, #1
 430:	f000 f966 	bl	700 <Blink5>
 434:	2c20      	cmp	r4, #32
 436:	d1c9      	bne.n	3cc <ResetISR+0x198>
 438:	f000 f940 	bl	6bc <SST25_WriteEnable_Bootloader>
 43c:	220f      	movs	r2, #15
 43e:	4b20      	ldr	r3, [pc, #128]	; (4c0 <ResetISR+0x28c>)
 440:	705a      	strb	r2, [r3, #1]
 442:	2200      	movs	r2, #0
 444:	701c      	strb	r4, [r3, #0]
 446:	709a      	strb	r2, [r3, #2]
 448:	70da      	strb	r2, [r3, #3]
 44a:	4b1b      	ldr	r3, [pc, #108]	; (4b8 <ResetISR+0x284>)
 44c:	3204      	adds	r2, #4
 44e:	611a      	str	r2, [r3, #16]
 450:	f000 f848 	bl	4e4 <Chip_SPI_RWFrames_Blocking_Bootloader.constprop.5>
 454:	f000 f89a 	bl	58c <SST25_ReadBUSY_Bootloader>
 458:	2800      	cmp	r0, #0
 45a:	d1fb      	bne.n	454 <ResetISR+0x220>
 45c:	f3bf 8f4f 	dsb	sy
 460:	4a1e      	ldr	r2, [pc, #120]	; (4dc <ResetISR+0x2a8>)
 462:	4b1f      	ldr	r3, [pc, #124]	; (4e0 <ResetISR+0x2ac>)
 464:	60da      	str	r2, [r3, #12]
 466:	f3bf 8f4f 	dsb	sy
 46a:	f000 f949 	bl	700 <Blink5>
 46e:	e7fe      	b.n	46e <ResetISR+0x23a>
 470:	e7fe      	b.n	470 <ResetISR+0x23c>
 472:	46c0      	nop			; (mov r8, r8)
 474:	1fff1ff8 	.word	0x1fff1ff8
 478:	10000000 	.word	0x10000000
 47c:	10000008 	.word	0x10000008
 480:	10000ca4 	.word	0x10000ca4
 484:	40048004 	.word	0x40048004
 488:	25efffff 	.word	0x25efffff
 48c:	40048000 	.word	0x40048000
 490:	40048094 	.word	0x40048094
 494:	4000c000 	.word	0x4000c000
 498:	ff00ffff 	.word	0xff00ffff
 49c:	ffff00ff 	.word	0xffff00ff
 4a0:	25efff7f 	.word	0x25efff7f
 4a4:	40058000 	.word	0x40058000
 4a8:	0001dffe 	.word	0x0001dffe
 4ac:	00b71b00 	.word	0x00b71b00
 4b0:	0001dfff 	.word	0x0001dfff
 4b4:	000186a0 	.word	0x000186a0
 4b8:	10000408 	.word	0x10000408
 4bc:	100004a0 	.word	0x100004a0
 4c0:	10000420 	.word	0x10000420
 4c4:	000f0004 	.word	0x000f0004
 4c8:	00000925 	.word	0x00000925
 4cc:	10000008 	.word	0x10000008
 4d0:	1fff1ff1 	.word	0x1fff1ff1
 4d4:	00002ee0 	.word	0x00002ee0
 4d8:	fff08000 	.word	0xfff08000
 4dc:	05fa0004 	.word	0x05fa0004
 4e0:	e000ed00 	.word	0xe000ed00

000004e4 <Chip_SPI_RWFrames_Blocking_Bootloader.constprop.5>:
 4e4:	233c      	movs	r3, #60	; 0x3c
 4e6:	b5f7      	push	{r0, r1, r2, r4, r5, r6, r7, lr}
 4e8:	20f0      	movs	r0, #240	; 0xf0
 4ea:	2480      	movs	r4, #128	; 0x80
 4ec:	4925      	ldr	r1, [pc, #148]	; (584 <Chip_SPI_RWFrames_Blocking_Bootloader.constprop.5+0xa0>)
 4ee:	0500      	lsls	r0, r0, #20
 4f0:	608b      	str	r3, [r1, #8]
 4f2:	4b25      	ldr	r3, [pc, #148]	; (588 <Chip_SPI_RWFrames_Blocking_Bootloader.constprop.5+0xa4>)
 4f4:	03a4      	lsls	r4, r4, #14
 4f6:	7d1a      	ldrb	r2, [r3, #20]
 4f8:	3a01      	subs	r2, #1
 4fa:	0612      	lsls	r2, r2, #24
 4fc:	4002      	ands	r2, r0
 4fe:	4322      	orrs	r2, r4
 500:	620a      	str	r2, [r1, #32]
 502:	2200      	movs	r2, #0
 504:	60da      	str	r2, [r3, #12]
 506:	605a      	str	r2, [r3, #4]
 508:	3201      	adds	r2, #1
 50a:	4694      	mov	ip, r2
 50c:	9001      	str	r0, [sp, #4]
 50e:	6858      	ldr	r0, [r3, #4]
 510:	691c      	ldr	r4, [r3, #16]
 512:	42a0      	cmp	r0, r4
 514:	d22a      	bcs.n	56c <Chip_SPI_RWFrames_Blocking_Bootloader.constprop.5+0x88>
 516:	2202      	movs	r2, #2
 518:	688e      	ldr	r6, [r1, #8]
 51a:	4f1a      	ldr	r7, [pc, #104]	; (584 <Chip_SPI_RWFrames_Blocking_Bootloader.constprop.5+0xa0>)
 51c:	4216      	tst	r6, r2
 51e:	d018      	beq.n	552 <Chip_SPI_RWFrames_Blocking_Bootloader.constprop.5+0x6e>
 520:	42a0      	cmp	r0, r4
 522:	d216      	bcs.n	552 <Chip_SPI_RWFrames_Blocking_Bootloader.constprop.5+0x6e>
 524:	1e62      	subs	r2, r4, #1
 526:	4290      	cmp	r0, r2
 528:	d10e      	bne.n	548 <Chip_SPI_RWFrames_Blocking_Bootloader.constprop.5+0x64>
 52a:	681a      	ldr	r2, [r3, #0]
 52c:	5c15      	ldrb	r5, [r2, r0]
 52e:	22c0      	movs	r2, #192	; 0xc0
 530:	0392      	lsls	r2, r2, #14
 532:	4315      	orrs	r5, r2
 534:	9500      	str	r5, [sp, #0]
 536:	7d1a      	ldrb	r2, [r3, #20]
 538:	9d01      	ldr	r5, [sp, #4]
 53a:	3a01      	subs	r2, #1
 53c:	0612      	lsls	r2, r2, #24
 53e:	402a      	ands	r2, r5
 540:	9d00      	ldr	r5, [sp, #0]
 542:	432a      	orrs	r2, r5
 544:	61ba      	str	r2, [r7, #24]
 546:	e002      	b.n	54e <Chip_SPI_RWFrames_Blocking_Bootloader.constprop.5+0x6a>
 548:	681a      	ldr	r2, [r3, #0]
 54a:	5c12      	ldrb	r2, [r2, r0]
 54c:	61fa      	str	r2, [r7, #28]
 54e:	3001      	adds	r0, #1
 550:	6058      	str	r0, [r3, #4]
 552:	4662      	mov	r2, ip
 554:	4216      	tst	r6, r2
 556:	d0da      	beq.n	50e <Chip_SPI_RWFrames_Blocking_Bootloader.constprop.5+0x2a>
 558:	68da      	ldr	r2, [r3, #12]
 55a:	4294      	cmp	r4, r2
 55c:	d9d7      	bls.n	50e <Chip_SPI_RWFrames_Blocking_Bootloader.constprop.5+0x2a>
 55e:	6948      	ldr	r0, [r1, #20]
 560:	689c      	ldr	r4, [r3, #8]
 562:	54a0      	strb	r0, [r4, r2]
 564:	68da      	ldr	r2, [r3, #12]
 566:	3201      	adds	r2, #1
 568:	60da      	str	r2, [r3, #12]
 56a:	e7d0      	b.n	50e <Chip_SPI_RWFrames_Blocking_Bootloader.constprop.5+0x2a>
 56c:	68da      	ldr	r2, [r3, #12]
 56e:	4294      	cmp	r4, r2
 570:	d8d1      	bhi.n	516 <Chip_SPI_RWFrames_Blocking_Bootloader.constprop.5+0x32>
 572:	230c      	movs	r3, #12
 574:	688a      	ldr	r2, [r1, #8]
 576:	401a      	ands	r2, r3
 578:	4253      	negs	r3, r2
 57a:	4153      	adcs	r3, r2
 57c:	425b      	negs	r3, r3
 57e:	4018      	ands	r0, r3
 580:	bdfe      	pop	{r1, r2, r3, r4, r5, r6, r7, pc}
 582:	46c0      	nop			; (mov r8, r8)
 584:	40058000 	.word	0x40058000
 588:	10000408 	.word	0x10000408

0000058c <SST25_ReadBUSY_Bootloader>:
 58c:	2205      	movs	r2, #5
 58e:	4b06      	ldr	r3, [pc, #24]	; (5a8 <SST25_ReadBUSY_Bootloader+0x1c>)
 590:	b510      	push	{r4, lr}
 592:	701a      	strb	r2, [r3, #0]
 594:	4b05      	ldr	r3, [pc, #20]	; (5ac <SST25_ReadBUSY_Bootloader+0x20>)
 596:	3a03      	subs	r2, #3
 598:	611a      	str	r2, [r3, #16]
 59a:	f7ff ffa3 	bl	4e4 <Chip_SPI_RWFrames_Blocking_Bootloader.constprop.5>
 59e:	4b04      	ldr	r3, [pc, #16]	; (5b0 <SST25_ReadBUSY_Bootloader+0x24>)
 5a0:	7858      	ldrb	r0, [r3, #1]
 5a2:	2301      	movs	r3, #1
 5a4:	4018      	ands	r0, r3
 5a6:	bd10      	pop	{r4, pc}
 5a8:	10000420 	.word	0x10000420
 5ac:	10000408 	.word	0x10000408
 5b0:	100004a0 	.word	0x100004a0

000005b4 <SST25_Read_Bootloader>:
 5b4:	b570      	push	{r4, r5, r6, lr}
 5b6:	0015      	movs	r5, r2
 5b8:	2203      	movs	r2, #3
 5ba:	4b0c      	ldr	r3, [pc, #48]	; (5ec <SST25_Read_Bootloader+0x38>)
 5bc:	4c0c      	ldr	r4, [pc, #48]	; (5f0 <SST25_Read_Bootloader+0x3c>)
 5be:	701a      	strb	r2, [r3, #0]
 5c0:	0c02      	lsrs	r2, r0, #16
 5c2:	705a      	strb	r2, [r3, #1]
 5c4:	3104      	adds	r1, #4
 5c6:	0a02      	lsrs	r2, r0, #8
 5c8:	709a      	strb	r2, [r3, #2]
 5ca:	70d8      	strb	r0, [r3, #3]
 5cc:	6121      	str	r1, [r4, #16]
 5ce:	f7ff ff89 	bl	4e4 <Chip_SPI_RWFrames_Blocking_Bootloader.constprop.5>
 5d2:	2304      	movs	r3, #4
 5d4:	4907      	ldr	r1, [pc, #28]	; (5f4 <SST25_Read_Bootloader+0x40>)
 5d6:	6922      	ldr	r2, [r4, #16]
 5d8:	4293      	cmp	r3, r2
 5da:	d206      	bcs.n	5ea <SST25_Read_Bootloader+0x36>
 5dc:	5cc8      	ldrb	r0, [r1, r3]
 5de:	18ea      	adds	r2, r5, r3
 5e0:	3a04      	subs	r2, #4
 5e2:	3301      	adds	r3, #1
 5e4:	7010      	strb	r0, [r2, #0]
 5e6:	b29b      	uxth	r3, r3
 5e8:	e7f5      	b.n	5d6 <SST25_Read_Bootloader+0x22>
 5ea:	bd70      	pop	{r4, r5, r6, pc}
 5ec:	10000420 	.word	0x10000420
 5f0:	10000408 	.word	0x10000408
 5f4:	100004a0 	.word	0x100004a0

000005f8 <Calc_BlockCRC32>:
 5f8:	b5f0      	push	{r4, r5, r6, r7, lr}
 5fa:	4c2b      	ldr	r4, [pc, #172]	; (6a8 <Calc_BlockCRC32+0xb0>)
 5fc:	2300      	movs	r3, #0
 5fe:	44a5      	add	sp, r4
 600:	2480      	movs	r4, #128	; 0x80
 602:	0006      	movs	r6, r0
 604:	4d29      	ldr	r5, [pc, #164]	; (6ac <Calc_BlockCRC32+0xb4>)
 606:	482a      	ldr	r0, [pc, #168]	; (6b0 <Calc_BlockCRC32+0xb8>)
 608:	0064      	lsls	r4, r4, #1
 60a:	2108      	movs	r1, #8
 60c:	061a      	lsls	r2, r3, #24
 60e:	0057      	lsls	r7, r2, #1
 610:	2a00      	cmp	r2, #0
 612:	da02      	bge.n	61a <Calc_BlockCRC32+0x22>
 614:	003a      	movs	r2, r7
 616:	406a      	eors	r2, r5
 618:	e000      	b.n	61c <Calc_BlockCRC32+0x24>
 61a:	003a      	movs	r2, r7
 61c:	3901      	subs	r1, #1
 61e:	b2c9      	uxtb	r1, r1
 620:	2900      	cmp	r1, #0
 622:	d1f4      	bne.n	60e <Calc_BlockCRC32+0x16>
 624:	009f      	lsls	r7, r3, #2
 626:	1d01      	adds	r1, r0, #4
 628:	3301      	adds	r3, #1
 62a:	507a      	str	r2, [r7, r1]
 62c:	42a3      	cmp	r3, r4
 62e:	d1ec      	bne.n	60a <Calc_BlockCRC32+0x12>
 630:	2501      	movs	r5, #1
 632:	0034      	movs	r4, r6
 634:	426d      	negs	r5, r5
 636:	23f8      	movs	r3, #248	; 0xf8
 638:	031b      	lsls	r3, r3, #12
 63a:	18f0      	adds	r0, r6, r3
 63c:	1b00      	subs	r0, r0, r4
 63e:	2c00      	cmp	r4, #0
 640:	d024      	beq.n	68c <Calc_BlockCRC32+0x94>
 642:	2180      	movs	r1, #128	; 0x80
 644:	466a      	mov	r2, sp
 646:	00c9      	lsls	r1, r1, #3
 648:	f7ff ffb4 	bl	5b4 <SST25_Read_Bootloader>
 64c:	2200      	movs	r2, #0
 64e:	4b19      	ldr	r3, [pc, #100]	; (6b4 <Calc_BlockCRC32+0xbc>)
 650:	18e4      	adds	r4, r4, r3
 652:	466b      	mov	r3, sp
 654:	5c98      	ldrb	r0, [r3, r2]
 656:	2300      	movs	r3, #0
 658:	2107      	movs	r1, #7
 65a:	001f      	movs	r7, r3
 65c:	2301      	movs	r3, #1
 65e:	4218      	tst	r0, r3
 660:	d001      	beq.n	666 <Calc_BlockCRC32+0x6e>
 662:	408b      	lsls	r3, r1
 664:	431f      	orrs	r7, r3
 666:	0840      	lsrs	r0, r0, #1
 668:	3901      	subs	r1, #1
 66a:	d2f7      	bcs.n	65c <Calc_BlockCRC32+0x64>
 66c:	003b      	movs	r3, r7
 66e:	0e29      	lsrs	r1, r5, #24
 670:	404b      	eors	r3, r1
 672:	b2db      	uxtb	r3, r3
 674:	490e      	ldr	r1, [pc, #56]	; (6b0 <Calc_BlockCRC32+0xb8>)
 676:	009b      	lsls	r3, r3, #2
 678:	18cb      	adds	r3, r1, r3
 67a:	685b      	ldr	r3, [r3, #4]
 67c:	022d      	lsls	r5, r5, #8
 67e:	405d      	eors	r5, r3
 680:	2380      	movs	r3, #128	; 0x80
 682:	3201      	adds	r2, #1
 684:	00db      	lsls	r3, r3, #3
 686:	429a      	cmp	r2, r3
 688:	d1e3      	bne.n	652 <Calc_BlockCRC32+0x5a>
 68a:	e7d4      	b.n	636 <Calc_BlockCRC32+0x3e>
 68c:	231f      	movs	r3, #31
 68e:	2201      	movs	r2, #1
 690:	4215      	tst	r5, r2
 692:	d002      	beq.n	69a <Calc_BlockCRC32+0xa2>
 694:	0011      	movs	r1, r2
 696:	4099      	lsls	r1, r3
 698:	430c      	orrs	r4, r1
 69a:	086d      	lsrs	r5, r5, #1
 69c:	3b01      	subs	r3, #1
 69e:	d2f7      	bcs.n	690 <Calc_BlockCRC32+0x98>
 6a0:	43e0      	mvns	r0, r4
 6a2:	4b05      	ldr	r3, [pc, #20]	; (6b8 <Calc_BlockCRC32+0xc0>)
 6a4:	449d      	add	sp, r3
 6a6:	bdf0      	pop	{r4, r5, r6, r7, pc}
 6a8:	fffffbfc 	.word	0xfffffbfc
 6ac:	04c11db7 	.word	0x04c11db7
 6b0:	100008a0 	.word	0x100008a0
 6b4:	fffffc00 	.word	0xfffffc00
 6b8:	00000404 	.word	0x00000404

000006bc <SST25_WriteEnable_Bootloader>:
 6bc:	2206      	movs	r2, #6
 6be:	4b06      	ldr	r3, [pc, #24]	; (6d8 <SST25_WriteEnable_Bootloader+0x1c>)
 6c0:	b510      	push	{r4, lr}
 6c2:	701a      	strb	r2, [r3, #0]
 6c4:	4b05      	ldr	r3, [pc, #20]	; (6dc <SST25_WriteEnable_Bootloader+0x20>)
 6c6:	3a05      	subs	r2, #5
 6c8:	611a      	str	r2, [r3, #16]
 6ca:	f7ff ff0b 	bl	4e4 <Chip_SPI_RWFrames_Blocking_Bootloader.constprop.5>
 6ce:	f7ff ff5d 	bl	58c <SST25_ReadBUSY_Bootloader>
 6d2:	2800      	cmp	r0, #0
 6d4:	d1fb      	bne.n	6ce <SST25_WriteEnable_Bootloader+0x12>
 6d6:	bd10      	pop	{r4, pc}
 6d8:	10000420 	.word	0x10000420
 6dc:	10000408 	.word	0x10000408

000006e0 <SPI_FlushFifos_Bootloader.lto_priv.107>:
 6e0:	23de      	movs	r3, #222	; 0xde
 6e2:	4a06      	ldr	r2, [pc, #24]	; (6fc <SPI_FlushFifos_Bootloader.lto_priv.107+0x1c>)
 6e4:	005b      	lsls	r3, r3, #1
 6e6:	6811      	ldr	r1, [r2, #0]
 6e8:	400b      	ands	r3, r1
 6ea:	6013      	str	r3, [r2, #0]
 6ec:	23be      	movs	r3, #190	; 0xbe
 6ee:	6811      	ldr	r1, [r2, #0]
 6f0:	33ff      	adds	r3, #255	; 0xff
 6f2:	400b      	ands	r3, r1
 6f4:	2101      	movs	r1, #1
 6f6:	430b      	orrs	r3, r1
 6f8:	6013      	str	r3, [r2, #0]
 6fa:	4770      	bx	lr
 6fc:	40058000 	.word	0x40058000

00000700 <Blink5>:
 700:	b573      	push	{r0, r1, r4, r5, r6, lr}
 702:	20a0      	movs	r0, #160	; 0xa0
 704:	248c      	movs	r4, #140	; 0x8c
 706:	2580      	movs	r5, #128	; 0x80
 708:	2303      	movs	r3, #3
 70a:	2100      	movs	r1, #0
 70c:	4e0a      	ldr	r6, [pc, #40]	; (738 <Blink5+0x38>)
 70e:	0600      	lsls	r0, r0, #24
 710:	01a4      	lsls	r4, r4, #6
 712:	006d      	lsls	r5, r5, #1
 714:	5105      	str	r5, [r0, r4]
 716:	9101      	str	r1, [sp, #4]
 718:	9100      	str	r1, [sp, #0]
 71a:	9a00      	ldr	r2, [sp, #0]
 71c:	42b2      	cmp	r2, r6
 71e:	d806      	bhi.n	72e <Blink5+0x2e>
 720:	9a01      	ldr	r2, [sp, #4]
 722:	3201      	adds	r2, #1
 724:	9201      	str	r2, [sp, #4]
 726:	9a00      	ldr	r2, [sp, #0]
 728:	3201      	adds	r2, #1
 72a:	9200      	str	r2, [sp, #0]
 72c:	e7f5      	b.n	71a <Blink5+0x1a>
 72e:	3b01      	subs	r3, #1
 730:	2b00      	cmp	r3, #0
 732:	d1ef      	bne.n	714 <Blink5+0x14>
 734:	bd73      	pop	{r0, r1, r4, r5, r6, pc}
 736:	46c0      	nop			; (mov r8, r8)
 738:	00030d3f 	.word	0x00030d3f

Disassembly of section .text:

00000800 <__data_section_table>:
     800:	00007a28 	.word	0x00007a28
     804:	10000008 	.word	0x10000008
     808:	0000001c 	.word	0x0000001c

0000080c <__bss_section_table>:
     80c:	10000024 	.word	0x10000024
     810:	00000ae8 	.word	0x00000ae8

00000814 <NMI_Handler_Jump_Vector>:
     814:	b510      	push	{r4, lr}
     816:	f000 f906 	bl	a26 <ADC_OVR_IRQHandler>
     81a:	bd10      	pop	{r4, pc}

0000081c <HardFault_Handler_Jump_Vector>:
     81c:	b510      	push	{r4, lr}
     81e:	f000 f902 	bl	a26 <ADC_OVR_IRQHandler>
     822:	bd10      	pop	{r4, pc}

00000824 <SVC_Handler_Jump_Vector>:
     824:	b510      	push	{r4, lr}
     826:	f000 f8fe 	bl	a26 <ADC_OVR_IRQHandler>
     82a:	bd10      	pop	{r4, pc}

0000082c <PendSV_Handler_Jump_Vector>:
     82c:	b510      	push	{r4, lr}
     82e:	f000 f8fa 	bl	a26 <ADC_OVR_IRQHandler>
     832:	bd10      	pop	{r4, pc}

00000834 <SysTick_Handler_Jump_Vector>:
     834:	b510      	push	{r4, lr}
     836:	f003 fd69 	bl	430c <SysTick_Handler>
     83a:	bd10      	pop	{r4, pc}

0000083c <SPI0_IRQHandler_Jump_Vector>:
     83c:	b510      	push	{r4, lr}
     83e:	f004 fec3 	bl	55c8 <SPI0_IRQHandler>
     842:	bd10      	pop	{r4, pc}

00000844 <SPI1_IRQHandler_Jump_Vector>:
     844:	b510      	push	{r4, lr}
     846:	f004 fa51 	bl	4cec <I2C0_IRQHandler>
     84a:	bd10      	pop	{r4, pc}

0000084c <UART0_IRQHandler_Jump_Vector>:
     84c:	b510      	push	{r4, lr}
     84e:	f003 fc09 	bl	4064 <UART0_IRQHandler>
     852:	bd10      	pop	{r4, pc}

00000854 <UART1_IRQHandler_Jump_Vector>:
     854:	b510      	push	{r4, lr}
     856:	f004 fcdd 	bl	5214 <UART1_IRQHandler>
     85a:	bd10      	pop	{r4, pc}

0000085c <UART2_IRQHandler_Jump_Vector>:
     85c:	b510      	push	{r4, lr}
     85e:	f004 fd33 	bl	52c8 <UART2_IRQHandler>
     862:	bd10      	pop	{r4, pc}

00000864 <I2C0_IRQHandler_Jump_Vector>:
     864:	b510      	push	{r4, lr}
     866:	f004 fa41 	bl	4cec <I2C0_IRQHandler>
     86a:	bd10      	pop	{r4, pc}

0000086c <I2C1_IRQHandler_Jump_Vector>:
     86c:	b510      	push	{r4, lr}
     86e:	f000 f8d3 	bl	a18 <I2C1_IRQHandler>
     872:	bd10      	pop	{r4, pc}

00000874 <I2C2_IRQHandler_Jump_Vector>:
     874:	b510      	push	{r4, lr}
     876:	f000 f8d6 	bl	a26 <ADC_OVR_IRQHandler>
     87a:	bd10      	pop	{r4, pc}

0000087c <I2C3_IRQHandler_Jump_Vector>:
     87c:	b510      	push	{r4, lr}
     87e:	f000 f8d2 	bl	a26 <ADC_OVR_IRQHandler>
     882:	bd10      	pop	{r4, pc}

00000884 <SCT_IRQHandler_Jump_Vector>:
     884:	b510      	push	{r4, lr}
     886:	f000 f8ce 	bl	a26 <ADC_OVR_IRQHandler>
     88a:	bd10      	pop	{r4, pc}

0000088c <MRT_IRQHandler_Jump_Vector>:
     88c:	b510      	push	{r4, lr}
     88e:	f000 f8ca 	bl	a26 <ADC_OVR_IRQHandler>
     892:	bd10      	pop	{r4, pc}

00000894 <CMP_IRQHandler_Jump_Vector>:
     894:	b510      	push	{r4, lr}
     896:	f000 f8c6 	bl	a26 <ADC_OVR_IRQHandler>
     89a:	bd10      	pop	{r4, pc}

0000089c <WDT_IRQHandler_Jump_Vector>:
     89c:	b510      	push	{r4, lr}
     89e:	f000 f8c2 	bl	a26 <ADC_OVR_IRQHandler>
     8a2:	bd10      	pop	{r4, pc}

000008a4 <BOD_IRQHandler_Jump_Vector>:
     8a4:	b510      	push	{r4, lr}
     8a6:	f000 f8be 	bl	a26 <ADC_OVR_IRQHandler>
     8aa:	bd10      	pop	{r4, pc}

000008ac <FLASH_IRQHandler_Jump_Vector>:
     8ac:	b510      	push	{r4, lr}
     8ae:	f000 f8ba 	bl	a26 <ADC_OVR_IRQHandler>
     8b2:	bd10      	pop	{r4, pc}

000008b4 <WKT_IRQHandler_Jump_Vector>:
     8b4:	b510      	push	{r4, lr}
     8b6:	f000 f8b6 	bl	a26 <ADC_OVR_IRQHandler>
     8ba:	bd10      	pop	{r4, pc}

000008bc <ADC_SEQA_IRQHandler_Jump_Vector>:
     8bc:	b510      	push	{r4, lr}
     8be:	f000 f8b2 	bl	a26 <ADC_OVR_IRQHandler>
     8c2:	bd10      	pop	{r4, pc}

000008c4 <ADC_SEQB_IRQHandler_Jump_Vector>:
     8c4:	b510      	push	{r4, lr}
     8c6:	f000 f8ae 	bl	a26 <ADC_OVR_IRQHandler>
     8ca:	bd10      	pop	{r4, pc}

000008cc <ADC_THCMP_IRQHandler_Jump_Vector>:
     8cc:	b510      	push	{r4, lr}
     8ce:	f000 f8aa 	bl	a26 <ADC_OVR_IRQHandler>
     8d2:	bd10      	pop	{r4, pc}

000008d4 <ADC_OVR_IRQHandler_Jump_Vector>:
     8d4:	b510      	push	{r4, lr}
     8d6:	f000 f8a6 	bl	a26 <ADC_OVR_IRQHandler>
     8da:	bd10      	pop	{r4, pc}

000008dc <DMA_IRQHandler_Jump_Vector>:
     8dc:	b510      	push	{r4, lr}
     8de:	f000 f8a2 	bl	a26 <ADC_OVR_IRQHandler>
     8e2:	bd10      	pop	{r4, pc}

000008e4 <PIN_INT0_IRQHandler_Jump_Vector>:
     8e4:	b510      	push	{r4, lr}
     8e6:	f003 fda9 	bl	443c <PIN_INT0_IRQHandler>
     8ea:	bd10      	pop	{r4, pc}

000008ec <PIN_INT1_IRQHandler_Jump_Vector>:
     8ec:	b510      	push	{r4, lr}
     8ee:	f004 f9fd 	bl	4cec <I2C0_IRQHandler>
     8f2:	bd10      	pop	{r4, pc}

000008f4 <PIN_INT2_IRQHandler_Jump_Vector>:
     8f4:	b510      	push	{r4, lr}
     8f6:	f004 f9f9 	bl	4cec <I2C0_IRQHandler>
     8fa:	bd10      	pop	{r4, pc}

000008fc <PIN_INT3_IRQHandler_Jump_Vector>:
     8fc:	b510      	push	{r4, lr}
     8fe:	f000 f892 	bl	a26 <ADC_OVR_IRQHandler>
     902:	bd10      	pop	{r4, pc}

00000904 <PIN_INT4_IRQHandler_Jump_Vector>:
     904:	b510      	push	{r4, lr}
     906:	f000 f88e 	bl	a26 <ADC_OVR_IRQHandler>
     90a:	bd10      	pop	{r4, pc}

0000090c <PIN_INT5_IRQHandler_Jump_Vector>:
     90c:	b510      	push	{r4, lr}
     90e:	f000 f88a 	bl	a26 <ADC_OVR_IRQHandler>
     912:	bd10      	pop	{r4, pc}

00000914 <PIN_INT6_IRQHandler_Jump_Vector>:
     914:	b510      	push	{r4, lr}
     916:	f000 f886 	bl	a26 <ADC_OVR_IRQHandler>
     91a:	bd10      	pop	{r4, pc}

0000091c <PIN_INT7_IRQHandler_Jump_Vector>:
     91c:	b510      	push	{r4, lr}
     91e:	f000 f882 	bl	a26 <ADC_OVR_IRQHandler>
     922:	bd10      	pop	{r4, pc}

00000924 <StartNormalOperation>:
     924:	b570      	push	{r4, r5, r6, lr}
     926:	4b2f      	ldr	r3, [pc, #188]	; (9e4 <StartNormalOperation+0xc0>)
     928:	492f      	ldr	r1, [pc, #188]	; (9e8 <StartNormalOperation+0xc4>)
     92a:	428b      	cmp	r3, r1
     92c:	d20b      	bcs.n	946 <StartNormalOperation+0x22>
     92e:	2200      	movs	r2, #0
     930:	681c      	ldr	r4, [r3, #0]
     932:	685d      	ldr	r5, [r3, #4]
     934:	6898      	ldr	r0, [r3, #8]
     936:	4290      	cmp	r0, r2
     938:	d903      	bls.n	942 <StartNormalOperation+0x1e>
     93a:	5916      	ldr	r6, [r2, r4]
     93c:	5156      	str	r6, [r2, r5]
     93e:	3204      	adds	r2, #4
     940:	e7f9      	b.n	936 <StartNormalOperation+0x12>
     942:	330c      	adds	r3, #12
     944:	e7f1      	b.n	92a <StartNormalOperation+0x6>
     946:	2000      	movs	r0, #0
     948:	4b28      	ldr	r3, [pc, #160]	; (9ec <StartNormalOperation+0xc8>)
     94a:	4929      	ldr	r1, [pc, #164]	; (9f0 <StartNormalOperation+0xcc>)
     94c:	428b      	cmp	r3, r1
     94e:	d209      	bcs.n	964 <StartNormalOperation+0x40>
     950:	2200      	movs	r2, #0
     952:	681d      	ldr	r5, [r3, #0]
     954:	685c      	ldr	r4, [r3, #4]
     956:	4294      	cmp	r4, r2
     958:	d902      	bls.n	960 <StartNormalOperation+0x3c>
     95a:	5150      	str	r0, [r2, r5]
     95c:	3204      	adds	r2, #4
     95e:	e7fa      	b.n	956 <StartNormalOperation+0x32>
     960:	3308      	adds	r3, #8
     962:	e7f3      	b.n	94c <StartNormalOperation+0x28>
     964:	4823      	ldr	r0, [pc, #140]	; (9f4 <StartNormalOperation+0xd0>)
     966:	4a24      	ldr	r2, [pc, #144]	; (9f8 <StartNormalOperation+0xd4>)
     968:	2100      	movs	r1, #0
     96a:	1a12      	subs	r2, r2, r0
     96c:	1092      	asrs	r2, r2, #2
     96e:	f005 fb67 	bl	6040 <memset>
     972:	4822      	ldr	r0, [pc, #136]	; (9fc <StartNormalOperation+0xd8>)
     974:	4a22      	ldr	r2, [pc, #136]	; (a00 <StartNormalOperation+0xdc>)
     976:	2100      	movs	r1, #0
     978:	1a12      	subs	r2, r2, r0
     97a:	1092      	asrs	r2, r2, #2
     97c:	f005 fb60 	bl	6040 <memset>
     980:	228e      	movs	r2, #142	; 0x8e
     982:	25da      	movs	r5, #218	; 0xda
     984:	4b1f      	ldr	r3, [pc, #124]	; (a04 <StartNormalOperation+0xe0>)
     986:	0092      	lsls	r2, r2, #2
     988:	5898      	ldr	r0, [r3, r2]
     98a:	491f      	ldr	r1, [pc, #124]	; (a08 <StartNormalOperation+0xe4>)
     98c:	01ed      	lsls	r5, r5, #7
     98e:	4001      	ands	r1, r0
     990:	4329      	orrs	r1, r5
     992:	5099      	str	r1, [r3, r2]
     994:	2100      	movs	r1, #0
     996:	481d      	ldr	r0, [pc, #116]	; (a0c <StartNormalOperation+0xe8>)
     998:	6419      	str	r1, [r3, #64]	; 0x40
     99a:	6459      	str	r1, [r3, #68]	; 0x44
     99c:	3101      	adds	r1, #1
     99e:	6459      	str	r1, [r3, #68]	; 0x44
     9a0:	6904      	ldr	r4, [r0, #16]
     9a2:	6101      	str	r1, [r0, #16]
     9a4:	5898      	ldr	r0, [r3, r2]
     9a6:	4c1a      	ldr	r4, [pc, #104]	; (a10 <StartNormalOperation+0xec>)
     9a8:	4004      	ands	r4, r0
     9aa:	20db      	movs	r0, #219	; 0xdb
     9ac:	01c0      	lsls	r0, r0, #7
     9ae:	4304      	orrs	r4, r0
     9b0:	2041      	movs	r0, #65	; 0x41
     9b2:	509c      	str	r4, [r3, r2]
     9b4:	6098      	str	r0, [r3, #8]
     9b6:	5898      	ldr	r0, [r3, r2]
     9b8:	4c16      	ldr	r4, [pc, #88]	; (a14 <StartNormalOperation+0xf0>)
     9ba:	4020      	ands	r0, r4
     9bc:	4328      	orrs	r0, r5
     9be:	5098      	str	r0, [r3, r2]
     9c0:	68dc      	ldr	r4, [r3, #12]
     9c2:	4a10      	ldr	r2, [pc, #64]	; (a04 <StartNormalOperation+0xe0>)
     9c4:	2001      	movs	r0, #1
     9c6:	420c      	tst	r4, r1
     9c8:	d0fa      	beq.n	9c0 <StartNormalOperation+0x9c>
     9ca:	2303      	movs	r3, #3
     9cc:	6790      	str	r0, [r2, #120]	; 0x78
     9ce:	6713      	str	r3, [r2, #112]	; 0x70
     9d0:	2300      	movs	r3, #0
     9d2:	6753      	str	r3, [r2, #116]	; 0x74
     9d4:	6750      	str	r0, [r2, #116]	; 0x74
     9d6:	3011      	adds	r0, #17
     9d8:	f003 fa5d 	bl	3e96 <Chip_Clock_EnablePeriphClock.lto_priv.60.lto_priv.95>
     9dc:	f005 fb34 	bl	6048 <__weak_main>
     9e0:	bd70      	pop	{r4, r5, r6, pc}
     9e2:	46c0      	nop			; (mov r8, r8)
     9e4:	00000800 	.word	0x00000800
     9e8:	0000080c 	.word	0x0000080c
     9ec:	0000080c 	.word	0x0000080c
     9f0:	00000814 	.word	0x00000814
     9f4:	10000b0c 	.word	0x10000b0c
     9f8:	1000132a 	.word	0x1000132a
     9fc:	10000b0c 	.word	0x10000b0c
     a00:	100012cc 	.word	0x100012cc
     a04:	40048000 	.word	0x40048000
     a08:	000080fd 	.word	0x000080fd
     a0c:	40040000 	.word	0x40040000
     a10:	000080ff 	.word	0x000080ff
     a14:	0000807f 	.word	0x0000807f

00000a18 <I2C1_IRQHandler>:
     a18:	b510      	push	{r4, lr}
     a1a:	f001 ffb9 	bl	2990 <I2C1_InterruptHandler>
     a1e:	bd10      	pop	{r4, pc}

00000a20 <IntDefaultHandler>:
     a20:	b580      	push	{r7, lr}
     a22:	af00      	add	r7, sp, #0
     a24:	e7fe      	b.n	a24 <IntDefaultHandler+0x4>

00000a26 <ADC_OVR_IRQHandler>:
     a26:	b510      	push	{r4, lr}
     a28:	f7ff fffa 	bl	a20 <IntDefaultHandler>
     a2c:	bd10      	pop	{r4, pc}
     a2e:	Address 0x00000a2e is out of bounds.


00000a30 <main>:
     a30:	b5f0      	push	{r4, r5, r6, r7, lr}
     a32:	b0c3      	sub	sp, #268	; 0x10c
     a34:	f003 fae9 	bl	400a <Chip_Clock_GetSystemClockRate>
     a38:	4bd3      	ldr	r3, [pc, #844]	; (d88 <main+0x358>)
     a3a:	2164      	movs	r1, #100	; 0x64
     a3c:	6018      	str	r0, [r3, #0]
     a3e:	f7ff fb47 	bl	d0 <__aeabi_uidiv>
     a42:	4bd2      	ldr	r3, [pc, #840]	; (d8c <main+0x35c>)
     a44:	3801      	subs	r0, #1
     a46:	4298      	cmp	r0, r3
     a48:	d80d      	bhi.n	a66 <main+0x36>
     a4a:	4ad1      	ldr	r2, [pc, #836]	; (d90 <main+0x360>)
     a4c:	49d1      	ldr	r1, [pc, #836]	; (d94 <main+0x364>)
     a4e:	6050      	str	r0, [r2, #4]
     a50:	20c0      	movs	r0, #192	; 0xc0
     a52:	6a0b      	ldr	r3, [r1, #32]
     a54:	0600      	lsls	r0, r0, #24
     a56:	021b      	lsls	r3, r3, #8
     a58:	0a1b      	lsrs	r3, r3, #8
     a5a:	4303      	orrs	r3, r0
     a5c:	620b      	str	r3, [r1, #32]
     a5e:	2300      	movs	r3, #0
     a60:	6093      	str	r3, [r2, #8]
     a62:	3307      	adds	r3, #7
     a64:	6013      	str	r3, [r2, #0]
     a66:	2701      	movs	r7, #1
     a68:	2007      	movs	r0, #7
     a6a:	f003 fa14 	bl	3e96 <Chip_Clock_EnablePeriphClock.lto_priv.60.lto_priv.95>
     a6e:	21ff      	movs	r1, #255	; 0xff
     a70:	2090      	movs	r0, #144	; 0x90
     a72:	24b0      	movs	r4, #176	; 0xb0
     a74:	4bc8      	ldr	r3, [pc, #800]	; (d98 <main+0x368>)
     a76:	0140      	lsls	r0, r0, #5
     a78:	601f      	str	r7, [r3, #0]
     a7a:	4bc8      	ldr	r3, [pc, #800]	; (d9c <main+0x36c>)
     a7c:	0324      	lsls	r4, r4, #12
     a7e:	681a      	ldr	r2, [r3, #0]
     a80:	4dc7      	ldr	r5, [pc, #796]	; (da0 <main+0x370>)
     a82:	438a      	bics	r2, r1
     a84:	39fb      	subs	r1, #251	; 0xfb
     a86:	430a      	orrs	r2, r1
     a88:	601a      	str	r2, [r3, #0]
     a8a:	681a      	ldr	r2, [r3, #0]
     a8c:	49c5      	ldr	r1, [pc, #788]	; (da4 <main+0x374>)
     a8e:	400a      	ands	r2, r1
     a90:	601a      	str	r2, [r3, #0]
     a92:	685a      	ldr	r2, [r3, #4]
     a94:	400a      	ands	r2, r1
     a96:	4302      	orrs	r2, r0
     a98:	605a      	str	r2, [r3, #4]
     a9a:	6858      	ldr	r0, [r3, #4]
     a9c:	4ac2      	ldr	r2, [pc, #776]	; (da8 <main+0x378>)
     a9e:	4010      	ands	r0, r2
     aa0:	4320      	orrs	r0, r4
     aa2:	24d8      	movs	r4, #216	; 0xd8
     aa4:	6058      	str	r0, [r3, #4]
     aa6:	6898      	ldr	r0, [r3, #8]
     aa8:	0364      	lsls	r4, r4, #13
     aaa:	4010      	ands	r0, r2
     aac:	4320      	orrs	r0, r4
     aae:	2480      	movs	r4, #128	; 0x80
     ab0:	6098      	str	r0, [r3, #8]
     ab2:	6898      	ldr	r0, [r3, #8]
     ab4:	0564      	lsls	r4, r4, #21
     ab6:	0200      	lsls	r0, r0, #8
     ab8:	0a00      	lsrs	r0, r0, #8
     aba:	4320      	orrs	r0, r4
     abc:	24d0      	movs	r4, #208	; 0xd0
     abe:	6098      	str	r0, [r3, #8]
     ac0:	6918      	ldr	r0, [r3, #16]
     ac2:	0364      	lsls	r4, r4, #13
     ac4:	4010      	ands	r0, r2
     ac6:	4320      	orrs	r0, r4
     ac8:	24c0      	movs	r4, #192	; 0xc0
     aca:	6118      	str	r0, [r3, #16]
     acc:	68d8      	ldr	r0, [r3, #12]
     ace:	0564      	lsls	r4, r4, #21
     ad0:	0200      	lsls	r0, r0, #8
     ad2:	0a00      	lsrs	r0, r0, #8
     ad4:	4320      	orrs	r0, r4
     ad6:	24c8      	movs	r4, #200	; 0xc8
     ad8:	60d8      	str	r0, [r3, #12]
     ada:	6918      	ldr	r0, [r3, #16]
     adc:	0164      	lsls	r4, r4, #5
     ade:	4008      	ands	r0, r1
     ae0:	4320      	orrs	r0, r4
     ae2:	24ff      	movs	r4, #255	; 0xff
     ae4:	6118      	str	r0, [r3, #16]
     ae6:	6918      	ldr	r0, [r3, #16]
     ae8:	43a0      	bics	r0, r4
     aea:	3cf0      	subs	r4, #240	; 0xf0
     aec:	4320      	orrs	r0, r4
     aee:	6118      	str	r0, [r3, #16]
     af0:	6a58      	ldr	r0, [r3, #36]	; 0x24
     af2:	2400      	movs	r4, #0
     af4:	4001      	ands	r1, r0
     af6:	20c0      	movs	r0, #192	; 0xc0
     af8:	00c0      	lsls	r0, r0, #3
     afa:	4301      	orrs	r1, r0
     afc:	6259      	str	r1, [r3, #36]	; 0x24
     afe:	6a59      	ldr	r1, [r3, #36]	; 0x24
     b00:	200e      	movs	r0, #14
     b02:	400a      	ands	r2, r1
     b04:	21e0      	movs	r1, #224	; 0xe0
     b06:	02c9      	lsls	r1, r1, #11
     b08:	430a      	orrs	r2, r1
     b0a:	625a      	str	r2, [r3, #36]	; 0x24
     b0c:	4aa7      	ldr	r2, [pc, #668]	; (dac <main+0x37c>)
     b0e:	4ba8      	ldr	r3, [pc, #672]	; (db0 <main+0x380>)
     b10:	6fd1      	ldr	r1, [r2, #124]	; 0x7c
     b12:	400b      	ands	r3, r1
     b14:	67d3      	str	r3, [r2, #124]	; 0x7c
     b16:	4ba7      	ldr	r3, [pc, #668]	; (db4 <main+0x384>)
     b18:	701c      	strb	r4, [r3, #0]
     b1a:	4ba7      	ldr	r3, [pc, #668]	; (db8 <main+0x388>)
     b1c:	3331      	adds	r3, #49	; 0x31
     b1e:	701c      	strb	r4, [r3, #0]
     b20:	f003 f9b9 	bl	3e96 <Chip_Clock_EnablePeriphClock.lto_priv.60.lto_priv.95>
     b24:	2003      	movs	r0, #3
     b26:	f003 fa25 	bl	3f74 <Chip_SYSCTL_PeriphReset.lto_priv.65.lto_priv.94>
     b2a:	682b      	ldr	r3, [r5, #0]
     b2c:	4aa3      	ldr	r2, [pc, #652]	; (dbc <main+0x38c>)
     b2e:	21e1      	movs	r1, #225	; 0xe1
     b30:	4013      	ands	r3, r2
     b32:	2204      	movs	r2, #4
     b34:	4313      	orrs	r3, r2
     b36:	602b      	str	r3, [r5, #0]
     b38:	4ba1      	ldr	r3, [pc, #644]	; (dc0 <main+0x390>)
     b3a:	0349      	lsls	r1, r1, #13
     b3c:	689e      	ldr	r6, [r3, #8]
     b3e:	231f      	movs	r3, #31
     b40:	401e      	ands	r6, r3
     b42:	4ba0      	ldr	r3, [pc, #640]	; (dc4 <main+0x394>)
     b44:	19f6      	adds	r6, r6, r7
     b46:	435e      	muls	r6, r3
     b48:	0030      	movs	r0, r6
     b4a:	f7ff fac1 	bl	d0 <__aeabi_uidiv>
     b4e:	4b92      	ldr	r3, [pc, #584]	; (d98 <main+0x368>)
     b50:	9001      	str	r0, [sp, #4]
     b52:	6018      	str	r0, [r3, #0]
     b54:	2002      	movs	r0, #2
     b56:	f003 fa0d 	bl	3f74 <Chip_SYSCTL_PeriphReset.lto_priv.65.lto_priv.94>
     b5a:	22ff      	movs	r2, #255	; 0xff
     b5c:	4b9a      	ldr	r3, [pc, #616]	; (dc8 <main+0x398>)
     b5e:	9901      	ldr	r1, [sp, #4]
     b60:	601a      	str	r2, [r3, #0]
     b62:	0030      	movs	r0, r6
     b64:	f7ff fab4 	bl	d0 <__aeabi_uidiv>
     b68:	21e1      	movs	r1, #225	; 0xe1
     b6a:	0200      	lsls	r0, r0, #8
     b6c:	0349      	lsls	r1, r1, #13
     b6e:	f7ff faaf 	bl	d0 <__aeabi_uidiv>
     b72:	23ff      	movs	r3, #255	; 0xff
     b74:	4018      	ands	r0, r3
     b76:	4b95      	ldr	r3, [pc, #596]	; (dcc <main+0x39c>)
     b78:	4e95      	ldr	r6, [pc, #596]	; (dd0 <main+0x3a0>)
     b7a:	6018      	str	r0, [r3, #0]
     b7c:	f003 fa0e 	bl	3f9c <Chip_Clock_GetUSARTNBaseClockRate>
     b80:	21e1      	movs	r1, #225	; 0xe1
     b82:	0028      	movs	r0, r5
     b84:	0249      	lsls	r1, r1, #9
     b86:	f003 fa35 	bl	3ff4 <Chip_UART_SetBaud>
     b8a:	682b      	ldr	r3, [r5, #0]
     b8c:	4a91      	ldr	r2, [pc, #580]	; (dd4 <main+0x3a4>)
     b8e:	2180      	movs	r1, #128	; 0x80
     b90:	4013      	ands	r3, r2
     b92:	433b      	orrs	r3, r7
     b94:	602b      	str	r3, [r5, #0]
     b96:	686b      	ldr	r3, [r5, #4]
     b98:	4a8f      	ldr	r2, [pc, #572]	; (dd8 <main+0x3a8>)
     b9a:	05c9      	lsls	r1, r1, #23
     b9c:	4013      	ands	r3, r2
     b9e:	4a7a      	ldr	r2, [pc, #488]	; (d88 <main+0x358>)
     ba0:	606b      	str	r3, [r5, #4]
     ba2:	4b8e      	ldr	r3, [pc, #568]	; (ddc <main+0x3ac>)
     ba4:	3204      	adds	r2, #4
     ba6:	601a      	str	r2, [r3, #0]
     ba8:	2280      	movs	r2, #128	; 0x80
     baa:	0092      	lsls	r2, r2, #2
     bac:	605a      	str	r2, [r3, #4]
     bae:	4a8c      	ldr	r2, [pc, #560]	; (de0 <main+0x3b0>)
     bb0:	611c      	str	r4, [r3, #16]
     bb2:	60dc      	str	r4, [r3, #12]
     bb4:	609f      	str	r7, [r3, #8]
     bb6:	4b8b      	ldr	r3, [pc, #556]	; (de4 <main+0x3b4>)
     bb8:	3204      	adds	r2, #4
     bba:	601a      	str	r2, [r3, #0]
     bbc:	2280      	movs	r2, #128	; 0x80
     bbe:	605a      	str	r2, [r3, #4]
     bc0:	22c0      	movs	r2, #192	; 0xc0
     bc2:	611c      	str	r4, [r3, #16]
     bc4:	60dc      	str	r4, [r3, #12]
     bc6:	609f      	str	r7, [r3, #8]
     bc8:	60ef      	str	r7, [r5, #12]
     bca:	4d87      	ldr	r5, [pc, #540]	; (de8 <main+0x3b8>)
     bcc:	0092      	lsls	r2, r2, #2
     bce:	58ab      	ldr	r3, [r5, r2]
     bd0:	200f      	movs	r0, #15
     bd2:	021b      	lsls	r3, r3, #8
     bd4:	0a1b      	lsrs	r3, r3, #8
     bd6:	430b      	orrs	r3, r1
     bd8:	50ab      	str	r3, [r5, r2]
     bda:	2308      	movs	r3, #8
     bdc:	602b      	str	r3, [r5, #0]
     bde:	f003 f95a 	bl	3e96 <Chip_Clock_EnablePeriphClock.lto_priv.60.lto_priv.95>
     be2:	2004      	movs	r0, #4
     be4:	f003 f9c6 	bl	3f74 <Chip_SYSCTL_PeriphReset.lto_priv.65.lto_priv.94>
     be8:	6833      	ldr	r3, [r6, #0]
     bea:	4a74      	ldr	r2, [pc, #464]	; (dbc <main+0x38c>)
     bec:	21e1      	movs	r1, #225	; 0xe1
     bee:	4013      	ands	r3, r2
     bf0:	2204      	movs	r2, #4
     bf2:	4313      	orrs	r3, r2
     bf4:	6033      	str	r3, [r6, #0]
     bf6:	0030      	movs	r0, r6
     bf8:	0249      	lsls	r1, r1, #9
     bfa:	f003 f9fb 	bl	3ff4 <Chip_UART_SetBaud>
     bfe:	6833      	ldr	r3, [r6, #0]
     c00:	4a74      	ldr	r2, [pc, #464]	; (dd4 <main+0x3a4>)
     c02:	487a      	ldr	r0, [pc, #488]	; (dec <main+0x3bc>)
     c04:	4013      	ands	r3, r2
     c06:	433b      	orrs	r3, r7
     c08:	6033      	str	r3, [r6, #0]
     c0a:	6873      	ldr	r3, [r6, #4]
     c0c:	4a72      	ldr	r2, [pc, #456]	; (dd8 <main+0x3a8>)
     c0e:	4013      	ands	r3, r2
     c10:	6073      	str	r3, [r6, #4]
     c12:	4a77      	ldr	r2, [pc, #476]	; (df0 <main+0x3c0>)
     c14:	4b77      	ldr	r3, [pc, #476]	; (df4 <main+0x3c4>)
     c16:	601a      	str	r2, [r3, #0]
     c18:	2280      	movs	r2, #128	; 0x80
     c1a:	0092      	lsls	r2, r2, #2
     c1c:	605a      	str	r2, [r3, #4]
     c1e:	609f      	str	r7, [r3, #8]
     c20:	611c      	str	r4, [r3, #16]
     c22:	60dc      	str	r4, [r3, #12]
     c24:	4a74      	ldr	r2, [pc, #464]	; (df8 <main+0x3c8>)
     c26:	4b75      	ldr	r3, [pc, #468]	; (dfc <main+0x3cc>)
     c28:	601a      	str	r2, [r3, #0]
     c2a:	2280      	movs	r2, #128	; 0x80
     c2c:	0052      	lsls	r2, r2, #1
     c2e:	605a      	str	r2, [r3, #4]
     c30:	609f      	str	r7, [r3, #8]
     c32:	611c      	str	r4, [r3, #16]
     c34:	60dc      	str	r4, [r3, #12]
     c36:	2310      	movs	r3, #16
     c38:	60f7      	str	r7, [r6, #12]
     c3a:	4e71      	ldr	r6, [pc, #452]	; (e00 <main+0x3d0>)
     c3c:	602b      	str	r3, [r5, #0]
     c3e:	19db      	adds	r3, r3, r7
     c40:	67f3      	str	r3, [r6, #124]	; 0x7c
     c42:	4b70      	ldr	r3, [pc, #448]	; (e04 <main+0x3d4>)
     c44:	3a02      	subs	r2, #2
     c46:	6819      	ldr	r1, [r3, #0]
     c48:	400a      	ands	r2, r1
     c4a:	601a      	str	r2, [r3, #0]
     c4c:	609f      	str	r7, [r3, #8]
     c4e:	615f      	str	r7, [r3, #20]
     c50:	2380      	movs	r3, #128	; 0x80
     c52:	045b      	lsls	r3, r3, #17
     c54:	0021      	movs	r1, r4
     c56:	602b      	str	r3, [r5, #0]
     c58:	2204      	movs	r2, #4
     c5a:	f005 f9f1 	bl	6040 <memset>
     c5e:	2015      	movs	r0, #21
     c60:	f003 f928 	bl	3eb4 <Set_PinFunctionOutput.constprop.59>
     c64:	2013      	movs	r0, #19
     c66:	f003 f925 	bl	3eb4 <Set_PinFunctionOutput.constprop.59>
     c6a:	2008      	movs	r0, #8
     c6c:	f003 f922 	bl	3eb4 <Set_PinFunctionOutput.constprop.59>
     c70:	200a      	movs	r0, #10
     c72:	f003 f91f 	bl	3eb4 <Set_PinFunctionOutput.constprop.59>
     c76:	2302      	movs	r3, #2
     c78:	220f      	movs	r2, #15
     c7a:	6573      	str	r3, [r6, #84]	; 0x54
     c7c:	6d73      	ldr	r3, [r6, #84]	; 0x54
     c7e:	200b      	movs	r0, #11
     c80:	4013      	ands	r3, r2
     c82:	19d2      	adds	r2, r2, r7
     c84:	4313      	orrs	r3, r2
     c86:	6573      	str	r3, [r6, #84]	; 0x54
     c88:	f003 f905 	bl	3e96 <Chip_Clock_EnablePeriphClock.lto_priv.60.lto_priv.95>
     c8c:	0020      	movs	r0, r4
     c8e:	f003 f971 	bl	3f74 <Chip_SYSCTL_PeriphReset.lto_priv.65.lto_priv.94>
     c92:	2382      	movs	r3, #130	; 0x82
     c94:	4c5c      	ldr	r4, [pc, #368]	; (e08 <main+0x3d8>)
     c96:	33ff      	adds	r3, #255	; 0xff
     c98:	6822      	ldr	r2, [r4, #0]
     c9a:	4e49      	ldr	r6, [pc, #292]	; (dc0 <main+0x390>)
     c9c:	4013      	ands	r3, r2
     c9e:	6023      	str	r3, [r4, #0]
     ca0:	23be      	movs	r3, #190	; 0xbe
     ca2:	6822      	ldr	r2, [r4, #0]
     ca4:	33ff      	adds	r3, #255	; 0xff
     ca6:	4013      	ands	r3, r2
     ca8:	2204      	movs	r2, #4
     caa:	4313      	orrs	r3, r2
     cac:	6023      	str	r3, [r4, #0]
     cae:	23f0      	movs	r3, #240	; 0xf0
     cb0:	031b      	lsls	r3, r3, #12
     cb2:	6223      	str	r3, [r4, #32]
     cb4:	f003 f9a9 	bl	400a <Chip_Clock_GetSystemClockRate>
     cb8:	4954      	ldr	r1, [pc, #336]	; (e0c <main+0x3dc>)
     cba:	f7ff fa09 	bl	d0 <__aeabi_uidiv>
     cbe:	2800      	cmp	r0, #0
     cc0:	d100      	bne.n	cc4 <main+0x294>
     cc2:	0038      	movs	r0, r7
     cc4:	3801      	subs	r0, #1
     cc6:	6260      	str	r0, [r4, #36]	; 0x24
     cc8:	f003 f99f 	bl	400a <Chip_Clock_GetSystemClockRate>
     ccc:	6a63      	ldr	r3, [r4, #36]	; 0x24
     cce:	233d      	movs	r3, #61	; 0x3d
     cd0:	60e3      	str	r3, [r4, #12]
     cd2:	2401      	movs	r4, #1
     cd4:	4b4e      	ldr	r3, [pc, #312]	; (e10 <main+0x3e0>)
     cd6:	4f4f      	ldr	r7, [pc, #316]	; (e14 <main+0x3e4>)
     cd8:	605f      	str	r7, [r3, #4]
     cda:	602c      	str	r4, [r5, #0]
     cdc:	f003 fbea 	bl	44b4 <Get_LogPeriod>
     ce0:	0001      	movs	r1, r0
     ce2:	484d      	ldr	r0, [pc, #308]	; (e18 <main+0x3e8>)
     ce4:	f003 fa7c 	bl	41e0 <Set_Timer>
     ce8:	2008      	movs	r0, #8
     cea:	f003 fe83 	bl	49f4 <SST25_WriteSR>
     cee:	253f      	movs	r5, #63	; 0x3f
     cf0:	228e      	movs	r2, #142	; 0x8e
     cf2:	6275      	str	r5, [r6, #36]	; 0x24
     cf4:	0092      	lsls	r2, r2, #2
     cf6:	58b1      	ldr	r1, [r6, r2]
     cf8:	4b48      	ldr	r3, [pc, #288]	; (e1c <main+0x3ec>)
     cfa:	400b      	ands	r3, r1
     cfc:	21da      	movs	r1, #218	; 0xda
     cfe:	01c9      	lsls	r1, r1, #7
     d00:	430b      	orrs	r3, r1
     d02:	50b3      	str	r3, [r6, r2]
     d04:	6a71      	ldr	r1, [r6, #36]	; 0x24
     d06:	2600      	movs	r6, #0
     d08:	05cb      	lsls	r3, r1, #23
     d0a:	0f1b      	lsrs	r3, r3, #28
     d0c:	009b      	lsls	r3, r3, #2
     d0e:	18ff      	adds	r7, r7, r3
     d10:	231f      	movs	r3, #31
     d12:	4019      	ands	r1, r3
     d14:	1909      	adds	r1, r1, r4
     d16:	40a1      	lsls	r1, r4
     d18:	6978      	ldr	r0, [r7, #20]
     d1a:	f7ff f9d9 	bl	d0 <__aeabi_uidiv>
     d1e:	0887      	lsrs	r7, r0, #2
     d20:	2011      	movs	r0, #17
     d22:	f003 f8b8 	bl	3e96 <Chip_Clock_EnablePeriphClock.lto_priv.60.lto_priv.95>
     d26:	2380      	movs	r3, #128	; 0x80
     d28:	2096      	movs	r0, #150	; 0x96
     d2a:	22ff      	movs	r2, #255	; 0xff
     d2c:	2102      	movs	r1, #2
     d2e:	05db      	lsls	r3, r3, #23
     d30:	0040      	lsls	r0, r0, #1
     d32:	601e      	str	r6, [r3, #0]
     d34:	4347      	muls	r7, r0
     d36:	605a      	str	r2, [r3, #4]
     d38:	4a39      	ldr	r2, [pc, #228]	; (e20 <main+0x3f0>)
     d3a:	615a      	str	r2, [r3, #20]
     d3c:	4a13      	ldr	r2, [pc, #76]	; (d8c <main+0x35c>)
     d3e:	619a      	str	r2, [r3, #24]
     d40:	605f      	str	r7, [r3, #4]
     d42:	681a      	ldr	r2, [r3, #0]
     d44:	402a      	ands	r2, r5
     d46:	430a      	orrs	r2, r1
     d48:	601a      	str	r2, [r3, #0]
     d4a:	681a      	ldr	r2, [r3, #0]
     d4c:	4015      	ands	r5, r2
     d4e:	22aa      	movs	r2, #170	; 0xaa
     d50:	432c      	orrs	r4, r5
     d52:	601c      	str	r4, [r3, #0]
     d54:	609a      	str	r2, [r3, #8]
     d56:	3a55      	subs	r2, #85	; 0x55
     d58:	609a      	str	r2, [r3, #8]
     d5a:	2480      	movs	r4, #128	; 0x80
     d5c:	f004 fc1a 	bl	5594 <SST25_Jedec_ID_Read>
     d60:	0364      	lsls	r4, r4, #13
     d62:	aa03      	add	r2, sp, #12
     d64:	2104      	movs	r1, #4
     d66:	0030      	movs	r0, r6
     d68:	f003 ff9e 	bl	4ca8 <SST25_Read>
     d6c:	9b03      	ldr	r3, [sp, #12]
     d6e:	3301      	adds	r3, #1
     d70:	d15a      	bne.n	e28 <main+0x3f8>
     d72:	2380      	movs	r3, #128	; 0x80
     d74:	015b      	lsls	r3, r3, #5
     d76:	18f6      	adds	r6, r6, r3
     d78:	42a6      	cmp	r6, r4
     d7a:	d1f2      	bne.n	d62 <main+0x332>
     d7c:	4829      	ldr	r0, [pc, #164]	; (e24 <main+0x3f4>)
     d7e:	f003 f995 	bl	40ac <PRINT_K>
     d82:	f004 fc2f 	bl	55e4 <write_default_settings>
     d86:	e052      	b.n	e2e <main+0x3fe>
     d88:	10000024 	.word	0x10000024
     d8c:	00ffffff 	.word	0x00ffffff
     d90:	e000e010 	.word	0xe000e010
     d94:	e000ed00 	.word	0xe000ed00
     d98:	40048094 	.word	0x40048094
     d9c:	4000c000 	.word	0x4000c000
     da0:	40064000 	.word	0x40064000
     da4:	ffff00ff 	.word	0xffff00ff
     da8:	ff00ffff 	.word	0xff00ffff
     dac:	40048004 	.word	0x40048004
     db0:	25efff7f 	.word	0x25efff7f
     db4:	100002c0 	.word	0x100002c0
     db8:	10000888 	.word	0x10000888
     dbc:	00fcda01 	.word	0x00fcda01
     dc0:	40048000 	.word	0x40048000
     dc4:	00b71b00 	.word	0x00b71b00
     dc8:	400480f0 	.word	0x400480f0
     dcc:	400480f4 	.word	0x400480f4
     dd0:	40068000 	.word	0x40068000
     dd4:	00fcda7c 	.word	0x00fcda7c
     dd8:	00010306 	.word	0x00010306
     ddc:	100005d0 	.word	0x100005d0
     de0:	10000224 	.word	0x10000224
     de4:	100005e4 	.word	0x100005e4
     de8:	e000e100 	.word	0xe000e100
     dec:	10000704 	.word	0x10000704
     df0:	100008f4 	.word	0x100008f4
     df4:	100008e0 	.word	0x100008e0
     df8:	100002c1 	.word	0x100002c1
     dfc:	10000af4 	.word	0x10000af4
     e00:	400480fc 	.word	0x400480fc
     e04:	a0004000 	.word	0xa0004000
     e08:	40058000 	.word	0x40058000
     e0c:	000186a0 	.word	0x000186a0
     e10:	10000508 	.word	0x10000508
     e14:	00000fa4 	.word	0x00000fa4
     e18:	1000072c 	.word	0x1000072c
     e1c:	000080bf 	.word	0x000080bf
     e20:	0000ffff 	.word	0x0000ffff
     e24:	00000ff8 	.word	0x00000ff8
     e28:	484a      	ldr	r0, [pc, #296]	; (f54 <main+0x524>)
     e2a:	f003 f93f 	bl	40ac <PRINT_K>
     e2e:	2282      	movs	r2, #130	; 0x82
     e30:	4c49      	ldr	r4, [pc, #292]	; (f58 <main+0x528>)
     e32:	00d2      	lsls	r2, r2, #3
     e34:	2100      	movs	r1, #0
     e36:	0020      	movs	r0, r4
     e38:	f005 f902 	bl	6040 <memset>
     e3c:	20eb      	movs	r0, #235	; 0xeb
     e3e:	0022      	movs	r2, r4
     e40:	2104      	movs	r1, #4
     e42:	0300      	lsls	r0, r0, #12
     e44:	f003 ff30 	bl	4ca8 <SST25_Read>
     e48:	4d44      	ldr	r5, [pc, #272]	; (f5c <main+0x52c>)
     e4a:	6823      	ldr	r3, [r4, #0]
     e4c:	42ab      	cmp	r3, r5
     e4e:	d901      	bls.n	e54 <main+0x424>
     e50:	2300      	movs	r3, #0
     e52:	6023      	str	r3, [r4, #0]
     e54:	6821      	ldr	r1, [r4, #0]
     e56:	4842      	ldr	r0, [pc, #264]	; (f60 <main+0x530>)
     e58:	f003 f97c 	bl	4154 <Print_Val>
     e5c:	20ec      	movs	r0, #236	; 0xec
     e5e:	4a41      	ldr	r2, [pc, #260]	; (f64 <main+0x534>)
     e60:	2104      	movs	r1, #4
     e62:	0300      	lsls	r0, r0, #12
     e64:	f003 ff20 	bl	4ca8 <SST25_Read>
     e68:	6863      	ldr	r3, [r4, #4]
     e6a:	42ab      	cmp	r3, r5
     e6c:	d902      	bls.n	e74 <main+0x444>
     e6e:	2380      	movs	r3, #128	; 0x80
     e70:	015b      	lsls	r3, r3, #5
     e72:	6063      	str	r3, [r4, #4]
     e74:	6861      	ldr	r1, [r4, #4]
     e76:	483c      	ldr	r0, [pc, #240]	; (f68 <main+0x538>)
     e78:	60a1      	str	r1, [r4, #8]
     e7a:	f003 f96b 	bl	4154 <Print_Val>
     e7e:	2008      	movs	r0, #8
     e80:	f003 fdb8 	bl	49f4 <SST25_WriteSR>
     e84:	4939      	ldr	r1, [pc, #228]	; (f6c <main+0x53c>)
     e86:	483a      	ldr	r0, [pc, #232]	; (f70 <main+0x540>)
     e88:	f003 f9aa 	bl	41e0 <Set_Timer>
     e8c:	f004 fd66 	bl	595c <Load_UserSettings>
     e90:	20ed      	movs	r0, #237	; 0xed
     e92:	4c38      	ldr	r4, [pc, #224]	; (f74 <main+0x544>)
     e94:	2104      	movs	r1, #4
     e96:	0022      	movs	r2, r4
     e98:	0300      	lsls	r0, r0, #12
     e9a:	f003 ff05 	bl	4ca8 <SST25_Read>
     e9e:	6823      	ldr	r3, [r4, #0]
     ea0:	3301      	adds	r3, #1
     ea2:	d101      	bne.n	ea8 <main+0x478>
     ea4:	2300      	movs	r3, #0
     ea6:	6023      	str	r3, [r4, #0]
     ea8:	4833      	ldr	r0, [pc, #204]	; (f78 <main+0x548>)
     eaa:	f003 f8ff 	bl	40ac <PRINT_K>
     eae:	6820      	ldr	r0, [r4, #0]
     eb0:	f003 f8e6 	bl	4080 <PRINT_INT>
     eb4:	4831      	ldr	r0, [pc, #196]	; (f7c <main+0x54c>)
     eb6:	f003 f8f9 	bl	40ac <PRINT_K>
     eba:	23a0      	movs	r3, #160	; 0xa0
     ebc:	061b      	lsls	r3, r3, #24
     ebe:	7c5a      	ldrb	r2, [r3, #17]
     ec0:	4b2f      	ldr	r3, [pc, #188]	; (f80 <main+0x550>)
     ec2:	2a00      	cmp	r2, #0
     ec4:	d101      	bne.n	eca <main+0x49a>
     ec6:	2201      	movs	r2, #1
     ec8:	e000      	b.n	ecc <main+0x49c>
     eca:	2200      	movs	r2, #0
     ecc:	705a      	strb	r2, [r3, #1]
     ece:	701a      	strb	r2, [r3, #0]
     ed0:	f003 fa24 	bl	431c <Get_IgnitionPinStatus>
     ed4:	492b      	ldr	r1, [pc, #172]	; (f84 <main+0x554>)
     ed6:	4b2c      	ldr	r3, [pc, #176]	; (f88 <main+0x558>)
     ed8:	2800      	cmp	r0, #0
     eda:	d005      	beq.n	ee8 <main+0x4b8>
     edc:	2201      	movs	r2, #1
     ede:	700a      	strb	r2, [r1, #0]
     ee0:	709a      	strb	r2, [r3, #2]
     ee2:	701a      	strb	r2, [r3, #0]
     ee4:	705a      	strb	r2, [r3, #1]
     ee6:	e003      	b.n	ef0 <main+0x4c0>
     ee8:	7008      	strb	r0, [r1, #0]
     eea:	7098      	strb	r0, [r3, #2]
     eec:	7018      	strb	r0, [r3, #0]
     eee:	7058      	strb	r0, [r3, #1]
     ef0:	23a0      	movs	r3, #160	; 0xa0
     ef2:	061b      	lsls	r3, r3, #24
     ef4:	7d9b      	ldrb	r3, [r3, #22]
     ef6:	4a25      	ldr	r2, [pc, #148]	; (f8c <main+0x55c>)
     ef8:	b2db      	uxtb	r3, r3
     efa:	4825      	ldr	r0, [pc, #148]	; (f90 <main+0x560>)
     efc:	4925      	ldr	r1, [pc, #148]	; (f94 <main+0x564>)
     efe:	2b00      	cmp	r3, #0
     f00:	d000      	beq.n	f04 <main+0x4d4>
     f02:	2301      	movs	r3, #1
     f04:	7003      	strb	r3, [r0, #0]
     f06:	7053      	strb	r3, [r2, #1]
     f08:	7013      	strb	r3, [r2, #0]
     f0a:	700b      	strb	r3, [r1, #0]
     f0c:	f003 fa40 	bl	4390 <Init_IdleInfo>
     f10:	a803      	add	r0, sp, #12
     f12:	f004 fc45 	bl	57a0 <Get_UserSettings>
     f16:	f003 fa01 	bl	431c <Get_IgnitionPinStatus>
     f1a:	4b1f      	ldr	r3, [pc, #124]	; (f98 <main+0x568>)
     f1c:	2800      	cmp	r0, #0
     f1e:	d002      	beq.n	f26 <main+0x4f6>
     f20:	2201      	movs	r2, #1
     f22:	771a      	strb	r2, [r3, #28]
     f24:	e000      	b.n	f28 <main+0x4f8>
     f26:	7718      	strb	r0, [r3, #28]
     f28:	2564      	movs	r5, #100	; 0x64
     f2a:	2400      	movs	r4, #0
     f2c:	993e      	ldr	r1, [sp, #248]	; 0xf8
     f2e:	0018      	movs	r0, r3
     f30:	4369      	muls	r1, r5
     f32:	619c      	str	r4, [r3, #24]
     f34:	f003 f954 	bl	41e0 <Set_Timer>
     f38:	4b18      	ldr	r3, [pc, #96]	; (f9c <main+0x56c>)
     f3a:	0029      	movs	r1, r5
     f3c:	4818      	ldr	r0, [pc, #96]	; (fa0 <main+0x570>)
     f3e:	771c      	strb	r4, [r3, #28]
     f40:	619c      	str	r4, [r3, #24]
     f42:	f003 f94d 	bl	41e0 <Set_Timer>
     f46:	f004 f9cd 	bl	52e4 <Trio_Init_GPS_UART>
     f4a:	f000 f879 	bl	1040 <ExecuteMainLoop>
     f4e:	f003 f91d 	bl	418c <NVIC_SystemReset.lto_priv.68.lto_priv.74>
     f52:	46c0      	nop			; (mov r8, r8)
     f54:	00001005 	.word	0x00001005
     f58:	10000c44 	.word	0x10000c44
     f5c:	000e0fff 	.word	0x000e0fff
     f60:	00001016 	.word	0x00001016
     f64:	10000c48 	.word	0x10000c48
     f68:	00001029 	.word	0x00001029
     f6c:	00057e40 	.word	0x00057e40
     f70:	100008c0 	.word	0x100008c0
     f74:	100004fc 	.word	0x100004fc
     f78:	0000103b 	.word	0x0000103b
     f7c:	00004dec 	.word	0x00004dec
     f80:	10000708 	.word	0x10000708
     f84:	10000728 	.word	0x10000728
     f88:	10000718 	.word	0x10000718
     f8c:	10000878 	.word	0x10000878
     f90:	10000875 	.word	0x10000875
     f94:	10000874 	.word	0x10000874
     f98:	10000854 	.word	0x10000854
     f9c:	10000834 	.word	0x10000834
     fa0:	10000840 	.word	0x10000840

00000fa4 <spiFlashCallbacks>:
     fa4:	000054b5 000054bb 000054b9 000054b7     .T...T...T...T..
     fb4:	000054a9                                .T..

00000fb8 <wdtOSCRate>:
     fb8:	00000000 000927c0 00100590 00155cc0     .....'.......\..
     fc8:	001ab3f0 00200b20 00249f00 002932e0     .... . ...$..2).
     fd8:	002dc6c0 00319750 003567e0 00393870     ..-.P.1..g5.p89.
     fe8:	003d0900 00401640 00432380 004630c0     ..=.@.@..#C..0F.
     ff8:	73616c46 6d652068 0a797470 616c4600     Flash empty..Fla
    1008:	6e206873 6520746f 7974706d 4c0a000a     sh not empty...L
    1018:	5720676f 65746972 64644120 78302072     og Write Addr 0x
    1028:	6f4c0a00 65522067 41206461 20726464     ..Log Read Addr 
    1038:	4b007830 00203a6d                       0x.Km: .

00001040 <ExecuteMainLoop>:
    1040:	b5f0      	push	{r4, r5, r6, r7, lr}
    1042:	4cd9      	ldr	r4, [pc, #868]	; (13a8 <ExecuteMainLoop+0x368>)
    1044:	48d9      	ldr	r0, [pc, #868]	; (13ac <ExecuteMainLoop+0x36c>)
    1046:	44a5      	add	sp, r4
    1048:	f003 f830 	bl	40ac <PRINT_K>
    104c:	23a0      	movs	r3, #160	; 0xa0
    104e:	2201      	movs	r2, #1
    1050:	4cd7      	ldr	r4, [pc, #860]	; (13b0 <ExecuteMainLoop+0x370>)
    1052:	061b      	lsls	r3, r3, #24
    1054:	729a      	strb	r2, [r3, #10]
    1056:	0021      	movs	r1, r4
    1058:	200a      	movs	r0, #10
    105a:	f001 fe37 	bl	2ccc <Delay>
    105e:	f001 fe45 	bl	2cec <GSM_HardReset>
    1062:	49d4      	ldr	r1, [pc, #848]	; (13b4 <ExecuteMainLoop+0x374>)
    1064:	48d4      	ldr	r0, [pc, #848]	; (13b8 <ExecuteMainLoop+0x378>)
    1066:	f003 f8bb 	bl	41e0 <Set_Timer>
    106a:	48d4      	ldr	r0, [pc, #848]	; (13bc <ExecuteMainLoop+0x37c>)
    106c:	f003 f81e 	bl	40ac <PRINT_K>
    1070:	48d3      	ldr	r0, [pc, #844]	; (13c0 <ExecuteMainLoop+0x380>)
    1072:	f003 f81b 	bl	40ac <PRINT_K>
    1076:	9401      	str	r4, [sp, #4]
    1078:	4ccf      	ldr	r4, [pc, #828]	; (13b8 <ExecuteMainLoop+0x378>)
    107a:	0020      	movs	r0, r4
    107c:	f003 f892 	bl	41a4 <mn_timer_expired>
    1080:	0025      	movs	r5, r4
    1082:	2800      	cmp	r0, #0
    1084:	d001      	beq.n	108a <ExecuteMainLoop+0x4a>
    1086:	f000 ff6f 	bl	1f68 <ExecuteMainLoop+0xf28>
    108a:	4ece      	ldr	r6, [pc, #824]	; (13c4 <ExecuteMainLoop+0x384>)
    108c:	49ce      	ldr	r1, [pc, #824]	; (13c8 <ExecuteMainLoop+0x388>)
    108e:	6837      	ldr	r7, [r6, #0]
    1090:	1c38      	adds	r0, r7, #0
    1092:	f006 fc9b 	bl	79cc <__aeabi_fcmpge>
    1096:	2800      	cmp	r0, #0
    1098:	d01d      	beq.n	10d6 <ExecuteMainLoop+0x96>
    109a:	49cb      	ldr	r1, [pc, #812]	; (13c8 <ExecuteMainLoop+0x388>)
    109c:	1c38      	adds	r0, r7, #0
    109e:	f006 fb35 	bl	770c <__aeabi_fsub>
    10a2:	6030      	str	r0, [r6, #0]
    10a4:	a856      	add	r0, sp, #344	; 0x158
    10a6:	f004 f8dd 	bl	5264 <Get_PositionInfo>
    10aa:	985a      	ldr	r0, [sp, #360]	; 0x168
    10ac:	995b      	ldr	r1, [sp, #364]	; 0x16c
    10ae:	2200      	movs	r2, #0
    10b0:	4bc6      	ldr	r3, [pc, #792]	; (13cc <ExecuteMainLoop+0x38c>)
    10b2:	f005 ff19 	bl	6ee8 <__aeabi_ddiv>
    10b6:	4bc6      	ldr	r3, [pc, #792]	; (13d0 <ExecuteMainLoop+0x390>)
    10b8:	0006      	movs	r6, r0
    10ba:	6818      	ldr	r0, [r3, #0]
    10bc:	000f      	movs	r7, r1
    10be:	f006 f9dd 	bl	747c <__aeabi_ui2d>
    10c2:	0002      	movs	r2, r0
    10c4:	000b      	movs	r3, r1
    10c6:	0030      	movs	r0, r6
    10c8:	0039      	movs	r1, r7
    10ca:	f006 f897 	bl	71fc <__aeabi_dadd>
    10ce:	f006 f981 	bl	73d4 <__aeabi_d2uiz>
    10d2:	f004 fb49 	bl	5768 <UpdateKmCounter>
    10d6:	f001 f901 	bl	22dc <onIdle>
    10da:	2380      	movs	r3, #128	; 0x80
    10dc:	22aa      	movs	r2, #170	; 0xaa
    10de:	05db      	lsls	r3, r3, #23
    10e0:	7b20      	ldrb	r0, [r4, #12]
    10e2:	609a      	str	r2, [r3, #8]
    10e4:	3a55      	subs	r2, #85	; 0x55
    10e6:	609a      	str	r2, [r3, #8]
    10e8:	2806      	cmp	r0, #6
    10ea:	d8c5      	bhi.n	1078 <ExecuteMainLoop+0x38>
    10ec:	f006 fc94 	bl	7a18 <__gnu_thumb1_case_uhi>
    10f0:	00440007 	.word	0x00440007
    10f4:	026601d6 	.word	0x026601d6
    10f8:	05f0035e 	.word	0x05f0035e
    10fc:	01a6      	.short	0x01a6
    10fe:	4bb5      	ldr	r3, [pc, #724]	; (13d4 <ExecuteMainLoop+0x394>)
    1100:	4ab5      	ldr	r2, [pc, #724]	; (13d8 <ExecuteMainLoop+0x398>)
    1102:	4ead      	ldr	r6, [pc, #692]	; (13b8 <ExecuteMainLoop+0x378>)
    1104:	601a      	str	r2, [r3, #0]
    1106:	2280      	movs	r2, #128	; 0x80
    1108:	2400      	movs	r4, #0
    110a:	0092      	lsls	r2, r2, #2
    110c:	2501      	movs	r5, #1
    110e:	605a      	str	r2, [r3, #4]
    1110:	0032      	movs	r2, r6
    1112:	609d      	str	r5, [r3, #8]
    1114:	611c      	str	r4, [r3, #16]
    1116:	60dc      	str	r4, [r3, #12]
    1118:	4bb0      	ldr	r3, [pc, #704]	; (13dc <ExecuteMainLoop+0x39c>)
    111a:	320d      	adds	r2, #13
    111c:	601a      	str	r2, [r3, #0]
    111e:	2280      	movs	r2, #128	; 0x80
    1120:	49af      	ldr	r1, [pc, #700]	; (13e0 <ExecuteMainLoop+0x3a0>)
    1122:	0052      	lsls	r2, r2, #1
    1124:	48af      	ldr	r0, [pc, #700]	; (13e4 <ExecuteMainLoop+0x3a4>)
    1126:	605a      	str	r2, [r3, #4]
    1128:	609d      	str	r5, [r3, #8]
    112a:	611c      	str	r4, [r3, #16]
    112c:	60dc      	str	r4, [r3, #12]
    112e:	f004 ff0f 	bl	5f50 <Send_ATCommand>
    1132:	22fa      	movs	r2, #250	; 0xfa
    1134:	9b01      	ldr	r3, [sp, #4]
    1136:	0052      	lsls	r2, r2, #1
    1138:	2120      	movs	r1, #32
    113a:	a856      	add	r0, sp, #344	; 0x158
    113c:	f004 ff36 	bl	5fac <ProcessATResponse>
    1140:	49a9      	ldr	r1, [pc, #676]	; (13e8 <ExecuteMainLoop+0x3a8>)
    1142:	a856      	add	r0, sp, #344	; 0x158
    1144:	f005 fbb0 	bl	68a8 <strstr>
    1148:	4ba8      	ldr	r3, [pc, #672]	; (13ec <ExecuteMainLoop+0x3ac>)
    114a:	42a0      	cmp	r0, r4
    114c:	d003      	beq.n	1156 <ExecuteMainLoop+0x116>
    114e:	735c      	strb	r4, [r3, #13]
    1150:	739c      	strb	r4, [r3, #14]
    1152:	7335      	strb	r5, [r6, #12]
    1154:	e790      	b.n	1078 <ExecuteMainLoop+0x38>
    1156:	7b9a      	ldrb	r2, [r3, #14]
    1158:	3201      	adds	r2, #1
    115a:	b2d2      	uxtb	r2, r2
    115c:	739a      	strb	r2, [r3, #14]
    115e:	2a05      	cmp	r2, #5
    1160:	d101      	bne.n	1166 <ExecuteMainLoop+0x126>
    1162:	f000 fd64 	bl	1c2e <ExecuteMainLoop+0xbee>
    1166:	7b5a      	ldrb	r2, [r3, #13]
    1168:	1c51      	adds	r1, r2, #1
    116a:	7359      	strb	r1, [r3, #13]
    116c:	2a05      	cmp	r2, #5
    116e:	d183      	bne.n	1078 <ExecuteMainLoop+0x38>
    1170:	7358      	strb	r0, [r3, #13]
    1172:	f001 fdbb 	bl	2cec <GSM_HardReset>
    1176:	e77f      	b.n	1078 <ExecuteMainLoop+0x38>
    1178:	21fa      	movs	r1, #250	; 0xfa
    117a:	2200      	movs	r2, #0
    117c:	4b9c      	ldr	r3, [pc, #624]	; (13f0 <ExecuteMainLoop+0x3b0>)
    117e:	0089      	lsls	r1, r1, #2
    1180:	3331      	adds	r3, #49	; 0x31
    1182:	a816      	add	r0, sp, #88	; 0x58
    1184:	701a      	strb	r2, [r3, #0]
    1186:	f003 f82b 	bl	41e0 <Set_Timer>
    118a:	a816      	add	r0, sp, #88	; 0x58
    118c:	f003 f80a 	bl	41a4 <mn_timer_expired>
    1190:	4d94      	ldr	r5, [pc, #592]	; (13e4 <ExecuteMainLoop+0x3a4>)
    1192:	2800      	cmp	r0, #0
    1194:	d012      	beq.n	11bc <ExecuteMainLoop+0x17c>
    1196:	0028      	movs	r0, r5
    1198:	4996      	ldr	r1, [pc, #600]	; (13f4 <ExecuteMainLoop+0x3b4>)
    119a:	300d      	adds	r0, #13
    119c:	f004 fed8 	bl	5f50 <Send_ATCommand>
    11a0:	21c0      	movs	r1, #192	; 0xc0
    11a2:	9b01      	ldr	r3, [sp, #4]
    11a4:	22c8      	movs	r2, #200	; 0xc8
    11a6:	a856      	add	r0, sp, #344	; 0x158
    11a8:	f004 ff00 	bl	5fac <ProcessATResponse>
    11ac:	4f8e      	ldr	r7, [pc, #568]	; (13e8 <ExecuteMainLoop+0x3a8>)
    11ae:	a856      	add	r0, sp, #344	; 0x158
    11b0:	0039      	movs	r1, r7
    11b2:	f005 fb79 	bl	68a8 <strstr>
    11b6:	2800      	cmp	r0, #0
    11b8:	d113      	bne.n	11e2 <ExecuteMainLoop+0x1a2>
    11ba:	e157      	b.n	146c <ExecuteMainLoop+0x42c>
    11bc:	0028      	movs	r0, r5
    11be:	498e      	ldr	r1, [pc, #568]	; (13f8 <ExecuteMainLoop+0x3b8>)
    11c0:	3068      	adds	r0, #104	; 0x68
    11c2:	f004 fec5 	bl	5f50 <Send_ATCommand>
    11c6:	2180      	movs	r1, #128	; 0x80
    11c8:	9b01      	ldr	r3, [sp, #4]
    11ca:	0049      	lsls	r1, r1, #1
    11cc:	2264      	movs	r2, #100	; 0x64
    11ce:	a856      	add	r0, sp, #344	; 0x158
    11d0:	f004 feec 	bl	5fac <ProcessATResponse>
    11d4:	4984      	ldr	r1, [pc, #528]	; (13e8 <ExecuteMainLoop+0x3a8>)
    11d6:	a856      	add	r0, sp, #344	; 0x158
    11d8:	f005 fb66 	bl	68a8 <strstr>
    11dc:	2800      	cmp	r0, #0
    11de:	d1da      	bne.n	1196 <ExecuteMainLoop+0x156>
    11e0:	e144      	b.n	146c <ExecuteMainLoop+0x42c>
    11e2:	0028      	movs	r0, r5
    11e4:	4e85      	ldr	r6, [pc, #532]	; (13fc <ExecuteMainLoop+0x3bc>)
    11e6:	306c      	adds	r0, #108	; 0x6c
    11e8:	0031      	movs	r1, r6
    11ea:	f004 feb1 	bl	5f50 <Send_ATCommand>
    11ee:	9b01      	ldr	r3, [sp, #4]
    11f0:	2264      	movs	r2, #100	; 0x64
    11f2:	2180      	movs	r1, #128	; 0x80
    11f4:	a856      	add	r0, sp, #344	; 0x158
    11f6:	f004 fed9 	bl	5fac <ProcessATResponse>
    11fa:	0039      	movs	r1, r7
    11fc:	a856      	add	r0, sp, #344	; 0x158
    11fe:	f005 fb53 	bl	68a8 <strstr>
    1202:	9602      	str	r6, [sp, #8]
    1204:	2800      	cmp	r0, #0
    1206:	d100      	bne.n	120a <ExecuteMainLoop+0x1ca>
    1208:	e130      	b.n	146c <ExecuteMainLoop+0x42c>
    120a:	2220      	movs	r2, #32
    120c:	4b7c      	ldr	r3, [pc, #496]	; (1400 <ExecuteMainLoop+0x3c0>)
    120e:	a956      	add	r1, sp, #344	; 0x158
    1210:	780e      	ldrb	r6, [r1, #0]
    1212:	2e00      	cmp	r6, #0
    1214:	d00f      	beq.n	1236 <ExecuteMainLoop+0x1f6>
    1216:	199e      	adds	r6, r3, r6
    1218:	3680      	adds	r6, #128	; 0x80
    121a:	7830      	ldrb	r0, [r6, #0]
    121c:	4210      	tst	r0, r2
    121e:	d008      	beq.n	1232 <ExecuteMainLoop+0x1f2>
    1220:	220f      	movs	r2, #15
    1222:	4878      	ldr	r0, [pc, #480]	; (1404 <ExecuteMainLoop+0x3c4>)
    1224:	f004 ff08 	bl	6038 <memcpy>
    1228:	2200      	movs	r2, #0
    122a:	4b71      	ldr	r3, [pc, #452]	; (13f0 <ExecuteMainLoop+0x3b0>)
    122c:	2601      	movs	r6, #1
    122e:	775a      	strb	r2, [r3, #29]
    1230:	e001      	b.n	1236 <ExecuteMainLoop+0x1f6>
    1232:	3101      	adds	r1, #1
    1234:	e7ec      	b.n	1210 <ExecuteMainLoop+0x1d0>
    1236:	4874      	ldr	r0, [pc, #464]	; (1408 <ExecuteMainLoop+0x3c8>)
    1238:	f002 ff38 	bl	40ac <PRINT_K>
    123c:	4871      	ldr	r0, [pc, #452]	; (1404 <ExecuteMainLoop+0x3c4>)
    123e:	f002 ff35 	bl	40ac <PRINT_K>
    1242:	4872      	ldr	r0, [pc, #456]	; (140c <ExecuteMainLoop+0x3cc>)
    1244:	f002 ff32 	bl	40ac <PRINT_K>
    1248:	2e00      	cmp	r6, #0
    124a:	d100      	bne.n	124e <ExecuteMainLoop+0x20e>
    124c:	e10e      	b.n	146c <ExecuteMainLoop+0x42c>
    124e:	21fa      	movs	r1, #250	; 0xfa
    1250:	a816      	add	r0, sp, #88	; 0x58
    1252:	0089      	lsls	r1, r1, #2
    1254:	f002 ffc4 	bl	41e0 <Set_Timer>
    1258:	2601      	movs	r6, #1
    125a:	a816      	add	r0, sp, #88	; 0x58
    125c:	f002 ffa2 	bl	41a4 <mn_timer_expired>
    1260:	1e07      	subs	r7, r0, #0
    1262:	d144      	bne.n	12ee <ExecuteMainLoop+0x2ae>
    1264:	0028      	movs	r0, r5
    1266:	496a      	ldr	r1, [pc, #424]	; (1410 <ExecuteMainLoop+0x3d0>)
    1268:	3075      	adds	r0, #117	; 0x75
    126a:	f004 fe71 	bl	5f50 <Send_ATCommand>
    126e:	9b01      	ldr	r3, [sp, #4]
    1270:	2264      	movs	r2, #100	; 0x64
    1272:	2140      	movs	r1, #64	; 0x40
    1274:	a856      	add	r0, sp, #344	; 0x158
    1276:	f004 fe99 	bl	5fac <ProcessATResponse>
    127a:	0029      	movs	r1, r5
    127c:	a856      	add	r0, sp, #344	; 0x158
    127e:	317f      	adds	r1, #127	; 0x7f
    1280:	f005 fb12 	bl	68a8 <strstr>
    1284:	003e      	movs	r6, r7
    1286:	2800      	cmp	r0, #0
    1288:	d0e7      	beq.n	125a <ExecuteMainLoop+0x21a>
    128a:	4e62      	ldr	r6, [pc, #392]	; (1414 <ExecuteMainLoop+0x3d4>)
    128c:	9902      	ldr	r1, [sp, #8]
    128e:	1d70      	adds	r0, r6, #5
    1290:	f004 fe5e 	bl	5f50 <Send_ATCommand>
    1294:	2140      	movs	r1, #64	; 0x40
    1296:	9b01      	ldr	r3, [sp, #4]
    1298:	2264      	movs	r2, #100	; 0x64
    129a:	a856      	add	r0, sp, #344	; 0x158
    129c:	f004 fe86 	bl	5fac <ProcessATResponse>
    12a0:	4951      	ldr	r1, [pc, #324]	; (13e8 <ExecuteMainLoop+0x3a8>)
    12a2:	a856      	add	r0, sp, #344	; 0x158
    12a4:	f005 fb00 	bl	68a8 <strstr>
    12a8:	2800      	cmp	r0, #0
    12aa:	d100      	bne.n	12ae <ExecuteMainLoop+0x26e>
    12ac:	e0de      	b.n	146c <ExecuteMainLoop+0x42c>
    12ae:	21a1      	movs	r1, #161	; 0xa1
    12b0:	4f59      	ldr	r7, [pc, #356]	; (1418 <ExecuteMainLoop+0x3d8>)
    12b2:	ab06      	add	r3, sp, #24
    12b4:	0049      	lsls	r1, r1, #1
    12b6:	18c9      	adds	r1, r1, r3
    12b8:	220f      	movs	r2, #15
    12ba:	0038      	movs	r0, r7
    12bc:	f004 febc 	bl	6038 <memcpy>
    12c0:	4b4b      	ldr	r3, [pc, #300]	; (13f0 <ExecuteMainLoop+0x3b0>)
    12c2:	2100      	movs	r1, #0
    12c4:	001a      	movs	r2, r3
    12c6:	2501      	movs	r5, #1
    12c8:	322d      	adds	r2, #45	; 0x2d
    12ca:	3331      	adds	r3, #49	; 0x31
    12cc:	4853      	ldr	r0, [pc, #332]	; (141c <ExecuteMainLoop+0x3dc>)
    12ce:	7011      	strb	r1, [r2, #0]
    12d0:	701d      	strb	r5, [r3, #0]
    12d2:	f002 feeb 	bl	40ac <PRINT_K>
    12d6:	0038      	movs	r0, r7
    12d8:	f002 fee8 	bl	40ac <PRINT_K>
    12dc:	484b      	ldr	r0, [pc, #300]	; (140c <ExecuteMainLoop+0x3cc>)
    12de:	f002 fee5 	bl	40ac <PRINT_K>
    12e2:	21fa      	movs	r1, #250	; 0xfa
    12e4:	a816      	add	r0, sp, #88	; 0x58
    12e6:	0089      	lsls	r1, r1, #2
    12e8:	f002 ff7a 	bl	41e0 <Set_Timer>
    12ec:	e015      	b.n	131a <ExecuteMainLoop+0x2da>
    12ee:	2e00      	cmp	r6, #0
    12f0:	d100      	bne.n	12f4 <ExecuteMainLoop+0x2b4>
    12f2:	e0bb      	b.n	146c <ExecuteMainLoop+0x42c>
    12f4:	e7c9      	b.n	128a <ExecuteMainLoop+0x24a>
    12f6:	4847      	ldr	r0, [pc, #284]	; (1414 <ExecuteMainLoop+0x3d4>)
    12f8:	9902      	ldr	r1, [sp, #8]
    12fa:	300e      	adds	r0, #14
    12fc:	f004 fe28 	bl	5f50 <Send_ATCommand>
    1300:	9b01      	ldr	r3, [sp, #4]
    1302:	2264      	movs	r2, #100	; 0x64
    1304:	2140      	movs	r1, #64	; 0x40
    1306:	a856      	add	r0, sp, #344	; 0x158
    1308:	f004 fe50 	bl	5fac <ProcessATResponse>
    130c:	4936      	ldr	r1, [pc, #216]	; (13e8 <ExecuteMainLoop+0x3a8>)
    130e:	a856      	add	r0, sp, #344	; 0x158
    1310:	f005 faca 	bl	68a8 <strstr>
    1314:	003d      	movs	r5, r7
    1316:	2800      	cmp	r0, #0
    1318:	d107      	bne.n	132a <ExecuteMainLoop+0x2ea>
    131a:	a816      	add	r0, sp, #88	; 0x58
    131c:	f002 ff42 	bl	41a4 <mn_timer_expired>
    1320:	1e07      	subs	r7, r0, #0
    1322:	d0e8      	beq.n	12f6 <ExecuteMainLoop+0x2b6>
    1324:	2d00      	cmp	r5, #0
    1326:	d100      	bne.n	132a <ExecuteMainLoop+0x2ea>
    1328:	e0a0      	b.n	146c <ExecuteMainLoop+0x42c>
    132a:	493d      	ldr	r1, [pc, #244]	; (1420 <ExecuteMainLoop+0x3e0>)
    132c:	a816      	add	r0, sp, #88	; 0x58
    132e:	f002 ff57 	bl	41e0 <Set_Timer>
    1332:	e013      	b.n	135c <ExecuteMainLoop+0x31c>
    1334:	0030      	movs	r0, r6
    1336:	493b      	ldr	r1, [pc, #236]	; (1424 <ExecuteMainLoop+0x3e4>)
    1338:	3021      	adds	r0, #33	; 0x21
    133a:	f004 fe09 	bl	5f50 <Send_ATCommand>
    133e:	9b01      	ldr	r3, [sp, #4]
    1340:	2264      	movs	r2, #100	; 0x64
    1342:	2140      	movs	r1, #64	; 0x40
    1344:	a856      	add	r0, sp, #344	; 0x158
    1346:	f004 fe31 	bl	5fac <ProcessATResponse>
    134a:	a856      	add	r0, sp, #344	; 0x158
    134c:	f001 fb92 	bl	2a74 <Get_GsmRegistrationStatus>
    1350:	4d27      	ldr	r5, [pc, #156]	; (13f0 <ExecuteMainLoop+0x3b0>)
    1352:	002b      	movs	r3, r5
    1354:	332e      	adds	r3, #46	; 0x2e
    1356:	781b      	ldrb	r3, [r3, #0]
    1358:	2b00      	cmp	r3, #0
    135a:	d105      	bne.n	1368 <ExecuteMainLoop+0x328>
    135c:	a816      	add	r0, sp, #88	; 0x58
    135e:	f002 ff21 	bl	41a4 <mn_timer_expired>
    1362:	1e07      	subs	r7, r0, #0
    1364:	d0e6      	beq.n	1334 <ExecuteMainLoop+0x2f4>
    1366:	e081      	b.n	146c <ExecuteMainLoop+0x42c>
    1368:	482f      	ldr	r0, [pc, #188]	; (1428 <ExecuteMainLoop+0x3e8>)
    136a:	f002 fe9f 	bl	40ac <PRINT_K>
    136e:	4b1f      	ldr	r3, [pc, #124]	; (13ec <ExecuteMainLoop+0x3ac>)
    1370:	352f      	adds	r5, #47	; 0x2f
    1372:	735f      	strb	r7, [r3, #13]
    1374:	f001 fcd4 	bl	2d20 <CheckModemStatus>
    1378:	782b      	ldrb	r3, [r5, #0]
    137a:	2b00      	cmp	r3, #0
    137c:	d074      	beq.n	1468 <ExecuteMainLoop+0x428>
    137e:	4b2b      	ldr	r3, [pc, #172]	; (142c <ExecuteMainLoop+0x3ec>)
    1380:	33d4      	adds	r3, #212	; 0xd4
    1382:	781b      	ldrb	r3, [r3, #0]
    1384:	2b00      	cmp	r3, #0
    1386:	d003      	beq.n	1390 <ExecuteMainLoop+0x350>
    1388:	4829      	ldr	r0, [pc, #164]	; (1430 <ExecuteMainLoop+0x3f0>)
    138a:	f002 fe8f 	bl	40ac <PRINT_K>
    138e:	e06b      	b.n	1468 <ExecuteMainLoop+0x428>
    1390:	4828      	ldr	r0, [pc, #160]	; (1434 <ExecuteMainLoop+0x3f4>)
    1392:	f002 fe8b 	bl	40ac <PRINT_K>
    1396:	2196      	movs	r1, #150	; 0x96
    1398:	4827      	ldr	r0, [pc, #156]	; (1438 <ExecuteMainLoop+0x3f8>)
    139a:	0049      	lsls	r1, r1, #1
    139c:	f002 ff20 	bl	41e0 <Set_Timer>
    13a0:	2306      	movs	r3, #6
    13a2:	7323      	strb	r3, [r4, #12]
    13a4:	e668      	b.n	1078 <ExecuteMainLoop+0x38>
    13a6:	46c0      	nop			; (mov r8, r8)
    13a8:	fffffd9c 	.word	0xfffffd9c
    13ac:	00002091 	.word	0x00002091
    13b0:	000022dd 	.word	0x000022dd
    13b4:	000afc80 	.word	0x000afc80
    13b8:	100002b4 	.word	0x100002b4
    13bc:	000020a3 	.word	0x000020a3
    13c0:	00004dec 	.word	0x00004dec
    13c4:	10000c40 	.word	0x10000c40
    13c8:	466a6000 	.word	0x466a6000
    13cc:	408f4000 	.word	0x408f4000
    13d0:	100004fc 	.word	0x100004fc
    13d4:	100008e0 	.word	0x100008e0
    13d8:	100008f4 	.word	0x100008f4
    13dc:	10000af4 	.word	0x10000af4
    13e0:	000020b8 	.word	0x000020b8
    13e4:	00001f90 	.word	0x00001f90
    13e8:	00004337 	.word	0x00004337
    13ec:	100003b4 	.word	0x100003b4
    13f0:	10000888 	.word	0x10000888
    13f4:	000020cc 	.word	0x000020cc
    13f8:	000020da 	.word	0x000020da
    13fc:	00004dee 	.word	0x00004dee
    1400:	000061c0 	.word	0x000061c0
    1404:	10000896 	.word	0x10000896
    1408:	000020e8 	.word	0x000020e8
    140c:	00004ded 	.word	0x00004ded
    1410:	000020f0 	.word	0x000020f0
    1414:	00002010 	.word	0x00002010
    1418:	100008a6 	.word	0x100008a6
    141c:	000020fb 	.word	0x000020fb
    1420:	00002ee0 	.word	0x00002ee0
    1424:	00002103 	.word	0x00002103
    1428:	00002121 	.word	0x00002121
    142c:	10000738 	.word	0x10000738
    1430:	0000212d 	.word	0x0000212d
    1434:	0000213e 	.word	0x0000213e
    1438:	100004e8 	.word	0x100004e8
    143c:	4dbe      	ldr	r5, [pc, #760]	; (1738 <ExecuteMainLoop+0x6f8>)
    143e:	0028      	movs	r0, r5
    1440:	f002 feb0 	bl	41a4 <mn_timer_expired>
    1444:	2800      	cmp	r0, #0
    1446:	d100      	bne.n	144a <ExecuteMainLoop+0x40a>
    1448:	e616      	b.n	1078 <ExecuteMainLoop+0x38>
    144a:	48bc      	ldr	r0, [pc, #752]	; (173c <ExecuteMainLoop+0x6fc>)
    144c:	f002 fe2e 	bl	40ac <PRINT_K>
    1450:	f001 fc66 	bl	2d20 <CheckModemStatus>
    1454:	4bba      	ldr	r3, [pc, #744]	; (1740 <ExecuteMainLoop+0x700>)
    1456:	001a      	movs	r2, r3
    1458:	322f      	adds	r2, #47	; 0x2f
    145a:	7812      	ldrb	r2, [r2, #0]
    145c:	2a00      	cmp	r2, #0
    145e:	d112      	bne.n	1486 <ExecuteMainLoop+0x446>
    1460:	332e      	adds	r3, #46	; 0x2e
    1462:	781b      	ldrb	r3, [r3, #0]
    1464:	2b00      	cmp	r3, #0
    1466:	d09c      	beq.n	13a2 <ExecuteMainLoop+0x362>
    1468:	2302      	movs	r3, #2
    146a:	e79a      	b.n	13a2 <ExecuteMainLoop+0x362>
    146c:	4ab5      	ldr	r2, [pc, #724]	; (1744 <ExecuteMainLoop+0x704>)
    146e:	7b53      	ldrb	r3, [r2, #13]
    1470:	1c59      	adds	r1, r3, #1
    1472:	7351      	strb	r1, [r2, #13]
    1474:	2b19      	cmp	r3, #25
    1476:	d000      	beq.n	147a <ExecuteMainLoop+0x43a>
    1478:	e5fe      	b.n	1078 <ExecuteMainLoop+0x38>
    147a:	2300      	movs	r3, #0
    147c:	4ab1      	ldr	r2, [pc, #708]	; (1744 <ExecuteMainLoop+0x704>)
    147e:	7353      	strb	r3, [r2, #13]
    1480:	4ab1      	ldr	r2, [pc, #708]	; (1748 <ExecuteMainLoop+0x708>)
    1482:	7313      	strb	r3, [r2, #12]
    1484:	e5f8      	b.n	1078 <ExecuteMainLoop+0x38>
    1486:	4bb1      	ldr	r3, [pc, #708]	; (174c <ExecuteMainLoop+0x70c>)
    1488:	33d4      	adds	r3, #212	; 0xd4
    148a:	781b      	ldrb	r3, [r3, #0]
    148c:	2b00      	cmp	r3, #0
    148e:	d1eb      	bne.n	1468 <ExecuteMainLoop+0x428>
    1490:	2196      	movs	r1, #150	; 0x96
    1492:	0028      	movs	r0, r5
    1494:	0049      	lsls	r1, r1, #1
    1496:	f002 fea3 	bl	41e0 <Set_Timer>
    149a:	e5ed      	b.n	1078 <ExecuteMainLoop+0x38>
    149c:	a816      	add	r0, sp, #88	; 0x58
    149e:	f004 f97f 	bl	57a0 <Get_UserSettings>
    14a2:	2280      	movs	r2, #128	; 0x80
    14a4:	2100      	movs	r1, #0
    14a6:	0052      	lsls	r2, r2, #1
    14a8:	a856      	add	r0, sp, #344	; 0x158
    14aa:	f004 fdc9 	bl	6040 <memset>
    14ae:	49a8      	ldr	r1, [pc, #672]	; (1750 <ExecuteMainLoop+0x710>)
    14b0:	a856      	add	r0, sp, #344	; 0x158
    14b2:	312b      	adds	r1, #43	; 0x2b
    14b4:	f005 f946 	bl	6744 <strcat>
    14b8:	a916      	add	r1, sp, #88	; 0x58
    14ba:	a856      	add	r0, sp, #344	; 0x158
    14bc:	f005 f942 	bl	6744 <strcat>
    14c0:	49a4      	ldr	r1, [pc, #656]	; (1754 <ExecuteMainLoop+0x714>)
    14c2:	a856      	add	r0, sp, #344	; 0x158
    14c4:	f005 f93e 	bl	6744 <strcat>
    14c8:	49a3      	ldr	r1, [pc, #652]	; (1758 <ExecuteMainLoop+0x718>)
    14ca:	a856      	add	r0, sp, #344	; 0x158
    14cc:	f004 fd40 	bl	5f50 <Send_ATCommand>
    14d0:	2120      	movs	r1, #32
    14d2:	9b01      	ldr	r3, [sp, #4]
    14d4:	2264      	movs	r2, #100	; 0x64
    14d6:	a80e      	add	r0, sp, #56	; 0x38
    14d8:	f004 fd68 	bl	5fac <ProcessATResponse>
    14dc:	4d9f      	ldr	r5, [pc, #636]	; (175c <ExecuteMainLoop+0x71c>)
    14de:	a80e      	add	r0, sp, #56	; 0x38
    14e0:	0029      	movs	r1, r5
    14e2:	f005 f9e1 	bl	68a8 <strstr>
    14e6:	2800      	cmp	r0, #0
    14e8:	d100      	bne.n	14ec <ExecuteMainLoop+0x4ac>
    14ea:	e11d      	b.n	1728 <ExecuteMainLoop+0x6e8>
    14ec:	489c      	ldr	r0, [pc, #624]	; (1760 <ExecuteMainLoop+0x720>)
    14ee:	f002 fddd 	bl	40ac <PRINT_K>
    14f2:	499c      	ldr	r1, [pc, #624]	; (1764 <ExecuteMainLoop+0x724>)
    14f4:	a80b      	add	r0, sp, #44	; 0x2c
    14f6:	f002 fe73 	bl	41e0 <Set_Timer>
    14fa:	a80b      	add	r0, sp, #44	; 0x2c
    14fc:	f002 fe52 	bl	41a4 <mn_timer_expired>
    1500:	1e01      	subs	r1, r0, #0
    1502:	d000      	beq.n	1506 <ExecuteMainLoop+0x4c6>
    1504:	e110      	b.n	1728 <ExecuteMainLoop+0x6e8>
    1506:	2280      	movs	r2, #128	; 0x80
    1508:	a856      	add	r0, sp, #344	; 0x158
    150a:	0052      	lsls	r2, r2, #1
    150c:	f004 fd98 	bl	6040 <memset>
    1510:	498f      	ldr	r1, [pc, #572]	; (1750 <ExecuteMainLoop+0x710>)
    1512:	a856      	add	r0, sp, #344	; 0x158
    1514:	313f      	adds	r1, #63	; 0x3f
    1516:	f005 f915 	bl	6744 <strcat>
    151a:	a91c      	add	r1, sp, #112	; 0x70
    151c:	a856      	add	r0, sp, #344	; 0x158
    151e:	f005 f911 	bl	6744 <strcat>
    1522:	4991      	ldr	r1, [pc, #580]	; (1768 <ExecuteMainLoop+0x728>)
    1524:	a856      	add	r0, sp, #344	; 0x158
    1526:	f005 f90d 	bl	6744 <strcat>
    152a:	a91f      	add	r1, sp, #124	; 0x7c
    152c:	a856      	add	r0, sp, #344	; 0x158
    152e:	f005 f909 	bl	6744 <strcat>
    1532:	4988      	ldr	r1, [pc, #544]	; (1754 <ExecuteMainLoop+0x714>)
    1534:	a856      	add	r0, sp, #344	; 0x158
    1536:	f005 f905 	bl	6744 <strcat>
    153a:	4987      	ldr	r1, [pc, #540]	; (1758 <ExecuteMainLoop+0x718>)
    153c:	a856      	add	r0, sp, #344	; 0x158
    153e:	f004 fd07 	bl	5f50 <Send_ATCommand>
    1542:	22fa      	movs	r2, #250	; 0xfa
    1544:	2120      	movs	r1, #32
    1546:	9b01      	ldr	r3, [sp, #4]
    1548:	0092      	lsls	r2, r2, #2
    154a:	a80e      	add	r0, sp, #56	; 0x38
    154c:	f004 fd2e 	bl	5fac <ProcessATResponse>
    1550:	4986      	ldr	r1, [pc, #536]	; (176c <ExecuteMainLoop+0x72c>)
    1552:	a80e      	add	r0, sp, #56	; 0x38
    1554:	f005 f9a8 	bl	68a8 <strstr>
    1558:	2800      	cmp	r0, #0
    155a:	d010      	beq.n	157e <ExecuteMainLoop+0x53e>
    155c:	2500      	movs	r5, #0
    155e:	4884      	ldr	r0, [pc, #528]	; (1770 <ExecuteMainLoop+0x730>)
    1560:	f002 fda4 	bl	40ac <PRINT_K>
    1564:	4883      	ldr	r0, [pc, #524]	; (1774 <ExecuteMainLoop+0x734>)
    1566:	f002 fda1 	bl	40ac <PRINT_K>
    156a:	4b76      	ldr	r3, [pc, #472]	; (1744 <ExecuteMainLoop+0x704>)
    156c:	a856      	add	r0, sp, #344	; 0x158
    156e:	735d      	strb	r5, [r3, #13]
    1570:	f004 f916 	bl	57a0 <Get_UserSettings>
    1574:	4b80      	ldr	r3, [pc, #512]	; (1778 <ExecuteMainLoop+0x738>)
    1576:	781a      	ldrb	r2, [r3, #0]
    1578:	42aa      	cmp	r2, r5
    157a:	d015      	beq.n	15a8 <ExecuteMainLoop+0x568>
    157c:	e00d      	b.n	159a <ExecuteMainLoop+0x55a>
    157e:	0029      	movs	r1, r5
    1580:	a80e      	add	r0, sp, #56	; 0x38
    1582:	f005 f991 	bl	68a8 <strstr>
    1586:	2800      	cmp	r0, #0
    1588:	d1e8      	bne.n	155c <ExecuteMainLoop+0x51c>
    158a:	f001 fbc9 	bl	2d20 <CheckModemStatus>
    158e:	4b6c      	ldr	r3, [pc, #432]	; (1740 <ExecuteMainLoop+0x700>)
    1590:	332e      	adds	r3, #46	; 0x2e
    1592:	781b      	ldrb	r3, [r3, #0]
    1594:	2b00      	cmp	r3, #0
    1596:	d1b0      	bne.n	14fa <ExecuteMainLoop+0x4ba>
    1598:	e0c6      	b.n	1728 <ExecuteMainLoop+0x6e8>
    159a:	701d      	strb	r5, [r3, #0]
    159c:	f002 fc1e 	bl	3ddc <ConnectToServer.constprop.45>
    15a0:	2305      	movs	r3, #5
    15a2:	2800      	cmp	r0, #0
    15a4:	d000      	beq.n	15a8 <ExecuteMainLoop+0x568>
    15a6:	e6fc      	b.n	13a2 <ExecuteMainLoop+0x362>
    15a8:	a962      	add	r1, sp, #392	; 0x188
    15aa:	4874      	ldr	r0, [pc, #464]	; (177c <ExecuteMainLoop+0x73c>)
    15ac:	f005 f904 	bl	67b8 <strcpy>
    15b0:	a982      	add	r1, sp, #520	; 0x208
    15b2:	4873      	ldr	r0, [pc, #460]	; (1780 <ExecuteMainLoop+0x740>)
    15b4:	f005 f900 	bl	67b8 <strcpy>
    15b8:	2303      	movs	r3, #3
    15ba:	e6f2      	b.n	13a2 <ExecuteMainLoop+0x362>
    15bc:	4d64      	ldr	r5, [pc, #400]	; (1750 <ExecuteMainLoop+0x710>)
    15be:	4f66      	ldr	r7, [pc, #408]	; (1758 <ExecuteMainLoop+0x718>)
    15c0:	0028      	movs	r0, r5
    15c2:	0039      	movs	r1, r7
    15c4:	304e      	adds	r0, #78	; 0x4e
    15c6:	f004 fcc3 	bl	5f50 <Send_ATCommand>
    15ca:	9b01      	ldr	r3, [sp, #4]
    15cc:	2264      	movs	r2, #100	; 0x64
    15ce:	2180      	movs	r1, #128	; 0x80
    15d0:	a856      	add	r0, sp, #344	; 0x158
    15d2:	f004 fceb 	bl	5fac <ProcessATResponse>
    15d6:	4e61      	ldr	r6, [pc, #388]	; (175c <ExecuteMainLoop+0x71c>)
    15d8:	a856      	add	r0, sp, #344	; 0x158
    15da:	0031      	movs	r1, r6
    15dc:	f005 f964 	bl	68a8 <strstr>
    15e0:	4c59      	ldr	r4, [pc, #356]	; (1748 <ExecuteMainLoop+0x708>)
    15e2:	2800      	cmp	r0, #0
    15e4:	d101      	bne.n	15ea <ExecuteMainLoop+0x5aa>
    15e6:	2500      	movs	r5, #0
    15e8:	e091      	b.n	170e <ExecuteMainLoop+0x6ce>
    15ea:	0028      	movs	r0, r5
    15ec:	0039      	movs	r1, r7
    15ee:	3069      	adds	r0, #105	; 0x69
    15f0:	f004 fcae 	bl	5f50 <Send_ATCommand>
    15f4:	2120      	movs	r1, #32
    15f6:	9b01      	ldr	r3, [sp, #4]
    15f8:	2264      	movs	r2, #100	; 0x64
    15fa:	a856      	add	r0, sp, #344	; 0x158
    15fc:	f004 fcd6 	bl	5fac <ProcessATResponse>
    1600:	0031      	movs	r1, r6
    1602:	a856      	add	r0, sp, #344	; 0x158
    1604:	f005 f950 	bl	68a8 <strstr>
    1608:	2800      	cmp	r0, #0
    160a:	d0ec      	beq.n	15e6 <ExecuteMainLoop+0x5a6>
    160c:	f002 fbe6 	bl	3ddc <ConnectToServer.constprop.45>
    1610:	1e05      	subs	r5, r0, #0
    1612:	d07c      	beq.n	170e <ExecuteMainLoop+0x6ce>
    1614:	2001      	movs	r0, #1
    1616:	f001 f9c5 	bl	29a4 <gsm_set_led_status>
    161a:	4e4a      	ldr	r6, [pc, #296]	; (1744 <ExecuteMainLoop+0x704>)
    161c:	2300      	movs	r3, #0
    161e:	0035      	movs	r5, r6
    1620:	73f3      	strb	r3, [r6, #15]
    1622:	350f      	adds	r5, #15
    1624:	a856      	add	r0, sp, #344	; 0x158
    1626:	f004 fcb9 	bl	5f9c <Get_GsmInfo>
    162a:	4956      	ldr	r1, [pc, #344]	; (1784 <ExecuteMainLoop+0x744>)
    162c:	0028      	movs	r0, r5
    162e:	f005 f889 	bl	6744 <strcat>
    1632:	21a7      	movs	r1, #167	; 0xa7
    1634:	ab06      	add	r3, sp, #24
    1636:	0049      	lsls	r1, r1, #1
    1638:	18c9      	adds	r1, r1, r3
    163a:	0028      	movs	r0, r5
    163c:	f005 f882 	bl	6744 <strcat>
    1640:	4951      	ldr	r1, [pc, #324]	; (1788 <ExecuteMainLoop+0x748>)
    1642:	0028      	movs	r0, r5
    1644:	f005 f87e 	bl	6744 <strcat>
    1648:	4950      	ldr	r1, [pc, #320]	; (178c <ExecuteMainLoop+0x74c>)
    164a:	0028      	movs	r0, r5
    164c:	f005 f87a 	bl	6744 <strcat>
    1650:	21af      	movs	r1, #175	; 0xaf
    1652:	ab06      	add	r3, sp, #24
    1654:	0049      	lsls	r1, r1, #1
    1656:	18c9      	adds	r1, r1, r3
    1658:	0028      	movs	r0, r5
    165a:	f005 f873 	bl	6744 <strcat>
    165e:	22ff      	movs	r2, #255	; 0xff
    1660:	4b4b      	ldr	r3, [pc, #300]	; (1790 <ExecuteMainLoop+0x750>)
    1662:	0035      	movs	r5, r6
    1664:	6b18      	ldr	r0, [r3, #48]	; 0x30
    1666:	631a      	str	r2, [r3, #48]	; 0x30
    1668:	3801      	subs	r0, #1
    166a:	280f      	cmp	r0, #15
    166c:	d81d      	bhi.n	16aa <ExecuteMainLoop+0x66a>
    166e:	f006 f9cb 	bl	7a08 <__gnu_thumb1_case_uqi>
    1672:	0c08      	.short	0x0c08
    1674:	1c1c101c 	.word	0x1c1c101c
    1678:	1c1c141c 	.word	0x1c1c141c
    167c:	1c1c1c1c 	.word	0x1c1c1c1c
    1680:	181c      	.short	0x181c
    1682:	0030      	movs	r0, r6
    1684:	4943      	ldr	r1, [pc, #268]	; (1794 <ExecuteMainLoop+0x754>)
    1686:	300f      	adds	r0, #15
    1688:	e012      	b.n	16b0 <ExecuteMainLoop+0x670>
    168a:	0030      	movs	r0, r6
    168c:	4942      	ldr	r1, [pc, #264]	; (1798 <ExecuteMainLoop+0x758>)
    168e:	300f      	adds	r0, #15
    1690:	e00e      	b.n	16b0 <ExecuteMainLoop+0x670>
    1692:	0030      	movs	r0, r6
    1694:	4941      	ldr	r1, [pc, #260]	; (179c <ExecuteMainLoop+0x75c>)
    1696:	300f      	adds	r0, #15
    1698:	e00a      	b.n	16b0 <ExecuteMainLoop+0x670>
    169a:	0030      	movs	r0, r6
    169c:	4940      	ldr	r1, [pc, #256]	; (17a0 <ExecuteMainLoop+0x760>)
    169e:	300f      	adds	r0, #15
    16a0:	e006      	b.n	16b0 <ExecuteMainLoop+0x670>
    16a2:	0030      	movs	r0, r6
    16a4:	493f      	ldr	r1, [pc, #252]	; (17a4 <ExecuteMainLoop+0x764>)
    16a6:	300f      	adds	r0, #15
    16a8:	e002      	b.n	16b0 <ExecuteMainLoop+0x670>
    16aa:	0028      	movs	r0, r5
    16ac:	493e      	ldr	r1, [pc, #248]	; (17a8 <ExecuteMainLoop+0x768>)
    16ae:	300f      	adds	r0, #15
    16b0:	350f      	adds	r5, #15
    16b2:	f005 f847 	bl	6744 <strcat>
    16b6:	0028      	movs	r0, r5
    16b8:	f005 f8a0 	bl	67fc <strlen>
    16bc:	9a01      	ldr	r2, [sp, #4]
    16be:	b281      	uxth	r1, r0
    16c0:	0028      	movs	r0, r5
    16c2:	f001 fab7 	bl	2c34 <Send_MessageToServer>
    16c6:	2101      	movs	r1, #1
    16c8:	0028      	movs	r0, r5
    16ca:	f001 f818 	bl	26fe <Trio_PrepareTMessage>
    16ce:	9a01      	ldr	r2, [sp, #4]
    16d0:	b281      	uxth	r1, r0
    16d2:	0028      	movs	r0, r5
    16d4:	f001 faae 	bl	2c34 <Send_MessageToServer>
    16d8:	2800      	cmp	r0, #0
    16da:	d00c      	beq.n	16f6 <ExecuteMainLoop+0x6b6>
    16dc:	4824      	ldr	r0, [pc, #144]	; (1770 <ExecuteMainLoop+0x730>)
    16de:	f002 fce5 	bl	40ac <PRINT_K>
    16e2:	2201      	movs	r2, #1
    16e4:	4b16      	ldr	r3, [pc, #88]	; (1740 <ExecuteMainLoop+0x700>)
    16e6:	3330      	adds	r3, #48	; 0x30
    16e8:	701a      	strb	r2, [r3, #0]
    16ea:	2300      	movs	r3, #0
    16ec:	7373      	strb	r3, [r6, #13]
    16ee:	f001 fa59 	bl	2ba4 <Initialize_Timers>
    16f2:	2304      	movs	r3, #4
    16f4:	e015      	b.n	1722 <ExecuteMainLoop+0x6e2>
    16f6:	7b72      	ldrb	r2, [r6, #13]
    16f8:	1c53      	adds	r3, r2, #1
    16fa:	b2db      	uxtb	r3, r3
    16fc:	2a05      	cmp	r2, #5
    16fe:	d001      	beq.n	1704 <ExecuteMainLoop+0x6c4>
    1700:	7373      	strb	r3, [r6, #13]
    1702:	e011      	b.n	1728 <ExecuteMainLoop+0x6e8>
    1704:	7370      	strb	r0, [r6, #13]
    1706:	7320      	strb	r0, [r4, #12]
    1708:	f001 f94c 	bl	29a4 <gsm_set_led_status>
    170c:	e00c      	b.n	1728 <ExecuteMainLoop+0x6e8>
    170e:	4b1a      	ldr	r3, [pc, #104]	; (1778 <ExecuteMainLoop+0x738>)
    1710:	781a      	ldrb	r2, [r3, #0]
    1712:	2a00      	cmp	r2, #0
    1714:	d008      	beq.n	1728 <ExecuteMainLoop+0x6e8>
    1716:	701d      	strb	r5, [r3, #0]
    1718:	f002 fb60 	bl	3ddc <ConnectToServer.constprop.45>
    171c:	2800      	cmp	r0, #0
    171e:	d002      	beq.n	1726 <ExecuteMainLoop+0x6e6>
    1720:	2305      	movs	r3, #5
    1722:	7323      	strb	r3, [r4, #12]
    1724:	e000      	b.n	1728 <ExecuteMainLoop+0x6e8>
    1726:	7325      	strb	r5, [r4, #12]
    1728:	4a06      	ldr	r2, [pc, #24]	; (1744 <ExecuteMainLoop+0x704>)
    172a:	7b53      	ldrb	r3, [r2, #13]
    172c:	1c59      	adds	r1, r3, #1
    172e:	7351      	strb	r1, [r2, #13]
    1730:	2b05      	cmp	r3, #5
    1732:	d000      	beq.n	1736 <ExecuteMainLoop+0x6f6>
    1734:	e4a0      	b.n	1078 <ExecuteMainLoop+0x38>
    1736:	e6a0      	b.n	147a <ExecuteMainLoop+0x43a>
    1738:	100004e8 	.word	0x100004e8
    173c:	00002153 	.word	0x00002153
    1740:	10000888 	.word	0x10000888
    1744:	100003b4 	.word	0x100003b4
    1748:	100002b4 	.word	0x100002b4
    174c:	10000738 	.word	0x10000738
    1750:	00002010 	.word	0x00002010
    1754:	0000216e 	.word	0x0000216e
    1758:	00004dee 	.word	0x00004dee
    175c:	00004337 	.word	0x00004337
    1760:	00002171 	.word	0x00002171
    1764:	00001770 	.word	0x00001770
    1768:	00002181 	.word	0x00002181
    176c:	00002185 	.word	0x00002185
    1770:	000022b6 	.word	0x000022b6
    1774:	0000218c 	.word	0x0000218c
    1778:	100008dc 	.word	0x100008dc
    177c:	10000545 	.word	0x10000545
    1780:	100005c5 	.word	0x100005c5
    1784:	0000219e 	.word	0x0000219e
    1788:	000021a3 	.word	0x000021a3
    178c:	000020a3 	.word	0x000020a3
    1790:	40048000 	.word	0x40048000
    1794:	000021a8 	.word	0x000021a8
    1798:	000021b1 	.word	0x000021b1
    179c:	000021ba 	.word	0x000021ba
    17a0:	000021c3 	.word	0x000021c3
    17a4:	000021cc 	.word	0x000021cc
    17a8:	000021d5 	.word	0x000021d5
    17ac:	4e9d      	ldr	r6, [pc, #628]	; (1a24 <ExecuteMainLoop+0x9e4>)
    17ae:	2212      	movs	r2, #18
    17b0:	0031      	movs	r1, r6
    17b2:	a80e      	add	r0, sp, #56	; 0x38
    17b4:	f004 fc40 	bl	6038 <memcpy>
    17b8:	2221      	movs	r2, #33	; 0x21
    17ba:	ab06      	add	r3, sp, #24
    17bc:	189b      	adds	r3, r3, r2
    17be:	781b      	ldrb	r3, [r3, #0]
    17c0:	2b03      	cmp	r3, #3
    17c2:	d114      	bne.n	17ee <ExecuteMainLoop+0x7ae>
    17c4:	ab06      	add	r3, sp, #24
    17c6:	3a01      	subs	r2, #1
    17c8:	189b      	adds	r3, r3, r2
    17ca:	781b      	ldrb	r3, [r3, #0]
    17cc:	2b01      	cmp	r3, #1
    17ce:	d10e      	bne.n	17ee <ExecuteMainLoop+0x7ae>
    17d0:	4c95      	ldr	r4, [pc, #596]	; (1a28 <ExecuteMainLoop+0x9e8>)
    17d2:	340f      	adds	r4, #15
    17d4:	0020      	movs	r0, r4
    17d6:	f004 f825 	bl	5824 <PrepareBlockageEchoPacket>
    17da:	9a01      	ldr	r2, [sp, #4]
    17dc:	b281      	uxth	r1, r0
    17de:	0020      	movs	r0, r4
    17e0:	f001 fa28 	bl	2c34 <Send_MessageToServer>
    17e4:	2800      	cmp	r0, #0
    17e6:	d100      	bne.n	17ea <ExecuteMainLoop+0x7aa>
    17e8:	e23d      	b.n	1c66 <ExecuteMainLoop+0xc26>
    17ea:	2300      	movs	r3, #0
    17ec:	7073      	strb	r3, [r6, #1]
    17ee:	f002 fe1d 	bl	442c <Get_EventStatus>
    17f2:	2800      	cmp	r0, #0
    17f4:	d018      	beq.n	1828 <ExecuteMainLoop+0x7e8>
    17f6:	4c8c      	ldr	r4, [pc, #560]	; (1a28 <ExecuteMainLoop+0x9e8>)
    17f8:	2101      	movs	r1, #1
    17fa:	340f      	adds	r4, #15
    17fc:	0020      	movs	r0, r4
    17fe:	f000 ff7e 	bl	26fe <Trio_PrepareTMessage>
    1802:	9a01      	ldr	r2, [sp, #4]
    1804:	b281      	uxth	r1, r0
    1806:	0020      	movs	r0, r4
    1808:	f001 fa14 	bl	2c34 <Send_MessageToServer>
    180c:	2800      	cmp	r0, #0
    180e:	d100      	bne.n	1812 <ExecuteMainLoop+0x7d2>
    1810:	e229      	b.n	1c66 <ExecuteMainLoop+0xc26>
    1812:	4986      	ldr	r1, [pc, #536]	; (1a2c <ExecuteMainLoop+0x9ec>)
    1814:	0028      	movs	r0, r5
    1816:	f002 fce3 	bl	41e0 <Set_Timer>
    181a:	4985      	ldr	r1, [pc, #532]	; (1a30 <ExecuteMainLoop+0x9f0>)
    181c:	4885      	ldr	r0, [pc, #532]	; (1a34 <ExecuteMainLoop+0x9f4>)
    181e:	f002 fcdf 	bl	41e0 <Set_Timer>
    1822:	2301      	movs	r3, #1
    1824:	9302      	str	r3, [sp, #8]
    1826:	e000      	b.n	182a <ExecuteMainLoop+0x7ea>
    1828:	9002      	str	r0, [sp, #8]
    182a:	4c83      	ldr	r4, [pc, #524]	; (1a38 <ExecuteMainLoop+0x9f8>)
    182c:	0020      	movs	r0, r4
    182e:	f002 fcb9 	bl	41a4 <mn_timer_expired>
    1832:	2800      	cmp	r0, #0
    1834:	d020      	beq.n	1878 <ExecuteMainLoop+0x838>
    1836:	4881      	ldr	r0, [pc, #516]	; (1a3c <ExecuteMainLoop+0x9fc>)
    1838:	f002 fc38 	bl	40ac <PRINT_K>
    183c:	4e7a      	ldr	r6, [pc, #488]	; (1a28 <ExecuteMainLoop+0x9e8>)
    183e:	2101      	movs	r1, #1
    1840:	360f      	adds	r6, #15
    1842:	0030      	movs	r0, r6
    1844:	f000 ff5b 	bl	26fe <Trio_PrepareTMessage>
    1848:	9a01      	ldr	r2, [sp, #4]
    184a:	b281      	uxth	r1, r0
    184c:	0030      	movs	r0, r6
    184e:	f001 f9f1 	bl	2c34 <Send_MessageToServer>
    1852:	2800      	cmp	r0, #0
    1854:	d100      	bne.n	1858 <ExecuteMainLoop+0x818>
    1856:	e206      	b.n	1c66 <ExecuteMainLoop+0xc26>
    1858:	f004 fb34 	bl	5ec4 <Get_DataSendPeriod>
    185c:	0001      	movs	r1, r0
    185e:	0020      	movs	r0, r4
    1860:	f002 fcbe 	bl	41e0 <Set_Timer>
    1864:	4972      	ldr	r1, [pc, #456]	; (1a30 <ExecuteMainLoop+0x9f0>)
    1866:	4873      	ldr	r0, [pc, #460]	; (1a34 <ExecuteMainLoop+0x9f4>)
    1868:	f002 fcba 	bl	41e0 <Set_Timer>
    186c:	496f      	ldr	r1, [pc, #444]	; (1a2c <ExecuteMainLoop+0x9ec>)
    186e:	0028      	movs	r0, r5
    1870:	f002 fcb6 	bl	41e0 <Set_Timer>
    1874:	2301      	movs	r3, #1
    1876:	9302      	str	r3, [sp, #8]
    1878:	4c6e      	ldr	r4, [pc, #440]	; (1a34 <ExecuteMainLoop+0x9f4>)
    187a:	0020      	movs	r0, r4
    187c:	f002 fc92 	bl	41a4 <mn_timer_expired>
    1880:	2800      	cmp	r0, #0
    1882:	d01a      	beq.n	18ba <ExecuteMainLoop+0x87a>
    1884:	486e      	ldr	r0, [pc, #440]	; (1a40 <ExecuteMainLoop+0xa00>)
    1886:	f002 fc11 	bl	40ac <PRINT_K>
    188a:	4e67      	ldr	r6, [pc, #412]	; (1a28 <ExecuteMainLoop+0x9e8>)
    188c:	496d      	ldr	r1, [pc, #436]	; (1a44 <ExecuteMainLoop+0xa04>)
    188e:	360f      	adds	r6, #15
    1890:	0030      	movs	r0, r6
    1892:	f001 f85b 	bl	294c <Trio_PreparePingMessage>
    1896:	9a01      	ldr	r2, [sp, #4]
    1898:	b281      	uxth	r1, r0
    189a:	0030      	movs	r0, r6
    189c:	f001 f9ca 	bl	2c34 <Send_MessageToServer>
    18a0:	2800      	cmp	r0, #0
    18a2:	d100      	bne.n	18a6 <ExecuteMainLoop+0x866>
    18a4:	e1df      	b.n	1c66 <ExecuteMainLoop+0xc26>
    18a6:	4962      	ldr	r1, [pc, #392]	; (1a30 <ExecuteMainLoop+0x9f0>)
    18a8:	0020      	movs	r0, r4
    18aa:	f002 fc99 	bl	41e0 <Set_Timer>
    18ae:	495f      	ldr	r1, [pc, #380]	; (1a2c <ExecuteMainLoop+0x9ec>)
    18b0:	0028      	movs	r0, r5
    18b2:	f002 fc95 	bl	41e0 <Set_Timer>
    18b6:	2301      	movs	r3, #1
    18b8:	9302      	str	r3, [sp, #8]
    18ba:	4863      	ldr	r0, [pc, #396]	; (1a48 <ExecuteMainLoop+0xa08>)
    18bc:	f002 fc72 	bl	41a4 <mn_timer_expired>
    18c0:	2800      	cmp	r0, #0
    18c2:	d100      	bne.n	18c6 <ExecuteMainLoop+0x886>
    18c4:	e152      	b.n	1b6c <ExecuteMainLoop+0xb2c>
    18c6:	2105      	movs	r1, #5
    18c8:	a80b      	add	r0, sp, #44	; 0x2c
    18ca:	f002 fc89 	bl	41e0 <Set_Timer>
    18ce:	a80b      	add	r0, sp, #44	; 0x2c
    18d0:	f002 fc68 	bl	41a4 <mn_timer_expired>
    18d4:	1e04      	subs	r4, r0, #0
    18d6:	d000      	beq.n	18da <ExecuteMainLoop+0x89a>
    18d8:	e143      	b.n	1b62 <ExecuteMainLoop+0xb22>
    18da:	4b5c      	ldr	r3, [pc, #368]	; (1a4c <ExecuteMainLoop+0xa0c>)
    18dc:	aa06      	add	r2, sp, #24
    18de:	4d5c      	ldr	r5, [pc, #368]	; (1a50 <ExecuteMainLoop+0xa10>)
    18e0:	189b      	adds	r3, r3, r2
    18e2:	70dc      	strb	r4, [r3, #3]
    18e4:	686a      	ldr	r2, [r5, #4]
    18e6:	682b      	ldr	r3, [r5, #0]
    18e8:	4293      	cmp	r3, r2
    18ea:	d100      	bne.n	18ee <ExecuteMainLoop+0x8ae>
    18ec:	e139      	b.n	1b62 <ExecuteMainLoop+0xb22>
    18ee:	2280      	movs	r2, #128	; 0x80
    18f0:	0021      	movs	r1, r4
    18f2:	0052      	lsls	r2, r2, #1
    18f4:	a856      	add	r0, sp, #344	; 0x158
    18f6:	f004 fba3 	bl	6040 <memset>
    18fa:	0021      	movs	r1, r4
    18fc:	2209      	movs	r2, #9
    18fe:	a808      	add	r0, sp, #32
    1900:	f004 fb9e 	bl	6040 <memset>
    1904:	6869      	ldr	r1, [r5, #4]
    1906:	682c      	ldr	r4, [r5, #0]
    1908:	1c4b      	adds	r3, r1, #1
    190a:	33ff      	adds	r3, #255	; 0xff
    190c:	428c      	cmp	r4, r1
    190e:	d903      	bls.n	1918 <ExecuteMainLoop+0x8d8>
    1910:	429c      	cmp	r4, r3
    1912:	d209      	bcs.n	1928 <ExecuteMainLoop+0x8e8>
    1914:	1a64      	subs	r4, r4, r1
    1916:	e004      	b.n	1922 <ExecuteMainLoop+0x8e2>
    1918:	4a4e      	ldr	r2, [pc, #312]	; (1a54 <ExecuteMainLoop+0xa14>)
    191a:	4293      	cmp	r3, r2
    191c:	d904      	bls.n	1928 <ExecuteMainLoop+0x8e8>
    191e:	23e1      	movs	r3, #225	; 0xe1
    1920:	1a5c      	subs	r4, r3, r1
    1922:	b2a4      	uxth	r4, r4
    1924:	2cff      	cmp	r4, #255	; 0xff
    1926:	d901      	bls.n	192c <ExecuteMainLoop+0x8ec>
    1928:	2480      	movs	r4, #128	; 0x80
    192a:	0064      	lsls	r4, r4, #1
    192c:	ae16      	add	r6, sp, #88	; 0x58
    192e:	484a      	ldr	r0, [pc, #296]	; (1a58 <ExecuteMainLoop+0xa18>)
    1930:	f002 fc10 	bl	4154 <Print_Val>
    1934:	0032      	movs	r2, r6
    1936:	0021      	movs	r1, r4
    1938:	6868      	ldr	r0, [r5, #4]
    193a:	f003 f9b5 	bl	4ca8 <SST25_Read>
    193e:	2102      	movs	r1, #2
    1940:	0030      	movs	r0, r6
    1942:	f004 ff0c 	bl	675e <strchr>
    1946:	2103      	movs	r1, #3
    1948:	9003      	str	r0, [sp, #12]
    194a:	0030      	movs	r0, r6
    194c:	f004 ff07 	bl	675e <strchr>
    1950:	9b03      	ldr	r3, [sp, #12]
    1952:	0007      	movs	r7, r0
    1954:	2b00      	cmp	r3, #0
    1956:	d03f      	beq.n	19d8 <ExecuteMainLoop+0x998>
    1958:	2800      	cmp	r0, #0
    195a:	d051      	beq.n	1a00 <ExecuteMainLoop+0x9c0>
    195c:	4283      	cmp	r3, r0
    195e:	d907      	bls.n	1970 <ExecuteMainLoop+0x930>
    1960:	1b9e      	subs	r6, r3, r6
    1962:	686b      	ldr	r3, [r5, #4]
    1964:	483d      	ldr	r0, [pc, #244]	; (1a5c <ExecuteMainLoop+0xa1c>)
    1966:	199e      	adds	r6, r3, r6
    1968:	606e      	str	r6, [r5, #4]
    196a:	f002 fb9f 	bl	40ac <PRINT_K>
    196e:	e082      	b.n	1a76 <ExecuteMainLoop+0xa36>
    1970:	2600      	movs	r6, #0
    1972:	1f04      	subs	r4, r0, #4
    1974:	0021      	movs	r1, r4
    1976:	7006      	strb	r6, [r0, #0]
    1978:	a806      	add	r0, sp, #24
    197a:	f004 ff1d 	bl	67b8 <strcpy>
    197e:	9b03      	ldr	r3, [sp, #12]
    1980:	7026      	strb	r6, [r4, #0]
    1982:	1c5c      	adds	r4, r3, #1
    1984:	0020      	movs	r0, r4
    1986:	f004 ff39 	bl	67fc <strlen>
    198a:	b281      	uxth	r1, r0
    198c:	0020      	movs	r0, r4
    198e:	f002 fb4d 	bl	402c <crc16>
    1992:	0001      	movs	r1, r0
    1994:	a808      	add	r0, sp, #32
    1996:	f002 fbc7 	bl	4128 <Hex2Str>
    199a:	a909      	add	r1, sp, #36	; 0x24
    199c:	a806      	add	r0, sp, #24
    199e:	f004 fee9 	bl	6774 <strcmp>
    19a2:	4d2a      	ldr	r5, [pc, #168]	; (1a4c <ExecuteMainLoop+0xa0c>)
    19a4:	ab06      	add	r3, sp, #24
    19a6:	18ed      	adds	r5, r5, r3
    19a8:	42b0      	cmp	r0, r6
    19aa:	d109      	bne.n	19c0 <ExecuteMainLoop+0x980>
    19ac:	0021      	movs	r1, r4
    19ae:	a856      	add	r0, sp, #344	; 0x158
    19b0:	f004 ff02 	bl	67b8 <strcpy>
    19b4:	2301      	movs	r3, #1
    19b6:	482a      	ldr	r0, [pc, #168]	; (1a60 <ExecuteMainLoop+0xa20>)
    19b8:	70eb      	strb	r3, [r5, #3]
    19ba:	f002 fb77 	bl	40ac <PRINT_K>
    19be:	e003      	b.n	19c8 <ExecuteMainLoop+0x988>
    19c0:	4828      	ldr	r0, [pc, #160]	; (1a64 <ExecuteMainLoop+0xa24>)
    19c2:	f002 fb73 	bl	40ac <PRINT_K>
    19c6:	70ee      	strb	r6, [r5, #3]
    19c8:	4b21      	ldr	r3, [pc, #132]	; (1a50 <ExecuteMainLoop+0xa10>)
    19ca:	685a      	ldr	r2, [r3, #4]
    19cc:	1c56      	adds	r6, r2, #1
    19ce:	9a03      	ldr	r2, [sp, #12]
    19d0:	1abf      	subs	r7, r7, r2
    19d2:	19f7      	adds	r7, r6, r7
    19d4:	605f      	str	r7, [r3, #4]
    19d6:	e04e      	b.n	1a76 <ExecuteMainLoop+0xa36>
    19d8:	2800      	cmp	r0, #0
    19da:	d108      	bne.n	19ee <ExecuteMainLoop+0x9ae>
    19dc:	4822      	ldr	r0, [pc, #136]	; (1a68 <ExecuteMainLoop+0xa28>)
    19de:	f002 fb65 	bl	40ac <PRINT_K>
    19e2:	2340      	movs	r3, #64	; 0x40
    19e4:	aa06      	add	r2, sp, #24
    19e6:	33ff      	adds	r3, #255	; 0xff
    19e8:	189b      	adds	r3, r3, r2
    19ea:	701f      	strb	r7, [r3, #0]
    19ec:	e040      	b.n	1a70 <ExecuteMainLoop+0xa30>
    19ee:	466b      	mov	r3, sp
    19f0:	7b1b      	ldrb	r3, [r3, #12]
    19f2:	1bbe      	subs	r6, r7, r6
    19f4:	7003      	strb	r3, [r0, #0]
    19f6:	686b      	ldr	r3, [r5, #4]
    19f8:	1c58      	adds	r0, r3, #1
    19fa:	1986      	adds	r6, r0, r6
    19fc:	606e      	str	r6, [r5, #4]
    19fe:	e03a      	b.n	1a76 <ExecuteMainLoop+0xa36>
    1a00:	481a      	ldr	r0, [pc, #104]	; (1a6c <ExecuteMainLoop+0xa2c>)
    1a02:	f002 fb53 	bl	40ac <PRINT_K>
    1a06:	9803      	ldr	r0, [sp, #12]
    1a08:	2102      	movs	r1, #2
    1a0a:	3001      	adds	r0, #1
    1a0c:	f004 fea7 	bl	675e <strchr>
    1a10:	2800      	cmp	r0, #0
    1a12:	d02d      	beq.n	1a70 <ExecuteMainLoop+0xa30>
    1a14:	1e43      	subs	r3, r0, #1
    1a16:	701f      	strb	r7, [r3, #0]
    1a18:	686b      	ldr	r3, [r5, #4]
    1a1a:	1b80      	subs	r0, r0, r6
    1a1c:	1818      	adds	r0, r3, r0
    1a1e:	6068      	str	r0, [r5, #4]
    1a20:	e029      	b.n	1a76 <ExecuteMainLoop+0xa36>
    1a22:	46c0      	nop			; (mov r8, r8)
    1a24:	1000067c 	.word	0x1000067c
    1a28:	100003b4 	.word	0x100003b4
    1a2c:	000afc80 	.word	0x000afc80
    1a30:	00007530 	.word	0x00007530
    1a34:	100004c4 	.word	0x100004c4
    1a38:	100004dc 	.word	0x100004dc
    1a3c:	000021e1 	.word	0x000021e1
    1a40:	000021f6 	.word	0x000021f6
    1a44:	10000896 	.word	0x10000896
    1a48:	100004d0 	.word	0x100004d0
    1a4c:	0000023f 	.word	0x0000023f
    1a50:	10000c44 	.word	0x10000c44
    1a54:	000e0fff 	.word	0x000e0fff
    1a58:	00002208 	.word	0x00002208
    1a5c:	00002214 	.word	0x00002214
    1a60:	0000221b 	.word	0x0000221b
    1a64:	00002224 	.word	0x00002224
    1a68:	0000222d 	.word	0x0000222d
    1a6c:	00002234 	.word	0x00002234
    1a70:	686b      	ldr	r3, [r5, #4]
    1a72:	191c      	adds	r4, r3, r4
    1a74:	606c      	str	r4, [r5, #4]
    1a76:	4bd6      	ldr	r3, [pc, #856]	; (1dd0 <ExecuteMainLoop+0xd90>)
    1a78:	685a      	ldr	r2, [r3, #4]
    1a7a:	0011      	movs	r1, r2
    1a7c:	4ad5      	ldr	r2, [pc, #852]	; (1dd4 <ExecuteMainLoop+0xd94>)
    1a7e:	4291      	cmp	r1, r2
    1a80:	d901      	bls.n	1a86 <ExecuteMainLoop+0xa46>
    1a82:	2200      	movs	r2, #0
    1a84:	605a      	str	r2, [r3, #4]
    1a86:	681a      	ldr	r2, [r3, #0]
    1a88:	685b      	ldr	r3, [r3, #4]
    1a8a:	429a      	cmp	r2, r3
    1a8c:	d101      	bne.n	1a92 <ExecuteMainLoop+0xa52>
    1a8e:	f002 ffcf 	bl	4a30 <UpdateOffLineDataReadAddress>
    1a92:	4bd1      	ldr	r3, [pc, #836]	; (1dd8 <ExecuteMainLoop+0xd98>)
    1a94:	aa06      	add	r2, sp, #24
    1a96:	189b      	adds	r3, r3, r2
    1a98:	78db      	ldrb	r3, [r3, #3]
    1a9a:	2b00      	cmp	r3, #0
    1a9c:	d100      	bne.n	1aa0 <ExecuteMainLoop+0xa60>
    1a9e:	e716      	b.n	18ce <ExecuteMainLoop+0x88e>
    1aa0:	2280      	movs	r2, #128	; 0x80
    1aa2:	4cce      	ldr	r4, [pc, #824]	; (1ddc <ExecuteMainLoop+0xd9c>)
    1aa4:	0052      	lsls	r2, r2, #1
    1aa6:	340f      	adds	r4, #15
    1aa8:	2100      	movs	r1, #0
    1aaa:	0020      	movs	r0, r4
    1aac:	f004 fac8 	bl	6040 <memset>
    1ab0:	a956      	add	r1, sp, #344	; 0x158
    1ab2:	0020      	movs	r0, r4
    1ab4:	f004 fe80 	bl	67b8 <strcpy>
    1ab8:	0020      	movs	r0, r4
    1aba:	f004 fe9f 	bl	67fc <strlen>
    1abe:	2800      	cmp	r0, #0
    1ac0:	dd4f      	ble.n	1b62 <ExecuteMainLoop+0xb22>
    1ac2:	48c7      	ldr	r0, [pc, #796]	; (1de0 <ExecuteMainLoop+0xda0>)
    1ac4:	f002 faf2 	bl	40ac <PRINT_K>
    1ac8:	2280      	movs	r2, #128	; 0x80
    1aca:	2100      	movs	r1, #0
    1acc:	0052      	lsls	r2, r2, #1
    1ace:	a856      	add	r0, sp, #344	; 0x158
    1ad0:	f004 fab6 	bl	6040 <memset>
    1ad4:	4fc3      	ldr	r7, [pc, #780]	; (1de4 <ExecuteMainLoop+0xda4>)
    1ad6:	0020      	movs	r0, r4
    1ad8:	0039      	movs	r1, r7
    1ada:	f004 fee5 	bl	68a8 <strstr>
    1ade:	9003      	str	r0, [sp, #12]
    1ae0:	2800      	cmp	r0, #0
    1ae2:	d03e      	beq.n	1b62 <ExecuteMainLoop+0xb22>
    1ae4:	49c0      	ldr	r1, [pc, #768]	; (1de8 <ExecuteMainLoop+0xda8>)
    1ae6:	0020      	movs	r0, r4
    1ae8:	f004 fede 	bl	68a8 <strstr>
    1aec:	1e06      	subs	r6, r0, #0
    1aee:	d038      	beq.n	1b62 <ExecuteMainLoop+0xb22>
    1af0:	4dbe      	ldr	r5, [pc, #760]	; (1dec <ExecuteMainLoop+0xdac>)
    1af2:	0028      	movs	r0, r5
    1af4:	f004 fe82 	bl	67fc <strlen>
    1af8:	280f      	cmp	r0, #15
    1afa:	d132      	bne.n	1b62 <ExecuteMainLoop+0xb22>
    1afc:	0039      	movs	r1, r7
    1afe:	a856      	add	r0, sp, #344	; 0x158
    1b00:	f004 fe20 	bl	6744 <strcat>
    1b04:	2300      	movs	r3, #0
    1b06:	0029      	movs	r1, r5
    1b08:	7033      	strb	r3, [r6, #0]
    1b0a:	a856      	add	r0, sp, #344	; 0x158
    1b0c:	f004 fe1a 	bl	6744 <strcat>
    1b10:	9903      	ldr	r1, [sp, #12]
    1b12:	a856      	add	r0, sp, #344	; 0x158
    1b14:	3102      	adds	r1, #2
    1b16:	f004 fe15 	bl	6744 <strcat>
    1b1a:	a856      	add	r0, sp, #344	; 0x158
    1b1c:	f001 fe76 	bl	380c <Trio_AddTMessageExtensionSeperator>
    1b20:	2113      	movs	r1, #19
    1b22:	a856      	add	r0, sp, #344	; 0x158
    1b24:	f001 fe7a 	bl	381c <Trio_PrepareTMessageExtension>
    1b28:	49af      	ldr	r1, [pc, #700]	; (1de8 <ExecuteMainLoop+0xda8>)
    1b2a:	a856      	add	r0, sp, #344	; 0x158
    1b2c:	f004 fe0a 	bl	6744 <strcat>
    1b30:	a956      	add	r1, sp, #344	; 0x158
    1b32:	0020      	movs	r0, r4
    1b34:	f004 fe40 	bl	67b8 <strcpy>
    1b38:	0020      	movs	r0, r4
    1b3a:	f004 fe5f 	bl	67fc <strlen>
    1b3e:	9a01      	ldr	r2, [sp, #4]
    1b40:	b281      	uxth	r1, r0
    1b42:	0020      	movs	r0, r4
    1b44:	f001 f876 	bl	2c34 <Send_MessageToServer>
    1b48:	2800      	cmp	r0, #0
    1b4a:	d100      	bne.n	1b4e <ExecuteMainLoop+0xb0e>
    1b4c:	e08b      	b.n	1c66 <ExecuteMainLoop+0xc26>
    1b4e:	49a8      	ldr	r1, [pc, #672]	; (1df0 <ExecuteMainLoop+0xdb0>)
    1b50:	48a8      	ldr	r0, [pc, #672]	; (1df4 <ExecuteMainLoop+0xdb4>)
    1b52:	f002 fb45 	bl	41e0 <Set_Timer>
    1b56:	49a8      	ldr	r1, [pc, #672]	; (1df8 <ExecuteMainLoop+0xdb8>)
    1b58:	48a8      	ldr	r0, [pc, #672]	; (1dfc <ExecuteMainLoop+0xdbc>)
    1b5a:	f002 fb41 	bl	41e0 <Set_Timer>
    1b5e:	2301      	movs	r3, #1
    1b60:	9302      	str	r3, [sp, #8]
    1b62:	21fa      	movs	r1, #250	; 0xfa
    1b64:	48a6      	ldr	r0, [pc, #664]	; (1e00 <ExecuteMainLoop+0xdc0>)
    1b66:	0089      	lsls	r1, r1, #2
    1b68:	f002 fb3a 	bl	41e0 <Set_Timer>
    1b6c:	4ca5      	ldr	r4, [pc, #660]	; (1e04 <ExecuteMainLoop+0xdc4>)
    1b6e:	0020      	movs	r0, r4
    1b70:	f002 fb18 	bl	41a4 <mn_timer_expired>
    1b74:	4ea1      	ldr	r6, [pc, #644]	; (1dfc <ExecuteMainLoop+0xdbc>)
    1b76:	2800      	cmp	r0, #0
    1b78:	d072      	beq.n	1c60 <ExecuteMainLoop+0xc20>
    1b7a:	48a3      	ldr	r0, [pc, #652]	; (1e08 <ExecuteMainLoop+0xdc8>)
    1b7c:	f002 fa96 	bl	40ac <PRINT_K>
    1b80:	f001 f8ce 	bl	2d20 <CheckModemStatus>
    1b84:	4ba1      	ldr	r3, [pc, #644]	; (1e0c <ExecuteMainLoop+0xdcc>)
    1b86:	2802      	cmp	r0, #2
    1b88:	d002      	beq.n	1b90 <ExecuteMainLoop+0xb50>
    1b8a:	781f      	ldrb	r7, [r3, #0]
    1b8c:	2f00      	cmp	r7, #0
    1b8e:	d00c      	beq.n	1baa <ExecuteMainLoop+0xb6a>
    1b90:	2100      	movs	r1, #0
    1b92:	2064      	movs	r0, #100	; 0x64
    1b94:	7019      	strb	r1, [r3, #0]
    1b96:	f001 f899 	bl	2ccc <Delay>
    1b9a:	f001 f821 	bl	2be0 <Gsm_CloseSocket>
    1b9e:	f002 f91d 	bl	3ddc <ConnectToServer.constprop.45>
    1ba2:	2800      	cmp	r0, #0
    1ba4:	d000      	beq.n	1ba8 <ExecuteMainLoop+0xb68>
    1ba6:	e081      	b.n	1cac <ExecuteMainLoop+0xc6c>
    1ba8:	e05d      	b.n	1c66 <ExecuteMainLoop+0xc26>
    1baa:	4b99      	ldr	r3, [pc, #612]	; (1e10 <ExecuteMainLoop+0xdd0>)
    1bac:	891b      	ldrh	r3, [r3, #8]
    1bae:	2b00      	cmp	r3, #0
    1bb0:	d041      	beq.n	1c36 <ExecuteMainLoop+0xbf6>
    1bb2:	2180      	movs	r1, #128	; 0x80
    1bb4:	4d89      	ldr	r5, [pc, #548]	; (1ddc <ExecuteMainLoop+0xd9c>)
    1bb6:	9a01      	ldr	r2, [sp, #4]
    1bb8:	350f      	adds	r5, #15
    1bba:	0049      	lsls	r1, r1, #1
    1bbc:	0028      	movs	r0, r5
    1bbe:	f000 ff15 	bl	29ec <Get_GsmTcpBuffer>
    1bc2:	2800      	cmp	r0, #0
    1bc4:	d037      	beq.n	1c36 <ExecuteMainLoop+0xbf6>
    1bc6:	2202      	movs	r2, #2
    1bc8:	0039      	movs	r1, r7
    1bca:	32ff      	adds	r2, #255	; 0xff
    1bcc:	a856      	add	r0, sp, #344	; 0x158
    1bce:	f004 fa37 	bl	6040 <memset>
    1bd2:	2201      	movs	r2, #1
    1bd4:	a956      	add	r1, sp, #344	; 0x158
    1bd6:	0028      	movs	r0, r5
    1bd8:	f003 fd40 	bl	565c <ProcessReceivedData>
    1bdc:	2801      	cmp	r0, #1
    1bde:	d10d      	bne.n	1bfc <ExecuteMainLoop+0xbbc>
    1be0:	a856      	add	r0, sp, #344	; 0x158
    1be2:	f002 fa63 	bl	40ac <PRINT_K>
    1be6:	a856      	add	r0, sp, #344	; 0x158
    1be8:	f004 fe08 	bl	67fc <strlen>
    1bec:	9a01      	ldr	r2, [sp, #4]
    1bee:	b281      	uxth	r1, r0
    1bf0:	a856      	add	r0, sp, #344	; 0x158
    1bf2:	f001 f81f 	bl	2c34 <Send_MessageToServer>
    1bf6:	2800      	cmp	r0, #0
    1bf8:	d035      	beq.n	1c66 <ExecuteMainLoop+0xc26>
    1bfa:	e007      	b.n	1c0c <ExecuteMainLoop+0xbcc>
    1bfc:	2802      	cmp	r0, #2
    1bfe:	d105      	bne.n	1c0c <ExecuteMainLoop+0xbcc>
    1c00:	f000 ffee 	bl	2be0 <Gsm_CloseSocket>
    1c04:	f002 f8ea 	bl	3ddc <ConnectToServer.constprop.45>
    1c08:	2800      	cmp	r0, #0
    1c0a:	d14f      	bne.n	1cac <ExecuteMainLoop+0xc6c>
    1c0c:	497a      	ldr	r1, [pc, #488]	; (1df8 <ExecuteMainLoop+0xdb8>)
    1c0e:	0030      	movs	r0, r6
    1c10:	f002 fae6 	bl	41e0 <Set_Timer>
    1c14:	4976      	ldr	r1, [pc, #472]	; (1df0 <ExecuteMainLoop+0xdb0>)
    1c16:	4877      	ldr	r0, [pc, #476]	; (1df4 <ExecuteMainLoop+0xdb4>)
    1c18:	f002 fae2 	bl	41e0 <Set_Timer>
    1c1c:	4b6e      	ldr	r3, [pc, #440]	; (1dd8 <ExecuteMainLoop+0xd98>)
    1c1e:	aa06      	add	r2, sp, #24
    1c20:	189b      	adds	r3, r3, r2
    1c22:	785b      	ldrb	r3, [r3, #1]
    1c24:	2b00      	cmp	r3, #0
    1c26:	d004      	beq.n	1c32 <ExecuteMainLoop+0xbf2>
    1c28:	487a      	ldr	r0, [pc, #488]	; (1e14 <ExecuteMainLoop+0xdd4>)
    1c2a:	f002 fa3f 	bl	40ac <PRINT_K>
    1c2e:	f002 faad 	bl	418c <NVIC_SystemReset.lto_priv.68.lto_priv.74>
    1c32:	3301      	adds	r3, #1
    1c34:	9302      	str	r3, [sp, #8]
    1c36:	23fa      	movs	r3, #250	; 0xfa
    1c38:	4a77      	ldr	r2, [pc, #476]	; (1e18 <ExecuteMainLoop+0xdd8>)
    1c3a:	005b      	lsls	r3, r3, #1
    1c3c:	6812      	ldr	r2, [r2, #0]
    1c3e:	429a      	cmp	r2, r3
    1c40:	dc11      	bgt.n	1c66 <ExecuteMainLoop+0xc26>
    1c42:	4b73      	ldr	r3, [pc, #460]	; (1e10 <ExecuteMainLoop+0xdd0>)
    1c44:	001a      	movs	r2, r3
    1c46:	322e      	adds	r2, #46	; 0x2e
    1c48:	7812      	ldrb	r2, [r2, #0]
    1c4a:	2a00      	cmp	r2, #0
    1c4c:	d00b      	beq.n	1c66 <ExecuteMainLoop+0xc26>
    1c4e:	3330      	adds	r3, #48	; 0x30
    1c50:	781b      	ldrb	r3, [r3, #0]
    1c52:	2b00      	cmp	r3, #0
    1c54:	d007      	beq.n	1c66 <ExecuteMainLoop+0xc26>
    1c56:	2196      	movs	r1, #150	; 0x96
    1c58:	0020      	movs	r0, r4
    1c5a:	0049      	lsls	r1, r1, #1
    1c5c:	f002 fac0 	bl	41e0 <Set_Timer>
    1c60:	9b02      	ldr	r3, [sp, #8]
    1c62:	3301      	adds	r3, #1
    1c64:	d118      	bne.n	1c98 <ExecuteMainLoop+0xc58>
    1c66:	4a5d      	ldr	r2, [pc, #372]	; (1ddc <ExecuteMainLoop+0xd9c>)
    1c68:	4c69      	ldr	r4, [pc, #420]	; (1e10 <ExecuteMainLoop+0xdd0>)
    1c6a:	7b53      	ldrb	r3, [r2, #13]
    1c6c:	1c59      	adds	r1, r3, #1
    1c6e:	7351      	strb	r1, [r2, #13]
    1c70:	2b05      	cmp	r3, #5
    1c72:	d106      	bne.n	1c82 <ExecuteMainLoop+0xc42>
    1c74:	2300      	movs	r3, #0
    1c76:	7353      	strb	r3, [r2, #13]
    1c78:	4a60      	ldr	r2, [pc, #384]	; (1dfc <ExecuteMainLoop+0xdbc>)
    1c7a:	3430      	adds	r4, #48	; 0x30
    1c7c:	7023      	strb	r3, [r4, #0]
    1c7e:	7313      	strb	r3, [r2, #12]
    1c80:	e016      	b.n	1cb0 <ExecuteMainLoop+0xc70>
    1c82:	f000 ff8f 	bl	2ba4 <Initialize_Timers>
    1c86:	4865      	ldr	r0, [pc, #404]	; (1e1c <ExecuteMainLoop+0xddc>)
    1c88:	f002 fa10 	bl	40ac <PRINT_K>
    1c8c:	2200      	movs	r2, #0
    1c8e:	89a3      	ldrh	r3, [r4, #12]
    1c90:	8163      	strh	r3, [r4, #10]
    1c92:	4b61      	ldr	r3, [pc, #388]	; (1e18 <ExecuteMainLoop+0xdd8>)
    1c94:	601a      	str	r2, [r3, #0]
    1c96:	e00b      	b.n	1cb0 <ExecuteMainLoop+0xc70>
    1c98:	9b02      	ldr	r3, [sp, #8]
    1c9a:	2b01      	cmp	r3, #1
    1c9c:	d103      	bne.n	1ca6 <ExecuteMainLoop+0xc66>
    1c9e:	2200      	movs	r2, #0
    1ca0:	4b4e      	ldr	r3, [pc, #312]	; (1ddc <ExecuteMainLoop+0xd9c>)
    1ca2:	735a      	strb	r2, [r3, #13]
    1ca4:	e004      	b.n	1cb0 <ExecuteMainLoop+0xc70>
    1ca6:	9b02      	ldr	r3, [sp, #8]
    1ca8:	2b04      	cmp	r3, #4
    1caa:	d101      	bne.n	1cb0 <ExecuteMainLoop+0xc70>
    1cac:	2305      	movs	r3, #5
    1cae:	7333      	strb	r3, [r6, #12]
    1cb0:	4b57      	ldr	r3, [pc, #348]	; (1e10 <ExecuteMainLoop+0xdd0>)
    1cb2:	332f      	adds	r3, #47	; 0x2f
    1cb4:	781b      	ldrb	r3, [r3, #0]
    1cb6:	2b00      	cmp	r3, #0
    1cb8:	d101      	bne.n	1cbe <ExecuteMainLoop+0xc7e>
    1cba:	f7ff f9dd 	bl	1078 <ExecuteMainLoop+0x38>
    1cbe:	4b58      	ldr	r3, [pc, #352]	; (1e20 <ExecuteMainLoop+0xde0>)
    1cc0:	33d4      	adds	r3, #212	; 0xd4
    1cc2:	781b      	ldrb	r3, [r3, #0]
    1cc4:	2b00      	cmp	r3, #0
    1cc6:	d001      	beq.n	1ccc <ExecuteMainLoop+0xc8c>
    1cc8:	f7ff f9d6 	bl	1078 <ExecuteMainLoop+0x38>
    1ccc:	f7ff fbd5 	bl	147a <ExecuteMainLoop+0x43a>
    1cd0:	2201      	movs	r2, #1
    1cd2:	4b54      	ldr	r3, [pc, #336]	; (1e24 <ExecuteMainLoop+0xde4>)
    1cd4:	4854      	ldr	r0, [pc, #336]	; (1e28 <ExecuteMainLoop+0xde8>)
    1cd6:	611a      	str	r2, [r3, #16]
    1cd8:	4a54      	ldr	r2, [pc, #336]	; (1e2c <ExecuteMainLoop+0xdec>)
    1cda:	4b55      	ldr	r3, [pc, #340]	; (1e30 <ExecuteMainLoop+0xdf0>)
    1cdc:	6fd1      	ldr	r1, [r2, #124]	; 0x7c
    1cde:	400b      	ands	r3, r1
    1ce0:	67d3      	str	r3, [r2, #124]	; 0x7c
    1ce2:	4a54      	ldr	r2, [pc, #336]	; (1e34 <ExecuteMainLoop+0xdf4>)
    1ce4:	2100      	movs	r1, #0
    1ce6:	1a12      	subs	r2, r2, r0
    1ce8:	1092      	asrs	r2, r2, #2
    1cea:	f004 f9a9 	bl	6040 <memset>
    1cee:	2300      	movs	r3, #0
    1cf0:	001f      	movs	r7, r3
    1cf2:	001c      	movs	r4, r3
    1cf4:	001d      	movs	r5, r3
    1cf6:	4a50      	ldr	r2, [pc, #320]	; (1e38 <ExecuteMainLoop+0xdf8>)
    1cf8:	8013      	strh	r3, [r2, #0]
    1cfa:	4a50      	ldr	r2, [pc, #320]	; (1e3c <ExecuteMainLoop+0xdfc>)
    1cfc:	8013      	strh	r3, [r2, #0]
    1cfe:	2380      	movs	r3, #128	; 0x80
    1d00:	2255      	movs	r2, #85	; 0x55
    1d02:	05db      	lsls	r3, r3, #23
    1d04:	2680      	movs	r6, #128	; 0x80
    1d06:	21aa      	movs	r1, #170	; 0xaa
    1d08:	05f6      	lsls	r6, r6, #23
    1d0a:	6099      	str	r1, [r3, #8]
    1d0c:	609a      	str	r2, [r3, #8]
    1d0e:	2d00      	cmp	r5, #0
    1d10:	d118      	bne.n	1d44 <ExecuteMainLoop+0xd04>
    1d12:	2343      	movs	r3, #67	; 0x43
    1d14:	2042      	movs	r0, #66	; 0x42
    1d16:	ae56      	add	r6, sp, #344	; 0x158
    1d18:	7033      	strb	r3, [r6, #0]
    1d1a:	30ff      	adds	r0, #255	; 0xff
    1d1c:	ab06      	add	r3, sp, #24
    1d1e:	18c0      	adds	r0, r0, r3
    1d20:	4932      	ldr	r1, [pc, #200]	; (1dec <ExecuteMainLoop+0xdac>)
    1d22:	f004 fd49 	bl	67b8 <strcpy>
    1d26:	0030      	movs	r0, r6
    1d28:	f004 fd68 	bl	67fc <strlen>
    1d2c:	002a      	movs	r2, r5
    1d2e:	b281      	uxth	r1, r0
    1d30:	0030      	movs	r0, r6
    1d32:	f000 ff7f 	bl	2c34 <Send_MessageToServer>
    1d36:	4942      	ldr	r1, [pc, #264]	; (1e40 <ExecuteMainLoop+0xe00>)
    1d38:	a816      	add	r0, sp, #88	; 0x58
    1d3a:	f002 fa51 	bl	41e0 <Set_Timer>
    1d3e:	2307      	movs	r3, #7
    1d40:	9304      	str	r3, [sp, #16]
    1d42:	e014      	b.n	1d6e <ExecuteMainLoop+0xd2e>
    1d44:	2d02      	cmp	r5, #2
    1d46:	d1dd      	bne.n	1d04 <ExecuteMainLoop+0xcc4>
    1d48:	a806      	add	r0, sp, #24
    1d4a:	f002 f9bf 	bl	40cc <XModemReadByte>
    1d4e:	9001      	str	r0, [sp, #4]
    1d50:	2800      	cmp	r0, #0
    1d52:	d100      	bne.n	1d56 <ExecuteMainLoop+0xd16>
    1d54:	e0e6      	b.n	1f24 <ExecuteMainLoop+0xee4>
    1d56:	2c00      	cmp	r4, #0
    1d58:	d135      	bne.n	1dc6 <ExecuteMainLoop+0xd86>
    1d5a:	ab06      	add	r3, sp, #24
    1d5c:	781d      	ldrb	r5, [r3, #0]
    1d5e:	2d01      	cmp	r5, #1
    1d60:	d107      	bne.n	1d72 <ExecuteMainLoop+0xd32>
    1d62:	21fa      	movs	r1, #250	; 0xfa
    1d64:	a816      	add	r0, sp, #88	; 0x58
    1d66:	00c9      	lsls	r1, r1, #3
    1d68:	f002 fa3a 	bl	41e0 <Set_Timer>
    1d6c:	002c      	movs	r4, r5
    1d6e:	2502      	movs	r5, #2
    1d70:	e7c5      	b.n	1cfe <ExecuteMainLoop+0xcbe>
    1d72:	2d04      	cmp	r5, #4
    1d74:	d000      	beq.n	1d78 <ExecuteMainLoop+0xd38>
    1d76:	e75a      	b.n	1c2e <ExecuteMainLoop+0xbee>
    1d78:	f000 ff32 	bl	2be0 <Gsm_CloseSocket>
    1d7c:	ab0e      	add	r3, sp, #56	; 0x38
    1d7e:	1918      	adds	r0, r3, r4
    1d80:	3401      	adds	r4, #1
    1d82:	f002 f9a3 	bl	40cc <XModemReadByte>
    1d86:	2c08      	cmp	r4, #8
    1d88:	d1f8      	bne.n	1d7c <ExecuteMainLoop+0xd3c>
    1d8a:	9b0e      	ldr	r3, [sp, #56]	; 0x38
    1d8c:	482d      	ldr	r0, [pc, #180]	; (1e44 <ExecuteMainLoop+0xe04>)
    1d8e:	ba1e      	rev	r6, r3
    1d90:	9b0f      	ldr	r3, [sp, #60]	; 0x3c
    1d92:	ba1d      	rev	r5, r3
    1d94:	f002 f98a 	bl	40ac <PRINT_K>
    1d98:	2000      	movs	r0, #0
    1d9a:	9608      	str	r6, [sp, #32]
    1d9c:	950b      	str	r5, [sp, #44]	; 0x2c
    1d9e:	f002 fe29 	bl	49f4 <SST25_WriteSR>
    1da2:	22f0      	movs	r2, #240	; 0xf0
    1da4:	2104      	movs	r1, #4
    1da6:	0312      	lsls	r2, r2, #12
    1da8:	a808      	add	r0, sp, #32
    1daa:	f002 fde3 	bl	4974 <SST25_WriteArray>
    1dae:	4a26      	ldr	r2, [pc, #152]	; (1e48 <ExecuteMainLoop+0xe08>)
    1db0:	2104      	movs	r1, #4
    1db2:	a80b      	add	r0, sp, #44	; 0x2c
    1db4:	f002 fdde 	bl	4974 <SST25_WriteArray>
    1db8:	0020      	movs	r0, r4
    1dba:	f002 fe1b 	bl	49f4 <SST25_WriteSR>
    1dbe:	2000      	movs	r0, #0
    1dc0:	f002 fe18 	bl	49f4 <SST25_WriteSR>
    1dc4:	e733      	b.n	1c2e <ExecuteMainLoop+0xbee>
    1dc6:	2c01      	cmp	r4, #1
    1dc8:	d140      	bne.n	1e4c <ExecuteMainLoop+0xe0c>
    1dca:	ab06      	add	r3, sp, #24
    1dcc:	781f      	ldrb	r7, [r3, #0]
    1dce:	e7cd      	b.n	1d6c <ExecuteMainLoop+0xd2c>
    1dd0:	10000c44 	.word	0x10000c44
    1dd4:	000e0fff 	.word	0x000e0fff
    1dd8:	0000023f 	.word	0x0000023f
    1ddc:	100003b4 	.word	0x100003b4
    1de0:	0000223b 	.word	0x0000223b
    1de4:	00002246 	.word	0x00002246
    1de8:	000021df 	.word	0x000021df
    1dec:	10000896 	.word	0x10000896
    1df0:	00007530 	.word	0x00007530
    1df4:	100004c4 	.word	0x100004c4
    1df8:	000afc80 	.word	0x000afc80
    1dfc:	100002b4 	.word	0x100002b4
    1e00:	100004d0 	.word	0x100004d0
    1e04:	100004e8 	.word	0x100004e8
    1e08:	00002249 	.word	0x00002249
    1e0c:	100008dc 	.word	0x100008dc
    1e10:	10000888 	.word	0x10000888
    1e14:	0000225a 	.word	0x0000225a
    1e18:	100004f4 	.word	0x100004f4
    1e1c:	0000226a 	.word	0x0000226a
    1e20:	10000738 	.word	0x10000738
    1e24:	4006c000 	.word	0x4006c000
    1e28:	10000b0c 	.word	0x10000b0c
    1e2c:	40048004 	.word	0x40048004
    1e30:	25eeffff 	.word	0x25eeffff
    1e34:	1000132a 	.word	0x1000132a
    1e38:	10000f0e 	.word	0x10000f0e
    1e3c:	10000f0c 	.word	0x10000f0c
    1e40:	00002710 	.word	0x00002710
    1e44:	0000228f 	.word	0x0000228f
    1e48:	000f0004 	.word	0x000f0004
    1e4c:	2c02      	cmp	r4, #2
    1e4e:	d106      	bne.n	1e5e <ExecuteMainLoop+0xe1e>
    1e50:	aa06      	add	r2, sp, #24
    1e52:	023b      	lsls	r3, r7, #8
    1e54:	7812      	ldrb	r2, [r2, #0]
    1e56:	b29b      	uxth	r3, r3
    1e58:	4313      	orrs	r3, r2
    1e5a:	001f      	movs	r7, r3
    1e5c:	e060      	b.n	1f20 <ExecuteMainLoop+0xee0>
    1e5e:	4a44      	ldr	r2, [pc, #272]	; (1f70 <ExecuteMainLoop+0xf30>)
    1e60:	4b44      	ldr	r3, [pc, #272]	; (1f74 <ExecuteMainLoop+0xf34>)
    1e62:	4294      	cmp	r4, r2
    1e64:	d104      	bne.n	1e70 <ExecuteMainLoop+0xe30>
    1e66:	aa06      	add	r2, sp, #24
    1e68:	7812      	ldrb	r2, [r2, #0]
    1e6a:	001c      	movs	r4, r3
    1e6c:	9205      	str	r2, [sp, #20]
    1e6e:	e77e      	b.n	1d6e <ExecuteMainLoop+0xd2e>
    1e70:	429c      	cmp	r4, r3
    1e72:	d14f      	bne.n	1f14 <ExecuteMainLoop+0xed4>
    1e74:	2180      	movs	r1, #128	; 0x80
    1e76:	9b05      	ldr	r3, [sp, #20]
    1e78:	aa06      	add	r2, sp, #24
    1e7a:	7812      	ldrb	r2, [r2, #0]
    1e7c:	021b      	lsls	r3, r3, #8
    1e7e:	4c3e      	ldr	r4, [pc, #248]	; (1f78 <ExecuteMainLoop+0xf38>)
    1e80:	b29b      	uxth	r3, r3
    1e82:	4313      	orrs	r3, r2
    1e84:	00c9      	lsls	r1, r1, #3
    1e86:	0020      	movs	r0, r4
    1e88:	9305      	str	r3, [sp, #20]
    1e8a:	f002 f8cf 	bl	402c <crc16>
    1e8e:	9b05      	ldr	r3, [sp, #20]
    1e90:	4283      	cmp	r3, r0
    1e92:	d125      	bne.n	1ee0 <ExecuteMainLoop+0xea0>
    1e94:	2120      	movs	r1, #32
    1e96:	2306      	movs	r3, #6
    1e98:	aa06      	add	r2, sp, #24
    1e9a:	1852      	adds	r2, r2, r1
    1e9c:	7013      	strb	r3, [r2, #0]
    1e9e:	391f      	subs	r1, #31
    1ea0:	2200      	movs	r2, #0
    1ea2:	a80e      	add	r0, sp, #56	; 0x38
    1ea4:	f000 fec6 	bl	2c34 <Send_MessageToServer>
    1ea8:	23aa      	movs	r3, #170	; 0xaa
    1eaa:	60b3      	str	r3, [r6, #8]
    1eac:	3b55      	subs	r3, #85	; 0x55
    1eae:	60b3      	str	r3, [r6, #8]
    1eb0:	4832      	ldr	r0, [pc, #200]	; (1f7c <ExecuteMainLoop+0xf3c>)
    1eb2:	f002 f8fb 	bl	40ac <PRINT_K>
    1eb6:	0038      	movs	r0, r7
    1eb8:	f002 f8e2 	bl	4080 <PRINT_INT>
    1ebc:	2000      	movs	r0, #0
    1ebe:	f002 fd99 	bl	49f4 <SST25_WriteSR>
    1ec2:	2180      	movs	r1, #128	; 0x80
    1ec4:	4b2e      	ldr	r3, [pc, #184]	; (1f80 <ExecuteMainLoop+0xf40>)
    1ec6:	00c9      	lsls	r1, r1, #3
    1ec8:	18fa      	adds	r2, r7, r3
    1eca:	0292      	lsls	r2, r2, #10
    1ecc:	0020      	movs	r0, r4
    1ece:	f002 fd51 	bl	4974 <SST25_WriteArray>
    1ed2:	2008      	movs	r0, #8
    1ed4:	f002 fd8e 	bl	49f4 <SST25_WriteSR>
    1ed8:	482a      	ldr	r0, [pc, #168]	; (1f84 <ExecuteMainLoop+0xf44>)
    1eda:	f002 f8e7 	bl	40ac <PRINT_K>
    1ede:	e017      	b.n	1f10 <ExecuteMainLoop+0xed0>
    1ee0:	9b04      	ldr	r3, [sp, #16]
    1ee2:	1e5c      	subs	r4, r3, #1
    1ee4:	b2a4      	uxth	r4, r4
    1ee6:	2b00      	cmp	r3, #0
    1ee8:	d100      	bne.n	1eec <ExecuteMainLoop+0xeac>
    1eea:	e6a0      	b.n	1c2e <ExecuteMainLoop+0xbee>
    1eec:	2120      	movs	r1, #32
    1eee:	2315      	movs	r3, #21
    1ef0:	aa06      	add	r2, sp, #24
    1ef2:	1852      	adds	r2, r2, r1
    1ef4:	4824      	ldr	r0, [pc, #144]	; (1f88 <ExecuteMainLoop+0xf48>)
    1ef6:	7013      	strb	r3, [r2, #0]
    1ef8:	f002 f8d8 	bl	40ac <PRINT_K>
    1efc:	2200      	movs	r2, #0
    1efe:	2101      	movs	r1, #1
    1f00:	a80e      	add	r0, sp, #56	; 0x38
    1f02:	f000 fe97 	bl	2c34 <Send_MessageToServer>
    1f06:	2100      	movs	r1, #0
    1f08:	2064      	movs	r0, #100	; 0x64
    1f0a:	f000 fedf 	bl	2ccc <Delay>
    1f0e:	9404      	str	r4, [sp, #16]
    1f10:	2400      	movs	r4, #0
    1f12:	e72c      	b.n	1d6e <ExecuteMainLoop+0xd2e>
    1f14:	4b18      	ldr	r3, [pc, #96]	; (1f78 <ExecuteMainLoop+0xf38>)
    1f16:	aa06      	add	r2, sp, #24
    1f18:	191b      	adds	r3, r3, r4
    1f1a:	7812      	ldrb	r2, [r2, #0]
    1f1c:	3b03      	subs	r3, #3
    1f1e:	701a      	strb	r2, [r3, #0]
    1f20:	3401      	adds	r4, #1
    1f22:	e724      	b.n	1d6e <ExecuteMainLoop+0xd2e>
    1f24:	a816      	add	r0, sp, #88	; 0x58
    1f26:	f002 f93d 	bl	41a4 <mn_timer_expired>
    1f2a:	2800      	cmp	r0, #0
    1f2c:	d100      	bne.n	1f30 <ExecuteMainLoop+0xef0>
    1f2e:	e71e      	b.n	1d6e <ExecuteMainLoop+0xd2e>
    1f30:	23aa      	movs	r3, #170	; 0xaa
    1f32:	60b3      	str	r3, [r6, #8]
    1f34:	3b55      	subs	r3, #85	; 0x55
    1f36:	60b3      	str	r3, [r6, #8]
    1f38:	9b04      	ldr	r3, [sp, #16]
    1f3a:	1e5c      	subs	r4, r3, #1
    1f3c:	b2a4      	uxth	r4, r4
    1f3e:	2b00      	cmp	r3, #0
    1f40:	d100      	bne.n	1f44 <ExecuteMainLoop+0xf04>
    1f42:	e674      	b.n	1c2e <ExecuteMainLoop+0xbee>
    1f44:	4811      	ldr	r0, [pc, #68]	; (1f8c <ExecuteMainLoop+0xf4c>)
    1f46:	f002 f8b1 	bl	40ac <PRINT_K>
    1f4a:	2315      	movs	r3, #21
    1f4c:	a80e      	add	r0, sp, #56	; 0x38
    1f4e:	9a01      	ldr	r2, [sp, #4]
    1f50:	2101      	movs	r1, #1
    1f52:	7003      	strb	r3, [r0, #0]
    1f54:	f000 fe6e 	bl	2c34 <Send_MessageToServer>
    1f58:	21fa      	movs	r1, #250	; 0xfa
    1f5a:	a816      	add	r0, sp, #88	; 0x58
    1f5c:	00c9      	lsls	r1, r1, #3
    1f5e:	f002 f93f 	bl	41e0 <Set_Timer>
    1f62:	9404      	str	r4, [sp, #16]
    1f64:	9c01      	ldr	r4, [sp, #4]
    1f66:	e702      	b.n	1d6e <ExecuteMainLoop+0xd2e>
    1f68:	2399      	movs	r3, #153	; 0x99
    1f6a:	009b      	lsls	r3, r3, #2
    1f6c:	449d      	add	sp, r3
    1f6e:	bdf0      	pop	{r4, r5, r6, r7, pc}
    1f70:	00000403 	.word	0x00000403
    1f74:	00000404 	.word	0x00000404
    1f78:	10000b0c 	.word	0x10000b0c
    1f7c:	000022a4 	.word	0x000022a4
    1f80:	000003df 	.word	0x000003df
    1f84:	000022b5 	.word	0x000022b5
    1f88:	000022bc 	.word	0x000022bc
    1f8c:	000022ce 	.word	0x000022ce

00001f90 <Command_RESET>:
    1f90:	432b5441 3d4e5546 0d312c31 45544100              AT+CFUN=1,1..

00001f9d <Command_ATE0>:
    1f9d:	30455441 4d432b3b 313d4545 4c53233b     ATE0;+CMEE=1;#SL
    1fad:	333d4445 372c332c 52432b3b 303d4745     ED=3,3,7;+CREG=0
    1fbd:	47432b3b 3d474552 432b3b30 3d444e49     ;+CGREG=0;+CIND=
    1fcd:	2c302c30 2c302c30 2c302c30 2c302c30     0,0,0,0,0,0,0,0,
    1fdd:	432b3b30 3d494d4e 2c312c32 2c302c30     0;+CNMI=2,1,0,0,
    1fed:	432b3b30 3d46474d 41000d31                       0;+CMGF=1..

00001ff8 <Command_AT>:
    1ff8:	000d5441                                AT..

00001ffc <Command_CGSN>:
    1ffc:	432b5441 0d4e5347 2b544100                       AT+CGSN..

00002005 <Command_CPIN>:
    2005:	432b5441 3f4e4950 4552000d                       AT+CPIN?..

0000200f <RespReady>:
    200f:	44414552 54410059                                READY.

00002015 <Command_CIMI>:
    2015:	432b5441 0d494d49 2b544100                       AT+CIMI..

0000201e <Command_CMER>:
    201e:	432b5441 3d52454d 2c302c32 2c322c30     AT+CMER=2,0,0,2,
    202e:	41000d30                                         0..

00002031 <Command_CREG>:
    2031:	432b5441 3f474552 5441000d                       AT+CREG?..

0000203b <Command_DefinePDP>:
    203b:	432b5441 4f434447 313d544e 5049222c     AT+CGDCONT=1,"IP
    204b:	00222c22                                ",".

0000204f <Command_ActivatePDP>:
    204f:	53235441 54434147 312c313d 4100222c              AT#SGACT=1,1,".

0000205e <Command_SCFG>:
    205e:	53235441 3d474643 2c312c31 2c303033     AT#SCFG=1,1,300,
    206e:	2c303834 2c303031 41000d31                       480,100,1..

00002079 <Command_SCFGEXT>:
    2079:	53235441 45474643 313d5458 302c302c     AT#SCFGEXT=1,0,0
    2089:	302c302c 000d302c 776f500a 4f2d7265     ,0,0,0...Power-O
    2099:	6f4d206e 656c7564 3252000a 74373732     n Module..R2277t
    20a9:	70413b73 33312072 31303220 0a003b37     s;Apr 13 2017;..
    20b9:	75646f4d 7320656c 2d74666f 65736572     Module soft-rese
    20c9:	45000a74 206f6863 61736964 0a656c62     t..Echo disable.
    20d9:	696e4900 6d202e74 6c75646f 0a000a65     .Init. module...
    20e9:	49454d49 0a00203a 64616552 4e495020     IMEI: ..Read PIN
    20f9:	490a000a 3a49534d 570a0020 69746961     ...IMSI: ..Waiti
    2109:	4720676e 52204d53 73696765 74617274     ng GSM Registrat
    2119:	2e6e6f69 000a2e2e 69676552 72657473     ion.....Register
    2129:	000a6465 6d616f52 20676e69 6f6c6c61     ed..Roaming allo
    2139:	0a646577 616f5200 676e696d 746f6e20     wed..Roaming not
    2149:	6c6c612d 6465776f 6550000a 646f6972     -allowed..Period
    2159:	63206369 6b636568 206e6920 6d616f72     ic check in roam
    2169:	0a676e69 000d2200 69746341 65746176     ing.."..Activate
    2179:	50445020 002e2e2e 00222c22 41475323      PDP....",".#SGA
    2189:	41005443 63617474 20646568 47206f74     CT.Attached to G
    2199:	0a535250 54535b00 543b003b 3b002d30     PRS..[ST;.;T0-.;
    21a9:	52524f50 005d5453 5458453b 5d545352     PORRST].;EXTRST]
    21b9:	44573b00 54535254 423b005d 5352444f     .;WDTRST].;BODRS
    21c9:	3b005d54 52535953 005d5453 4345523b     T].;SYSRST].;REC
    21d9:	454e4e4f 005d5443 6e65530a 65702064     ONNECT]..Send pe
    21e9:	646f6972 64206369 0a617461 65530a00     riodic data...Se
    21f9:	4b20646e 2d706565 76696c41 0a000a65     nd Keep-Alive...
    2209:	64616552 20676e69 0a007830 20727245     Reading 0x..Err 
    2219:	430a0031 6572726f 0a007463 20435243     1..Correct..CRC 
    2229:	00727245 7272450a 0a003220 20727245     Err..Err 2..Err 
    2239:	530a0034 20646e65 0a676f4c 00545b00     4..Send Log..[T.
    2249:	7265500a 69646f69 68432063 0a6b6365     .Periodic Check.
    2259:	654e0a00 74206465 6572206f 0a746573     ..Need to reset.
    2269:	4f430a00 43454e4e 20444554 53204f54     ..CONNECTED TO S
    2279:	45565245 45522052 4e525554 45204445     ERVER RETURNED E
    2289:	524f5252 7257000a 6e697469 69732067     RROR..Writing si
    2299:	74616e67 2e657275 57002e2e 69746972     gnature....Writi
    22a9:	6620676e 656d6172 002e2e2e 6e6f4420     ng frame.... Don
    22b9:	43000a65 65204352 726f7272 4b414e20     e..CRC error NAK
    22c9:	0a676e69 63655200 6974202e 756f656d     ing..Rec. timeou
    22d9:	f0000a74                                         t..

000022dc <onIdle>:
    22dc:	b5f0      	push	{r4, r5, r6, r7, lr}
    22de:	4ca7      	ldr	r4, [pc, #668]	; (257c <onIdle+0x2a0>)
    22e0:	b08f      	sub	sp, #60	; 0x3c
    22e2:	2280      	movs	r2, #128	; 0x80
    22e4:	2100      	movs	r1, #0
    22e6:	0020      	movs	r0, r4
    22e8:	f003 feaa 	bl	6040 <memset>
    22ec:	230d      	movs	r3, #13
    22ee:	4da4      	ldr	r5, [pc, #656]	; (2580 <onIdle+0x2a4>)
    22f0:	9300      	str	r3, [sp, #0]
    22f2:	0022      	movs	r2, r4
    22f4:	3317      	adds	r3, #23
    22f6:	0029      	movs	r1, r5
    22f8:	48a2      	ldr	r0, [pc, #648]	; (2584 <onIdle+0x2a8>)
    22fa:	f001 ff83 	bl	4204 <Get_UartLine.constprop.38>
    22fe:	002f      	movs	r7, r5
    2300:	2800      	cmp	r0, #0
    2302:	d100      	bne.n	2306 <onIdle+0x2a>
    2304:	e131      	b.n	256a <onIdle+0x28e>
    2306:	2207      	movs	r2, #7
    2308:	2100      	movs	r1, #0
    230a:	a809      	add	r0, sp, #36	; 0x24
    230c:	f003 fe98 	bl	6040 <memset>
    2310:	2206      	movs	r2, #6
    2312:	0021      	movs	r1, r4
    2314:	a809      	add	r0, sp, #36	; 0x24
    2316:	f004 fa9b 	bl	6850 <strncpy>
    231a:	2300      	movs	r3, #0
    231c:	752b      	strb	r3, [r5, #20]
    231e:	4d9a      	ldr	r5, [pc, #616]	; (2588 <onIdle+0x2ac>)
    2320:	002e      	movs	r6, r5
    2322:	a909      	add	r1, sp, #36	; 0x24
    2324:	6828      	ldr	r0, [r5, #0]
    2326:	f004 fa25 	bl	6774 <strcmp>
    232a:	2800      	cmp	r0, #0
    232c:	d105      	bne.n	233a <onIdle+0x5e>
    232e:	0039      	movs	r1, r7
    2330:	686b      	ldr	r3, [r5, #4]
    2332:	3114      	adds	r1, #20
    2334:	0020      	movs	r0, r4
    2336:	4798      	blx	r3
    2338:	e004      	b.n	2344 <onIdle+0x68>
    233a:	0033      	movs	r3, r6
    233c:	3508      	adds	r5, #8
    233e:	3318      	adds	r3, #24
    2340:	429d      	cmp	r5, r3
    2342:	d1ee      	bne.n	2322 <onIdle+0x46>
    2344:	7d3d      	ldrb	r5, [r7, #20]
    2346:	2d01      	cmp	r5, #1
    2348:	d000      	beq.n	234c <onIdle+0x70>
    234a:	e10e      	b.n	256a <onIdle+0x28e>
    234c:	0020      	movs	r0, r4
    234e:	f001 fead 	bl	40ac <PRINT_K>
    2352:	4b8e      	ldr	r3, [pc, #568]	; (258c <onIdle+0x2b0>)
    2354:	701d      	strb	r5, [r3, #0]
    2356:	23a0      	movs	r3, #160	; 0xa0
    2358:	7efa      	ldrb	r2, [r7, #27]
    235a:	061b      	lsls	r3, r3, #24
    235c:	2a41      	cmp	r2, #65	; 0x41
    235e:	d000      	beq.n	2362 <onIdle+0x86>
    2360:	e101      	b.n	2566 <onIdle+0x28a>
    2362:	721d      	strb	r5, [r3, #8]
    2364:	4b8a      	ldr	r3, [pc, #552]	; (2590 <onIdle+0x2b4>)
    2366:	334c      	adds	r3, #76	; 0x4c
    2368:	781b      	ldrb	r3, [r3, #0]
    236a:	2b01      	cmp	r3, #1
    236c:	d102      	bne.n	2374 <onIdle+0x98>
    236e:	2000      	movs	r0, #0
    2370:	f002 f82a 	bl	43c8 <Init_TripInfo>
    2374:	4d87      	ldr	r5, [pc, #540]	; (2594 <onIdle+0x2b8>)
    2376:	2320      	movs	r3, #32
    2378:	5ef8      	ldrsh	r0, [r7, r3]
    237a:	213c      	movs	r1, #60	; 0x3c
    237c:	4368      	muls	r0, r5
    237e:	f7fd fe9f 	bl	c0 <__aeabi_idiv>
    2382:	231e      	movs	r3, #30
    2384:	5efc      	ldrsh	r4, [r7, r3]
    2386:	2106      	movs	r1, #6
    2388:	436c      	muls	r4, r5
    238a:	1904      	adds	r4, r0, r4
    238c:	6a78      	ldr	r0, [r7, #36]	; 0x24
    238e:	f7fd fe97 	bl	c0 <__aeabi_idiv>
    2392:	7f3b      	ldrb	r3, [r7, #28]
    2394:	1904      	adds	r4, r0, r4
    2396:	2b4e      	cmp	r3, #78	; 0x4e
    2398:	d000      	beq.n	239c <onIdle+0xc0>
    239a:	4264      	negs	r4, r4
    239c:	232c      	movs	r3, #44	; 0x2c
    239e:	5ef8      	ldrsh	r0, [r7, r3]
    23a0:	213c      	movs	r1, #60	; 0x3c
    23a2:	67bc      	str	r4, [r7, #120]	; 0x78
    23a4:	4368      	muls	r0, r5
    23a6:	f7fd fe8b 	bl	c0 <__aeabi_idiv>
    23aa:	232a      	movs	r3, #42	; 0x2a
    23ac:	5efe      	ldrsh	r6, [r7, r3]
    23ae:	2106      	movs	r1, #6
    23b0:	436e      	muls	r6, r5
    23b2:	1986      	adds	r6, r0, r6
    23b4:	6b38      	ldr	r0, [r7, #48]	; 0x30
    23b6:	f7fd fe83 	bl	c0 <__aeabi_idiv>
    23ba:	003b      	movs	r3, r7
    23bc:	3328      	adds	r3, #40	; 0x28
    23be:	781b      	ldrb	r3, [r3, #0]
    23c0:	1986      	adds	r6, r0, r6
    23c2:	2b45      	cmp	r3, #69	; 0x45
    23c4:	d000      	beq.n	23c8 <onIdle+0xec>
    23c6:	4276      	negs	r6, r6
    23c8:	4b73      	ldr	r3, [pc, #460]	; (2598 <onIdle+0x2bc>)
    23ca:	67fe      	str	r6, [r7, #124]	; 0x7c
    23cc:	691d      	ldr	r5, [r3, #16]
    23ce:	2d00      	cmp	r5, #0
    23d0:	d100      	bne.n	23d4 <onIdle+0xf8>
    23d2:	e093      	b.n	24fc <onIdle+0x220>
    23d4:	2c00      	cmp	r4, #0
    23d6:	d100      	bne.n	23da <onIdle+0xfe>
    23d8:	e090      	b.n	24fc <onIdle+0x220>
    23da:	695b      	ldr	r3, [r3, #20]
    23dc:	9302      	str	r3, [sp, #8]
    23de:	2b00      	cmp	r3, #0
    23e0:	d100      	bne.n	23e4 <onIdle+0x108>
    23e2:	e08b      	b.n	24fc <onIdle+0x220>
    23e4:	2e00      	cmp	r6, #0
    23e6:	d100      	bne.n	23ea <onIdle+0x10e>
    23e8:	e088      	b.n	24fc <onIdle+0x220>
    23ea:	0020      	movs	r0, r4
    23ec:	f005 f83b 	bl	7466 <__aeabi_i2d>
    23f0:	4a6a      	ldr	r2, [pc, #424]	; (259c <onIdle+0x2c0>)
    23f2:	4b6b      	ldr	r3, [pc, #428]	; (25a0 <onIdle+0x2c4>)
    23f4:	f004 fcba 	bl	6d6c <__aeabi_dmul>
    23f8:	2200      	movs	r2, #0
    23fa:	4b6a      	ldr	r3, [pc, #424]	; (25a4 <onIdle+0x2c8>)
    23fc:	f004 fd74 	bl	6ee8 <__aeabi_ddiv>
    2400:	9004      	str	r0, [sp, #16]
    2402:	9105      	str	r1, [sp, #20]
    2404:	1b60      	subs	r0, r4, r5
    2406:	f005 f82e 	bl	7466 <__aeabi_i2d>
    240a:	4a64      	ldr	r2, [pc, #400]	; (259c <onIdle+0x2c0>)
    240c:	4b64      	ldr	r3, [pc, #400]	; (25a0 <onIdle+0x2c4>)
    240e:	f004 fcad 	bl	6d6c <__aeabi_dmul>
    2412:	2200      	movs	r2, #0
    2414:	4b63      	ldr	r3, [pc, #396]	; (25a4 <onIdle+0x2c8>)
    2416:	f004 fd67 	bl	6ee8 <__aeabi_ddiv>
    241a:	2200      	movs	r2, #0
    241c:	4b62      	ldr	r3, [pc, #392]	; (25a8 <onIdle+0x2cc>)
    241e:	f004 fca5 	bl	6d6c <__aeabi_dmul>
    2422:	0004      	movs	r4, r0
    2424:	000d      	movs	r5, r1
    2426:	f004 f8d1 	bl	65cc <sin>
    242a:	9006      	str	r0, [sp, #24]
    242c:	9107      	str	r1, [sp, #28]
    242e:	0020      	movs	r0, r4
    2430:	0029      	movs	r1, r5
    2432:	f004 f8cb 	bl	65cc <sin>
    2436:	0002      	movs	r2, r0
    2438:	000b      	movs	r3, r1
    243a:	9806      	ldr	r0, [sp, #24]
    243c:	9907      	ldr	r1, [sp, #28]
    243e:	f004 fc95 	bl	6d6c <__aeabi_dmul>
    2442:	9b02      	ldr	r3, [sp, #8]
    2444:	9006      	str	r0, [sp, #24]
    2446:	9107      	str	r1, [sp, #28]
    2448:	1af0      	subs	r0, r6, r3
    244a:	f005 f80c 	bl	7466 <__aeabi_i2d>
    244e:	4a53      	ldr	r2, [pc, #332]	; (259c <onIdle+0x2c0>)
    2450:	4b53      	ldr	r3, [pc, #332]	; (25a0 <onIdle+0x2c4>)
    2452:	f004 fc8b 	bl	6d6c <__aeabi_dmul>
    2456:	2200      	movs	r2, #0
    2458:	4b52      	ldr	r3, [pc, #328]	; (25a4 <onIdle+0x2c8>)
    245a:	f004 fd45 	bl	6ee8 <__aeabi_ddiv>
    245e:	2200      	movs	r2, #0
    2460:	4b51      	ldr	r3, [pc, #324]	; (25a8 <onIdle+0x2cc>)
    2462:	f004 fc83 	bl	6d6c <__aeabi_dmul>
    2466:	0004      	movs	r4, r0
    2468:	000d      	movs	r5, r1
    246a:	f004 f8af 	bl	65cc <sin>
    246e:	9002      	str	r0, [sp, #8]
    2470:	9103      	str	r1, [sp, #12]
    2472:	0020      	movs	r0, r4
    2474:	0029      	movs	r1, r5
    2476:	f004 f8a9 	bl	65cc <sin>
    247a:	0002      	movs	r2, r0
    247c:	000b      	movs	r3, r1
    247e:	9802      	ldr	r0, [sp, #8]
    2480:	9903      	ldr	r1, [sp, #12]
    2482:	f004 fc73 	bl	6d6c <__aeabi_dmul>
    2486:	0004      	movs	r4, r0
    2488:	000d      	movs	r5, r1
    248a:	9804      	ldr	r0, [sp, #16]
    248c:	9905      	ldr	r1, [sp, #20]
    248e:	f003 fe69 	bl	6164 <cos>
    2492:	0002      	movs	r2, r0
    2494:	000b      	movs	r3, r1
    2496:	0020      	movs	r0, r4
    2498:	0029      	movs	r1, r5
    249a:	f004 fc67 	bl	6d6c <__aeabi_dmul>
    249e:	0004      	movs	r4, r0
    24a0:	000d      	movs	r5, r1
    24a2:	9804      	ldr	r0, [sp, #16]
    24a4:	9905      	ldr	r1, [sp, #20]
    24a6:	f003 fe5d 	bl	6164 <cos>
    24aa:	0002      	movs	r2, r0
    24ac:	000b      	movs	r3, r1
    24ae:	0020      	movs	r0, r4
    24b0:	0029      	movs	r1, r5
    24b2:	f004 fc5b 	bl	6d6c <__aeabi_dmul>
    24b6:	9a06      	ldr	r2, [sp, #24]
    24b8:	9b07      	ldr	r3, [sp, #28]
    24ba:	f004 fe9f 	bl	71fc <__aeabi_dadd>
    24be:	0004      	movs	r4, r0
    24c0:	000d      	movs	r5, r1
    24c2:	f004 f89f 	bl	6604 <sqrt>
    24c6:	0022      	movs	r2, r4
    24c8:	002b      	movs	r3, r5
    24ca:	9002      	str	r0, [sp, #8]
    24cc:	9103      	str	r1, [sp, #12]
    24ce:	2000      	movs	r0, #0
    24d0:	4936      	ldr	r1, [pc, #216]	; (25ac <onIdle+0x2d0>)
    24d2:	f004 fdaf 	bl	7034 <__aeabi_dsub>
    24d6:	f004 f895 	bl	6604 <sqrt>
    24da:	0002      	movs	r2, r0
    24dc:	000b      	movs	r3, r1
    24de:	9802      	ldr	r0, [sp, #8]
    24e0:	9903      	ldr	r1, [sp, #12]
    24e2:	f003 fdb5 	bl	6050 <atan2>
    24e6:	0002      	movs	r2, r0
    24e8:	000b      	movs	r3, r1
    24ea:	f004 fe87 	bl	71fc <__aeabi_dadd>
    24ee:	2200      	movs	r2, #0
    24f0:	4b2f      	ldr	r3, [pc, #188]	; (25b0 <onIdle+0x2d4>)
    24f2:	f004 fc3b 	bl	6d6c <__aeabi_dmul>
    24f6:	0004      	movs	r4, r0
    24f8:	000d      	movs	r5, r1
    24fa:	e001      	b.n	2500 <onIdle+0x224>
    24fc:	2400      	movs	r4, #0
    24fe:	2500      	movs	r5, #0
    2500:	4b2c      	ldr	r3, [pc, #176]	; (25b4 <onIdle+0x2d8>)
    2502:	4e25      	ldr	r6, [pc, #148]	; (2598 <onIdle+0x2bc>)
    2504:	781b      	ldrb	r3, [r3, #0]
    2506:	62b4      	str	r4, [r6, #40]	; 0x28
    2508:	62f5      	str	r5, [r6, #44]	; 0x2c
    250a:	2b00      	cmp	r3, #0
    250c:	d019      	beq.n	2542 <onIdle+0x266>
    250e:	8eba      	ldrh	r2, [r7, #52]	; 0x34
    2510:	4b29      	ldr	r3, [pc, #164]	; (25b8 <onIdle+0x2dc>)
    2512:	4353      	muls	r3, r2
    2514:	4a29      	ldr	r2, [pc, #164]	; (25bc <onIdle+0x2e0>)
    2516:	4293      	cmp	r3, r2
    2518:	dd13      	ble.n	2542 <onIdle+0x266>
    251a:	4929      	ldr	r1, [pc, #164]	; (25c0 <onIdle+0x2e4>)
    251c:	0022      	movs	r2, r4
    251e:	6808      	ldr	r0, [r1, #0]
    2520:	6849      	ldr	r1, [r1, #4]
    2522:	002b      	movs	r3, r5
    2524:	f004 fe6a 	bl	71fc <__aeabi_dadd>
    2528:	4b25      	ldr	r3, [pc, #148]	; (25c0 <onIdle+0x2e4>)
    252a:	6018      	str	r0, [r3, #0]
    252c:	6059      	str	r1, [r3, #4]
    252e:	6b30      	ldr	r0, [r6, #48]	; 0x30
    2530:	f005 fa2c 	bl	798c <__aeabi_f2d>
    2534:	0022      	movs	r2, r4
    2536:	002b      	movs	r3, r5
    2538:	f004 fe60 	bl	71fc <__aeabi_dadd>
    253c:	f004 fef6 	bl	732c <__aeabi_d2f>
    2540:	6330      	str	r0, [r6, #48]	; 0x30
    2542:	003b      	movs	r3, r7
    2544:	3388      	adds	r3, #136	; 0x88
    2546:	6818      	ldr	r0, [r3, #0]
    2548:	6859      	ldr	r1, [r3, #4]
    254a:	f004 ff21 	bl	7390 <__aeabi_d2iz>
    254e:	a909      	add	r1, sp, #36	; 0x24
    2550:	220a      	movs	r2, #10
    2552:	f003 ff2b 	bl	63ac <itoa>
    2556:	0039      	movs	r1, r7
    2558:	480f      	ldr	r0, [pc, #60]	; (2598 <onIdle+0x2bc>)
    255a:	3178      	adds	r1, #120	; 0x78
    255c:	2218      	movs	r2, #24
    255e:	3010      	adds	r0, #16
    2560:	f003 fd6a 	bl	6038 <memcpy>
    2564:	e001      	b.n	256a <onIdle+0x28e>
    2566:	2200      	movs	r2, #0
    2568:	721a      	strb	r2, [r3, #8]
    256a:	f001 ffbb 	bl	44e4 <Trio_StatusTask>
    256e:	f002 fb27 	bl	4bc0 <Trio_SPITask>
    2572:	f001 fe80 	bl	4276 <Trio_DebugPortTask>
    2576:	b00f      	add	sp, #60	; 0x3c
    2578:	bdf0      	pop	{r4, r5, r6, r7, pc}
    257a:	46c0      	nop			; (mov r8, r8)
    257c:	10000b10 	.word	0x10000b10
    2580:	10000b90 	.word	0x10000b90
    2584:	4006c000 	.word	0x4006c000
    2588:	10000008 	.word	0x10000008
    258c:	100004f8 	.word	0x100004f8
    2590:	100006b4 	.word	0x100006b4
    2594:	000186a0 	.word	0x000186a0
    2598:	10000c10 	.word	0x10000c10
    259c:	a1fae711 	.word	0xa1fae711
    25a0:	3f91df46 	.word	0x3f91df46
    25a4:	40f86a00 	.word	0x40f86a00
    25a8:	3fe00000 	.word	0x3fe00000
    25ac:	3ff00000 	.word	0x3ff00000
    25b0:	41584dae 	.word	0x41584dae
    25b4:	10000718 	.word	0x10000718
    25b8:	0000073c 	.word	0x0000073c
    25bc:	00000bb7 	.word	0x00000bb7
    25c0:	10000c18 	.word	0x10000c18

000025c4 <Get_ValueByParamIndex>:
    25c4:	b570      	push	{r4, r5, r6, lr}
    25c6:	0004      	movs	r4, r0
    25c8:	b0a0      	sub	sp, #128	; 0x80
    25ca:	2280      	movs	r2, #128	; 0x80
    25cc:	000e      	movs	r6, r1
    25ce:	4668      	mov	r0, sp
    25d0:	2100      	movs	r1, #0
    25d2:	f003 fd35 	bl	6040 <memset>
    25d6:	0021      	movs	r1, r4
    25d8:	2280      	movs	r2, #128	; 0x80
    25da:	4668      	mov	r0, sp
    25dc:	f003 fd2c 	bl	6038 <memcpy>
    25e0:	2120      	movs	r1, #32
    25e2:	4668      	mov	r0, sp
    25e4:	f004 f8bb 	bl	675e <strchr>
    25e8:	2800      	cmp	r0, #0
    25ea:	d101      	bne.n	25f0 <Get_ValueByParamIndex+0x2c>
    25ec:	2000      	movs	r0, #0
    25ee:	e011      	b.n	2614 <Get_ValueByParamIndex+0x50>
    25f0:	4c09      	ldr	r4, [pc, #36]	; (2618 <Get_ValueByParamIndex+0x54>)
    25f2:	2500      	movs	r5, #0
    25f4:	0021      	movs	r1, r4
    25f6:	f004 f969 	bl	68cc <strtok>
    25fa:	2800      	cmp	r0, #0
    25fc:	d0f6      	beq.n	25ec <Get_ValueByParamIndex+0x28>
    25fe:	3501      	adds	r5, #1
    2600:	42b5      	cmp	r5, r6
    2602:	d102      	bne.n	260a <Get_ValueByParamIndex+0x46>
    2604:	f003 ffd6 	bl	65b4 <atoi>
    2608:	e004      	b.n	2614 <Get_ValueByParamIndex+0x50>
    260a:	0021      	movs	r1, r4
    260c:	2000      	movs	r0, #0
    260e:	f004 f95d 	bl	68cc <strtok>
    2612:	e7f2      	b.n	25fa <Get_ValueByParamIndex+0x36>
    2614:	b020      	add	sp, #128	; 0x80
    2616:	bd70      	pop	{r4, r5, r6, pc}
    2618:	00002f64 	.word	0x00002f64

0000261c <Get_TcpDataSegment>:
    261c:	b570      	push	{r4, r5, r6, lr}
    261e:	0016      	movs	r6, r2
    2620:	2296      	movs	r2, #150	; 0x96
    2622:	000c      	movs	r4, r1
    2624:	0005      	movs	r5, r0
    2626:	b0de      	sub	sp, #376	; 0x178
    2628:	0052      	lsls	r2, r2, #1
    262a:	2100      	movs	r1, #0
    262c:	a813      	add	r0, sp, #76	; 0x4c
    262e:	f003 fd07 	bl	6040 <memset>
    2632:	2240      	movs	r2, #64	; 0x40
    2634:	2100      	movs	r1, #0
    2636:	a803      	add	r0, sp, #12
    2638:	f003 fd02 	bl	6040 <memset>
    263c:	0022      	movs	r2, r4
    263e:	2100      	movs	r1, #0
    2640:	0028      	movs	r0, r5
    2642:	f003 fcfd 	bl	6040 <memset>
    2646:	220a      	movs	r2, #10
    2648:	a901      	add	r1, sp, #4
    264a:	0020      	movs	r0, r4
    264c:	f003 feae 	bl	63ac <itoa>
    2650:	4c1b      	ldr	r4, [pc, #108]	; (26c0 <Get_TcpDataSegment+0xa4>)
    2652:	a803      	add	r0, sp, #12
    2654:	0021      	movs	r1, r4
    2656:	f004 f875 	bl	6744 <strcat>
    265a:	a901      	add	r1, sp, #4
    265c:	a803      	add	r0, sp, #12
    265e:	f004 f871 	bl	6744 <strcat>
    2662:	4918      	ldr	r1, [pc, #96]	; (26c4 <Get_TcpDataSegment+0xa8>)
    2664:	a803      	add	r0, sp, #12
    2666:	f004 f86d 	bl	6744 <strcat>
    266a:	4917      	ldr	r1, [pc, #92]	; (26c8 <Get_TcpDataSegment+0xac>)
    266c:	a803      	add	r0, sp, #12
    266e:	f003 fc6f 	bl	5f50 <Send_ATCommand>
    2672:	2196      	movs	r1, #150	; 0x96
    2674:	0033      	movs	r3, r6
    2676:	0049      	lsls	r1, r1, #1
    2678:	22c8      	movs	r2, #200	; 0xc8
    267a:	a813      	add	r0, sp, #76	; 0x4c
    267c:	f003 fc96 	bl	5fac <ProcessATResponse>
    2680:	0021      	movs	r1, r4
    2682:	a813      	add	r0, sp, #76	; 0x4c
    2684:	3110      	adds	r1, #16
    2686:	f004 f90f 	bl	68a8 <strstr>
    268a:	2800      	cmp	r0, #0
    268c:	d101      	bne.n	2692 <Get_TcpDataSegment+0x76>
    268e:	2000      	movs	r0, #0
    2690:	e013      	b.n	26ba <Get_TcpDataSegment+0x9e>
    2692:	490e      	ldr	r1, [pc, #56]	; (26cc <Get_TcpDataSegment+0xb0>)
    2694:	f004 f908 	bl	68a8 <strstr>
    2698:	1e04      	subs	r4, r0, #0
    269a:	d0f8      	beq.n	268e <Get_TcpDataSegment+0x72>
    269c:	2102      	movs	r1, #2
    269e:	a813      	add	r0, sp, #76	; 0x4c
    26a0:	f7ff ff90 	bl	25c4 <Get_ValueByParamIndex>
    26a4:	b282      	uxth	r2, r0
    26a6:	2300      	movs	r3, #0
    26a8:	0010      	movs	r0, r2
    26aa:	4283      	cmp	r3, r0
    26ac:	da04      	bge.n	26b8 <Get_TcpDataSegment+0x9c>
    26ae:	18e1      	adds	r1, r4, r3
    26b0:	7889      	ldrb	r1, [r1, #2]
    26b2:	54e9      	strb	r1, [r5, r3]
    26b4:	3301      	adds	r3, #1
    26b6:	e7f8      	b.n	26aa <Get_TcpDataSegment+0x8e>
    26b8:	0010      	movs	r0, r2
    26ba:	b05e      	add	sp, #376	; 0x178
    26bc:	bd70      	pop	{r4, r5, r6, pc}
    26be:	46c0      	nop			; (mov r8, r8)
    26c0:	00002ecc 	.word	0x00002ecc
    26c4:	0000216f 	.word	0x0000216f
    26c8:	00004dee 	.word	0x00004dee
    26cc:	00004dec 	.word	0x00004dec

000026d0 <get_ewns_code>:
    26d0:	0003      	movs	r3, r0
    26d2:	284e      	cmp	r0, #78	; 0x4e
    26d4:	d107      	bne.n	26e6 <get_ewns_code+0x16>
    26d6:	2030      	movs	r0, #48	; 0x30
    26d8:	2945      	cmp	r1, #69	; 0x45
    26da:	d00f      	beq.n	26fc <get_ewns_code+0x2c>
    26dc:	3004      	adds	r0, #4
    26de:	2957      	cmp	r1, #87	; 0x57
    26e0:	d10c      	bne.n	26fc <get_ewns_code+0x2c>
    26e2:	3803      	subs	r0, #3
    26e4:	e00a      	b.n	26fc <get_ewns_code+0x2c>
    26e6:	2034      	movs	r0, #52	; 0x34
    26e8:	2b53      	cmp	r3, #83	; 0x53
    26ea:	d107      	bne.n	26fc <get_ewns_code+0x2c>
    26ec:	3802      	subs	r0, #2
    26ee:	2945      	cmp	r1, #69	; 0x45
    26f0:	d004      	beq.n	26fc <get_ewns_code+0x2c>
    26f2:	3957      	subs	r1, #87	; 0x57
    26f4:	1e48      	subs	r0, r1, #1
    26f6:	4181      	sbcs	r1, r0
    26f8:	3133      	adds	r1, #51	; 0x33
    26fa:	0008      	movs	r0, r1
    26fc:	4770      	bx	lr

000026fe <Trio_PrepareTMessage>:
    26fe:	2280      	movs	r2, #128	; 0x80
    2700:	b5f0      	push	{r4, r5, r6, r7, lr}
    2702:	0004      	movs	r4, r0
    2704:	4b88      	ldr	r3, [pc, #544]	; (2928 <Trio_PrepareTMessage+0x22a>)
    2706:	b0a5      	sub	sp, #148	; 0x94
    2708:	681b      	ldr	r3, [r3, #0]
    270a:	0052      	lsls	r2, r2, #1
    270c:	000f      	movs	r7, r1
    270e:	2100      	movs	r1, #0
    2710:	9301      	str	r3, [sp, #4]
    2712:	f003 fc95 	bl	6040 <memset>
    2716:	4985      	ldr	r1, [pc, #532]	; (292c <Trio_PrepareTMessage+0x22e>)
    2718:	0020      	movs	r0, r4
    271a:	f004 f813 	bl	6744 <strcat>
    271e:	ad0c      	add	r5, sp, #48	; 0x30
    2720:	a816      	add	r0, sp, #88	; 0x58
    2722:	f003 fc3b 	bl	5f9c <Get_GsmInfo>
    2726:	0028      	movs	r0, r5
    2728:	f002 fdbe 	bl	52a8 <Get_RMCInfo>
    272c:	2100      	movs	r1, #0
    272e:	0020      	movs	r0, r4
    2730:	f004 f815 	bl	675e <strchr>
    2734:	0006      	movs	r6, r0
    2736:	2f00      	cmp	r7, #0
    2738:	d009      	beq.n	274e <Trio_PrepareTMessage+0x50>
    273a:	215e      	movs	r1, #94	; 0x5e
    273c:	ab02      	add	r3, sp, #8
    273e:	18c9      	adds	r1, r1, r3
    2740:	f004 f800 	bl	6744 <strcat>
    2744:	0030      	movs	r0, r6
    2746:	2100      	movs	r1, #0
    2748:	f004 f809 	bl	675e <strchr>
    274c:	0006      	movs	r6, r0
    274e:	0029      	movs	r1, r5
    2750:	0030      	movs	r0, r6
    2752:	f001 f80a 	bl	376a <Add_GpsDateTimeInfo>
    2756:	0029      	movs	r1, r5
    2758:	f000 ff7a 	bl	3650 <Add_GpsCoordinatesInfo>
    275c:	0029      	movs	r1, r5
    275e:	f000 ff59 	bl	3614 <Add_GpsSpeedInfo>
    2762:	0029      	movs	r1, r5
    2764:	f000 ff3e 	bl	35e4 <Add_GpsCourseInfo>
    2768:	7c29      	ldrb	r1, [r5, #16]
    276a:	0007      	movs	r7, r0
    276c:	7928      	ldrb	r0, [r5, #4]
    276e:	f7ff ffaf 	bl	26d0 <get_ewns_code>
    2772:	2230      	movs	r2, #48	; 0x30
    2774:	4b6e      	ldr	r3, [pc, #440]	; (2930 <Trio_PrepareTMessage+0x232>)
    2776:	7038      	strb	r0, [r7, #0]
    2778:	781b      	ldrb	r3, [r3, #0]
    277a:	a806      	add	r0, sp, #24
    277c:	189b      	adds	r3, r3, r2
    277e:	707a      	strb	r2, [r7, #1]
    2780:	70bb      	strb	r3, [r7, #2]
    2782:	f002 fd6f 	bl	5264 <Get_PositionInfo>
    2786:	980a      	ldr	r0, [sp, #40]	; 0x28
    2788:	990b      	ldr	r1, [sp, #44]	; 0x2c
    278a:	2200      	movs	r2, #0
    278c:	4b69      	ldr	r3, [pc, #420]	; (2934 <Trio_PrepareTMessage+0x236>)
    278e:	f004 fbab 	bl	6ee8 <__aeabi_ddiv>
    2792:	f004 fdcb 	bl	732c <__aeabi_d2f>
    2796:	4b68      	ldr	r3, [pc, #416]	; (2938 <Trio_PrepareTMessage+0x23a>)
    2798:	1cfe      	adds	r6, r7, #3
    279a:	681b      	ldr	r3, [r3, #0]
    279c:	1c07      	adds	r7, r0, #0
    279e:	9300      	str	r3, [sp, #0]
    27a0:	f005 f8a8 	bl	78f4 <__aeabi_f2uiz>
    27a4:	9b00      	ldr	r3, [sp, #0]
    27a6:	ad03      	add	r5, sp, #12
    27a8:	220a      	movs	r2, #10
    27aa:	18c0      	adds	r0, r0, r3
    27ac:	0029      	movs	r1, r5
    27ae:	f003 fdfd 	bl	63ac <itoa>
    27b2:	9800      	ldr	r0, [sp, #0]
    27b4:	f005 f8e3 	bl	797e <__aeabi_ui2f>
    27b8:	1c39      	adds	r1, r7, #0
    27ba:	f005 f83f 	bl	783c <__aeabi_fadd>
    27be:	f005 f899 	bl	78f4 <__aeabi_f2uiz>
    27c2:	0001      	movs	r1, r0
    27c4:	0028      	movs	r0, r5
    27c6:	f001 fcaf 	bl	4128 <Hex2Str>
    27ca:	2300      	movs	r3, #0
    27cc:	722b      	strb	r3, [r5, #8]
    27ce:	ab02      	add	r3, sp, #8
    27d0:	1dd9      	adds	r1, r3, #7
    27d2:	0030      	movs	r0, r6
    27d4:	f003 ffb6 	bl	6744 <strcat>
    27d8:	220a      	movs	r2, #10
    27da:	0029      	movs	r1, r5
    27dc:	9816      	ldr	r0, [sp, #88]	; 0x58
    27de:	f003 fde5 	bl	63ac <itoa>
    27e2:	0028      	movs	r0, r5
    27e4:	f004 f80a 	bl	67fc <strlen>
    27e8:	2801      	cmp	r0, #1
    27ea:	d103      	bne.n	27f4 <Trio_PrepareTMessage+0xf6>
    27ec:	4953      	ldr	r1, [pc, #332]	; (293c <Trio_PrepareTMessage+0x23e>)
    27ee:	0030      	movs	r0, r6
    27f0:	f003 ffa8 	bl	6744 <strcat>
    27f4:	0029      	movs	r1, r5
    27f6:	0030      	movs	r0, r6
    27f8:	f003 ffa4 	bl	6744 <strcat>
    27fc:	4950      	ldr	r1, [pc, #320]	; (2940 <Trio_PrepareTMessage+0x242>)
    27fe:	0020      	movs	r0, r4
    2800:	f003 ffa0 	bl	6744 <strcat>
    2804:	211a      	movs	r1, #26
    2806:	0020      	movs	r0, r4
    2808:	f001 f808 	bl	381c <Trio_PrepareTMessageExtension>
    280c:	4d4d      	ldr	r5, [pc, #308]	; (2944 <Trio_PrepareTMessage+0x246>)
    280e:	69eb      	ldr	r3, [r5, #28]
    2810:	2b00      	cmp	r3, #0
    2812:	d008      	beq.n	2826 <Trio_PrepareTMessage+0x128>
    2814:	0020      	movs	r0, r4
    2816:	f000 fff9 	bl	380c <Trio_AddTMessageExtensionSeperator>
    281a:	211d      	movs	r1, #29
    281c:	0020      	movs	r0, r4
    281e:	f000 fffd 	bl	381c <Trio_PrepareTMessageExtension>
    2822:	2300      	movs	r3, #0
    2824:	61eb      	str	r3, [r5, #28]
    2826:	9b01      	ldr	r3, [sp, #4]
    2828:	041d      	lsls	r5, r3, #16
    282a:	0e2d      	lsrs	r5, r5, #24
    282c:	06eb      	lsls	r3, r5, #27
    282e:	d50d      	bpl.n	284c <Trio_PrepareTMessage+0x14e>
    2830:	0020      	movs	r0, r4
    2832:	f000 ffeb 	bl	380c <Trio_AddTMessageExtensionSeperator>
    2836:	2117      	movs	r1, #23
    2838:	0020      	movs	r0, r4
    283a:	f000 ffef 	bl	381c <Trio_PrepareTMessageExtension>
    283e:	0020      	movs	r0, r4
    2840:	f000 ffe4 	bl	380c <Trio_AddTMessageExtensionSeperator>
    2844:	2119      	movs	r1, #25
    2846:	0020      	movs	r0, r4
    2848:	f000 ffe8 	bl	381c <Trio_PrepareTMessageExtension>
    284c:	06ab      	lsls	r3, r5, #26
    284e:	d506      	bpl.n	285e <Trio_PrepareTMessage+0x160>
    2850:	0020      	movs	r0, r4
    2852:	f000 ffdb 	bl	380c <Trio_AddTMessageExtensionSeperator>
    2856:	2118      	movs	r1, #24
    2858:	0020      	movs	r0, r4
    285a:	f000 ffdf 	bl	381c <Trio_PrepareTMessageExtension>
    285e:	466b      	mov	r3, sp
    2860:	791e      	ldrb	r6, [r3, #4]
    2862:	0673      	lsls	r3, r6, #25
    2864:	d506      	bpl.n	2874 <Trio_PrepareTMessage+0x176>
    2866:	0020      	movs	r0, r4
    2868:	f000 ffd0 	bl	380c <Trio_AddTMessageExtensionSeperator>
    286c:	210c      	movs	r1, #12
    286e:	0020      	movs	r0, r4
    2870:	f000 ffd4 	bl	381c <Trio_PrepareTMessageExtension>
    2874:	09f3      	lsrs	r3, r6, #7
    2876:	d006      	beq.n	2886 <Trio_PrepareTMessage+0x188>
    2878:	0020      	movs	r0, r4
    287a:	f000 ffc7 	bl	380c <Trio_AddTMessageExtensionSeperator>
    287e:	210c      	movs	r1, #12
    2880:	0020      	movs	r0, r4
    2882:	f000 ffcb 	bl	381c <Trio_PrepareTMessageExtension>
    2886:	07eb      	lsls	r3, r5, #31
    2888:	d506      	bpl.n	2898 <Trio_PrepareTMessage+0x19a>
    288a:	0020      	movs	r0, r4
    288c:	f000 ffbe 	bl	380c <Trio_AddTMessageExtensionSeperator>
    2890:	2109      	movs	r1, #9
    2892:	0020      	movs	r0, r4
    2894:	f000 ffc2 	bl	381c <Trio_PrepareTMessageExtension>
    2898:	07ab      	lsls	r3, r5, #30
    289a:	d506      	bpl.n	28aa <Trio_PrepareTMessage+0x1ac>
    289c:	0020      	movs	r0, r4
    289e:	f000 ffb5 	bl	380c <Trio_AddTMessageExtensionSeperator>
    28a2:	2109      	movs	r1, #9
    28a4:	0020      	movs	r0, r4
    28a6:	f000 ffb9 	bl	381c <Trio_PrepareTMessageExtension>
    28aa:	06f3      	lsls	r3, r6, #27
    28ac:	d506      	bpl.n	28bc <Trio_PrepareTMessage+0x1be>
    28ae:	0020      	movs	r0, r4
    28b0:	f000 ffac 	bl	380c <Trio_AddTMessageExtensionSeperator>
    28b4:	2104      	movs	r1, #4
    28b6:	0020      	movs	r0, r4
    28b8:	f000 ffb0 	bl	381c <Trio_PrepareTMessageExtension>
    28bc:	06b3      	lsls	r3, r6, #26
    28be:	d506      	bpl.n	28ce <Trio_PrepareTMessage+0x1d0>
    28c0:	0020      	movs	r0, r4
    28c2:	f000 ffa3 	bl	380c <Trio_AddTMessageExtensionSeperator>
    28c6:	2104      	movs	r1, #4
    28c8:	0020      	movs	r0, r4
    28ca:	f000 ffa7 	bl	381c <Trio_PrepareTMessageExtension>
    28ce:	066b      	lsls	r3, r5, #25
    28d0:	d506      	bpl.n	28e0 <Trio_PrepareTMessage+0x1e2>
    28d2:	0020      	movs	r0, r4
    28d4:	f000 ff9a 	bl	380c <Trio_AddTMessageExtensionSeperator>
    28d8:	211c      	movs	r1, #28
    28da:	0020      	movs	r0, r4
    28dc:	f000 ff9e 	bl	381c <Trio_PrepareTMessageExtension>
    28e0:	076b      	lsls	r3, r5, #29
    28e2:	d506      	bpl.n	28f2 <Trio_PrepareTMessage+0x1f4>
    28e4:	0020      	movs	r0, r4
    28e6:	f000 ff91 	bl	380c <Trio_AddTMessageExtensionSeperator>
    28ea:	210a      	movs	r1, #10
    28ec:	0020      	movs	r0, r4
    28ee:	f000 ff95 	bl	381c <Trio_PrepareTMessageExtension>
    28f2:	23a0      	movs	r3, #160	; 0xa0
    28f4:	061b      	lsls	r3, r3, #24
    28f6:	7d9b      	ldrb	r3, [r3, #22]
    28f8:	2b00      	cmp	r3, #0
    28fa:	d106      	bne.n	290a <Trio_PrepareTMessage+0x20c>
    28fc:	0020      	movs	r0, r4
    28fe:	f000 ff85 	bl	380c <Trio_AddTMessageExtensionSeperator>
    2902:	210b      	movs	r1, #11
    2904:	0020      	movs	r0, r4
    2906:	f000 ff89 	bl	381c <Trio_PrepareTMessageExtension>
    290a:	490f      	ldr	r1, [pc, #60]	; (2948 <Trio_PrepareTMessage+0x24a>)
    290c:	0020      	movs	r0, r4
    290e:	f003 ff19 	bl	6744 <strcat>
    2912:	2204      	movs	r2, #4
    2914:	2100      	movs	r1, #0
    2916:	4804      	ldr	r0, [pc, #16]	; (2928 <Trio_PrepareTMessage+0x22a>)
    2918:	f003 fb92 	bl	6040 <memset>
    291c:	0020      	movs	r0, r4
    291e:	f003 ff6d 	bl	67fc <strlen>
    2922:	b025      	add	sp, #148	; 0x94
    2924:	bdf0      	pop	{r4, r5, r6, r7, pc}
    2926:	46c0      	nop			; (mov r8, r8)
    2928:	10000704 	.word	0x10000704
    292c:	00002246 	.word	0x00002246
    2930:	10000718 	.word	0x10000718
    2934:	408f4000 	.word	0x408f4000
    2938:	100004fc 	.word	0x100004fc
    293c:	00003ac3 	.word	0x00003ac3
    2940:	000021a6 	.word	0x000021a6
    2944:	10000690 	.word	0x10000690
    2948:	000021df 	.word	0x000021df

0000294c <Trio_PreparePingMessage>:
    294c:	2280      	movs	r2, #128	; 0x80
    294e:	b570      	push	{r4, r5, r6, lr}
    2950:	0004      	movs	r4, r0
    2952:	000d      	movs	r5, r1
    2954:	0052      	lsls	r2, r2, #1
    2956:	2100      	movs	r1, #0
    2958:	f003 fb72 	bl	6040 <memset>
    295c:	4909      	ldr	r1, [pc, #36]	; (2984 <Trio_PreparePingMessage+0x38>)
    295e:	0020      	movs	r0, r4
    2960:	f003 fef0 	bl	6744 <strcat>
    2964:	0029      	movs	r1, r5
    2966:	0020      	movs	r0, r4
    2968:	f003 feec 	bl	6744 <strcat>
    296c:	4906      	ldr	r1, [pc, #24]	; (2988 <Trio_PreparePingMessage+0x3c>)
    296e:	0020      	movs	r0, r4
    2970:	f003 fee8 	bl	6744 <strcat>
    2974:	4905      	ldr	r1, [pc, #20]	; (298c <Trio_PreparePingMessage+0x40>)
    2976:	0020      	movs	r0, r4
    2978:	f003 fee4 	bl	6744 <strcat>
    297c:	0020      	movs	r0, r4
    297e:	f003 ff3d 	bl	67fc <strlen>
    2982:	bd70      	pop	{r4, r5, r6, pc}
    2984:	00002f67 	.word	0x00002f67
    2988:	00002f6b 	.word	0x00002f6b
    298c:	000021df 	.word	0x000021df

00002990 <I2C1_InterruptHandler>:
    2990:	4b03      	ldr	r3, [pc, #12]	; (29a0 <I2C1_InterruptHandler+0x10>)
    2992:	b510      	push	{r4, lr}
    2994:	681b      	ldr	r3, [r3, #0]
    2996:	2000      	movs	r0, #0
    2998:	695b      	ldr	r3, [r3, #20]
    299a:	681b      	ldr	r3, [r3, #0]
    299c:	4798      	blx	r3
    299e:	bd10      	pop	{r4, pc}
    29a0:	1fff1ff8 	.word	0x1fff1ff8

000029a4 <gsm_set_led_status>:
    29a4:	b51f      	push	{r0, r1, r2, r3, r4, lr}
    29a6:	490c      	ldr	r1, [pc, #48]	; (29d8 <gsm_set_led_status+0x34>)
    29a8:	0004      	movs	r4, r0
    29aa:	3117      	adds	r1, #23
    29ac:	4668      	mov	r0, sp
    29ae:	f003 ff03 	bl	67b8 <strcpy>
    29b2:	490a      	ldr	r1, [pc, #40]	; (29dc <gsm_set_led_status+0x38>)
    29b4:	2c00      	cmp	r4, #0
    29b6:	d100      	bne.n	29ba <gsm_set_led_status+0x16>
    29b8:	4909      	ldr	r1, [pc, #36]	; (29e0 <gsm_set_led_status+0x3c>)
    29ba:	4668      	mov	r0, sp
    29bc:	f003 fec2 	bl	6744 <strcat>
    29c0:	4668      	mov	r0, sp
    29c2:	4908      	ldr	r1, [pc, #32]	; (29e4 <gsm_set_led_status+0x40>)
    29c4:	f003 fac4 	bl	5f50 <Send_ATCommand>
    29c8:	4b07      	ldr	r3, [pc, #28]	; (29e8 <gsm_set_led_status+0x44>)
    29ca:	2232      	movs	r2, #50	; 0x32
    29cc:	2110      	movs	r1, #16
    29ce:	4668      	mov	r0, sp
    29d0:	f003 faec 	bl	5fac <ProcessATResponse>
    29d4:	bd1f      	pop	{r0, r1, r2, r3, r4, pc}
    29d6:	46c0      	nop			; (mov r8, r8)
    29d8:	00002ecc 	.word	0x00002ecc
    29dc:	00004340 	.word	0x00004340
    29e0:	00002f6e 	.word	0x00002f6e
    29e4:	00004dee 	.word	0x00004dee
    29e8:	000022dd 	.word	0x000022dd

000029ec <Get_GsmTcpBuffer>:
    29ec:	b5f0      	push	{r4, r5, r6, r7, lr}
    29ee:	000c      	movs	r4, r1
    29f0:	b0d1      	sub	sp, #324	; 0x144
    29f2:	0017      	movs	r7, r2
    29f4:	000a      	movs	r2, r1
    29f6:	2100      	movs	r1, #0
    29f8:	0006      	movs	r6, r0
    29fa:	f003 fb21 	bl	6040 <memset>
    29fe:	2cff      	cmp	r4, #255	; 0xff
    2a00:	d901      	bls.n	2a06 <Get_GsmTcpBuffer+0x1a>
    2a02:	2400      	movs	r4, #0
    2a04:	e020      	b.n	2a48 <Get_GsmTcpBuffer+0x5c>
    2a06:	003a      	movs	r2, r7
    2a08:	0021      	movs	r1, r4
    2a0a:	0030      	movs	r0, r6
    2a0c:	f7ff fe06 	bl	261c <Get_TcpDataSegment>
    2a10:	e027      	b.n	2a62 <Get_GsmTcpBuffer+0x76>
    2a12:	4915      	ldr	r1, [pc, #84]	; (2a68 <Get_GsmTcpBuffer+0x7c>)
    2a14:	4668      	mov	r0, sp
    2a16:	3120      	adds	r1, #32
    2a18:	f003 ff46 	bl	68a8 <strstr>
    2a1c:	2800      	cmp	r0, #0
    2a1e:	d01f      	beq.n	2a60 <Get_GsmTcpBuffer+0x74>
    2a20:	2104      	movs	r1, #4
    2a22:	f7ff fdcf 	bl	25c4 <Get_ValueByParamIndex>
    2a26:	b280      	uxth	r0, r0
    2a28:	2800      	cmp	r0, #0
    2a2a:	d019      	beq.n	2a60 <Get_GsmTcpBuffer+0x74>
    2a2c:	2180      	movs	r1, #128	; 0x80
    2a2e:	003a      	movs	r2, r7
    2a30:	0049      	lsls	r1, r1, #1
    2a32:	a810      	add	r0, sp, #64	; 0x40
    2a34:	f7ff fdf2 	bl	261c <Get_TcpDataSegment>
    2a38:	0005      	movs	r5, r0
    2a3a:	a910      	add	r1, sp, #64	; 0x40
    2a3c:	1930      	adds	r0, r6, r4
    2a3e:	002a      	movs	r2, r5
    2a40:	f003 fafa 	bl	6038 <memcpy>
    2a44:	1964      	adds	r4, r4, r5
    2a46:	b2a4      	uxth	r4, r4
    2a48:	4908      	ldr	r1, [pc, #32]	; (2a6c <Get_GsmTcpBuffer+0x80>)
    2a4a:	4809      	ldr	r0, [pc, #36]	; (2a70 <Get_GsmTcpBuffer+0x84>)
    2a4c:	f003 fa80 	bl	5f50 <Send_ATCommand>
    2a50:	003b      	movs	r3, r7
    2a52:	22c8      	movs	r2, #200	; 0xc8
    2a54:	2140      	movs	r1, #64	; 0x40
    2a56:	4668      	mov	r0, sp
    2a58:	f003 faa8 	bl	5fac <ProcessATResponse>
    2a5c:	2800      	cmp	r0, #0
    2a5e:	d1d8      	bne.n	2a12 <Get_GsmTcpBuffer+0x26>
    2a60:	0020      	movs	r0, r4
    2a62:	b051      	add	sp, #324	; 0x144
    2a64:	bdf0      	pop	{r4, r5, r6, r7, pc}
    2a66:	46c0      	nop			; (mov r8, r8)
    2a68:	00002ecc 	.word	0x00002ecc
    2a6c:	00004dee 	.word	0x00004dee
    2a70:	00002f71 	.word	0x00002f71

00002a74 <Get_GsmRegistrationStatus>:
    2a74:	490d      	ldr	r1, [pc, #52]	; (2aac <Get_GsmRegistrationStatus+0x38>)
    2a76:	b510      	push	{r4, lr}
    2a78:	3125      	adds	r1, #37	; 0x25
    2a7a:	f003 ff15 	bl	68a8 <strstr>
    2a7e:	2800      	cmp	r0, #0
    2a80:	d012      	beq.n	2aa8 <Get_GsmRegistrationStatus+0x34>
    2a82:	2102      	movs	r1, #2
    2a84:	f7ff fd9e 	bl	25c4 <Get_ValueByParamIndex>
    2a88:	4b09      	ldr	r3, [pc, #36]	; (2ab0 <Get_GsmRegistrationStatus+0x3c>)
    2a8a:	2100      	movs	r1, #0
    2a8c:	001a      	movs	r2, r3
    2a8e:	332f      	adds	r3, #47	; 0x2f
    2a90:	322e      	adds	r2, #46	; 0x2e
    2a92:	7011      	strb	r1, [r2, #0]
    2a94:	7019      	strb	r1, [r3, #0]
    2a96:	2801      	cmp	r0, #1
    2a98:	d101      	bne.n	2a9e <Get_GsmRegistrationStatus+0x2a>
    2a9a:	7010      	strb	r0, [r2, #0]
    2a9c:	e004      	b.n	2aa8 <Get_GsmRegistrationStatus+0x34>
    2a9e:	2805      	cmp	r0, #5
    2aa0:	d102      	bne.n	2aa8 <Get_GsmRegistrationStatus+0x34>
    2aa2:	2101      	movs	r1, #1
    2aa4:	7011      	strb	r1, [r2, #0]
    2aa6:	7019      	strb	r1, [r3, #0]
    2aa8:	bd10      	pop	{r4, pc}
    2aaa:	46c0      	nop			; (mov r8, r8)
    2aac:	00002ecc 	.word	0x00002ecc
    2ab0:	10000888 	.word	0x10000888

00002ab4 <Send_SMS>:
    2ab4:	b5f0      	push	{r4, r5, r6, r7, lr}
    2ab6:	b0b7      	sub	sp, #220	; 0xdc
    2ab8:	231a      	movs	r3, #26
    2aba:	2400      	movs	r4, #0
    2abc:	0015      	movs	r5, r2
    2abe:	466a      	mov	r2, sp
    2ac0:	0007      	movs	r7, r0
    2ac2:	7013      	strb	r3, [r2, #0]
    2ac4:	7054      	strb	r4, [r2, #1]
    2ac6:	000e      	movs	r6, r1
    2ac8:	22c8      	movs	r2, #200	; 0xc8
    2aca:	0021      	movs	r1, r4
    2acc:	a804      	add	r0, sp, #16
    2ace:	f003 fab7 	bl	6040 <memset>
    2ad2:	492d      	ldr	r1, [pc, #180]	; (2b88 <Send_SMS+0xd4>)
    2ad4:	a804      	add	r0, sp, #16
    2ad6:	312d      	adds	r1, #45	; 0x2d
    2ad8:	f003 fe34 	bl	6744 <strcat>
    2adc:	0039      	movs	r1, r7
    2ade:	a804      	add	r0, sp, #16
    2ae0:	f003 fe30 	bl	6744 <strcat>
    2ae4:	4929      	ldr	r1, [pc, #164]	; (2b8c <Send_SMS+0xd8>)
    2ae6:	a804      	add	r0, sp, #16
    2ae8:	f003 fe2c 	bl	6744 <strcat>
    2aec:	4928      	ldr	r1, [pc, #160]	; (2b90 <Send_SMS+0xdc>)
    2aee:	a804      	add	r0, sp, #16
    2af0:	f003 fa2e 	bl	5f50 <Send_ATCommand>
    2af4:	22c8      	movs	r2, #200	; 0xc8
    2af6:	0021      	movs	r1, r4
    2af8:	a804      	add	r0, sp, #16
    2afa:	f003 faa1 	bl	6040 <memset>
    2afe:	22c8      	movs	r2, #200	; 0xc8
    2b00:	002b      	movs	r3, r5
    2b02:	0011      	movs	r1, r2
    2b04:	a804      	add	r0, sp, #16
    2b06:	f003 fa51 	bl	5fac <ProcessATResponse>
    2b0a:	213e      	movs	r1, #62	; 0x3e
    2b0c:	a804      	add	r0, sp, #16
    2b0e:	f003 fe26 	bl	675e <strchr>
    2b12:	0003      	movs	r3, r0
    2b14:	42a0      	cmp	r0, r4
    2b16:	d033      	beq.n	2b80 <Send_SMS+0xcc>
    2b18:	22c8      	movs	r2, #200	; 0xc8
    2b1a:	0021      	movs	r1, r4
    2b1c:	a804      	add	r0, sp, #16
    2b1e:	f003 fa8f 	bl	6040 <memset>
    2b22:	0031      	movs	r1, r6
    2b24:	a804      	add	r0, sp, #16
    2b26:	f003 fe0d 	bl	6744 <strcat>
    2b2a:	4669      	mov	r1, sp
    2b2c:	a804      	add	r0, sp, #16
    2b2e:	f003 fe09 	bl	6744 <strcat>
    2b32:	4918      	ldr	r1, [pc, #96]	; (2b94 <Send_SMS+0xe0>)
    2b34:	a804      	add	r0, sp, #16
    2b36:	f003 fa0b 	bl	5f50 <Send_ATCommand>
    2b3a:	21fa      	movs	r1, #250	; 0xfa
    2b3c:	a801      	add	r0, sp, #4
    2b3e:	0089      	lsls	r1, r1, #2
    2b40:	f001 fb4e 	bl	41e0 <Set_Timer>
    2b44:	a801      	add	r0, sp, #4
    2b46:	f001 fb2d 	bl	41a4 <mn_timer_expired>
    2b4a:	1e01      	subs	r1, r0, #0
    2b4c:	d114      	bne.n	2b78 <Send_SMS+0xc4>
    2b4e:	22c8      	movs	r2, #200	; 0xc8
    2b50:	a804      	add	r0, sp, #16
    2b52:	f003 fa75 	bl	6040 <memset>
    2b56:	22c8      	movs	r2, #200	; 0xc8
    2b58:	002b      	movs	r3, r5
    2b5a:	0011      	movs	r1, r2
    2b5c:	a804      	add	r0, sp, #16
    2b5e:	f003 fa25 	bl	5fac <ProcessATResponse>
    2b62:	490d      	ldr	r1, [pc, #52]	; (2b98 <Send_SMS+0xe4>)
    2b64:	a804      	add	r0, sp, #16
    2b66:	f003 fe9f 	bl	68a8 <strstr>
    2b6a:	2800      	cmp	r0, #0
    2b6c:	d0ea      	beq.n	2b44 <Send_SMS+0x90>
    2b6e:	480b      	ldr	r0, [pc, #44]	; (2b9c <Send_SMS+0xe8>)
    2b70:	f001 fa9c 	bl	40ac <PRINT_K>
    2b74:	2301      	movs	r3, #1
    2b76:	e003      	b.n	2b80 <Send_SMS+0xcc>
    2b78:	4809      	ldr	r0, [pc, #36]	; (2ba0 <Send_SMS+0xec>)
    2b7a:	f001 fa97 	bl	40ac <PRINT_K>
    2b7e:	2300      	movs	r3, #0
    2b80:	0018      	movs	r0, r3
    2b82:	b037      	add	sp, #220	; 0xdc
    2b84:	bdf0      	pop	{r4, r5, r6, r7, pc}
    2b86:	46c0      	nop			; (mov r8, r8)
    2b88:	00002ecc 	.word	0x00002ecc
    2b8c:	0000216f 	.word	0x0000216f
    2b90:	00002f7a 	.word	0x00002f7a
    2b94:	00004dee 	.word	0x00004dee
    2b98:	00004337 	.word	0x00004337
    2b9c:	00002f8a 	.word	0x00002f8a
    2ba0:	00002f94 	.word	0x00002f94

00002ba4 <Initialize_Timers>:
    2ba4:	b510      	push	{r4, lr}
    2ba6:	4c0c      	ldr	r4, [pc, #48]	; (2bd8 <Initialize_Timers+0x34>)
    2ba8:	490c      	ldr	r1, [pc, #48]	; (2bdc <Initialize_Timers+0x38>)
    2baa:	0020      	movs	r0, r4
    2bac:	f001 fb18 	bl	41e0 <Set_Timer>
    2bb0:	0020      	movs	r0, r4
    2bb2:	21fa      	movs	r1, #250	; 0xfa
    2bb4:	300c      	adds	r0, #12
    2bb6:	0089      	lsls	r1, r1, #2
    2bb8:	f001 fb12 	bl	41e0 <Set_Timer>
    2bbc:	f003 f982 	bl	5ec4 <Get_DataSendPeriod>
    2bc0:	0001      	movs	r1, r0
    2bc2:	0020      	movs	r0, r4
    2bc4:	3018      	adds	r0, #24
    2bc6:	f001 fb0b 	bl	41e0 <Set_Timer>
    2bca:	0020      	movs	r0, r4
    2bcc:	2196      	movs	r1, #150	; 0x96
    2bce:	3024      	adds	r0, #36	; 0x24
    2bd0:	0049      	lsls	r1, r1, #1
    2bd2:	f001 fb05 	bl	41e0 <Set_Timer>
    2bd6:	bd10      	pop	{r4, pc}
    2bd8:	100004c4 	.word	0x100004c4
    2bdc:	00007530 	.word	0x00007530

00002be0 <Gsm_CloseSocket>:
    2be0:	b530      	push	{r4, r5, lr}
    2be2:	2405      	movs	r4, #5
    2be4:	4d0f      	ldr	r5, [pc, #60]	; (2c24 <Gsm_CloseSocket+0x44>)
    2be6:	b089      	sub	sp, #36	; 0x24
    2be8:	3536      	adds	r5, #54	; 0x36
    2bea:	490f      	ldr	r1, [pc, #60]	; (2c28 <Gsm_CloseSocket+0x48>)
    2bec:	0028      	movs	r0, r5
    2bee:	f003 f9af 	bl	5f50 <Send_ATCommand>
    2bf2:	22fa      	movs	r2, #250	; 0xfa
    2bf4:	2120      	movs	r1, #32
    2bf6:	2300      	movs	r3, #0
    2bf8:	0052      	lsls	r2, r2, #1
    2bfa:	4668      	mov	r0, sp
    2bfc:	f003 f9d6 	bl	5fac <ProcessATResponse>
    2c00:	490a      	ldr	r1, [pc, #40]	; (2c2c <Gsm_CloseSocket+0x4c>)
    2c02:	4668      	mov	r0, sp
    2c04:	f003 fe50 	bl	68a8 <strstr>
    2c08:	2800      	cmp	r0, #0
    2c0a:	d004      	beq.n	2c16 <Gsm_CloseSocket+0x36>
    2c0c:	4808      	ldr	r0, [pc, #32]	; (2c30 <Gsm_CloseSocket+0x50>)
    2c0e:	f001 fa4d 	bl	40ac <PRINT_K>
    2c12:	2001      	movs	r0, #1
    2c14:	e004      	b.n	2c20 <Gsm_CloseSocket+0x40>
    2c16:	3c01      	subs	r4, #1
    2c18:	b2e4      	uxtb	r4, r4
    2c1a:	2c00      	cmp	r4, #0
    2c1c:	d1e5      	bne.n	2bea <Gsm_CloseSocket+0xa>
    2c1e:	0020      	movs	r0, r4
    2c20:	b009      	add	sp, #36	; 0x24
    2c22:	bd30      	pop	{r4, r5, pc}
    2c24:	00002ecc 	.word	0x00002ecc
    2c28:	00002fa5 	.word	0x00002fa5
    2c2c:	00004337 	.word	0x00004337
    2c30:	000022b6 	.word	0x000022b6

00002c34 <Send_MessageToServer>:
    2c34:	b570      	push	{r4, r5, r6, lr}
    2c36:	000e      	movs	r6, r1
    2c38:	0014      	movs	r4, r2
    2c3a:	b0a2      	sub	sp, #136	; 0x88
    2c3c:	2220      	movs	r2, #32
    2c3e:	2100      	movs	r1, #0
    2c40:	0005      	movs	r5, r0
    2c42:	a802      	add	r0, sp, #8
    2c44:	f003 f9fc 	bl	6040 <memset>
    2c48:	220a      	movs	r2, #10
    2c4a:	4669      	mov	r1, sp
    2c4c:	0030      	movs	r0, r6
    2c4e:	f003 fbad 	bl	63ac <itoa>
    2c52:	491a      	ldr	r1, [pc, #104]	; (2cbc <Send_MessageToServer+0x88>)
    2c54:	a802      	add	r0, sp, #8
    2c56:	313f      	adds	r1, #63	; 0x3f
    2c58:	f003 fd74 	bl	6744 <strcat>
    2c5c:	4669      	mov	r1, sp
    2c5e:	a802      	add	r0, sp, #8
    2c60:	f003 fd70 	bl	6744 <strcat>
    2c64:	4916      	ldr	r1, [pc, #88]	; (2cc0 <Send_MessageToServer+0x8c>)
    2c66:	a802      	add	r0, sp, #8
    2c68:	f003 fd6c 	bl	6744 <strcat>
    2c6c:	4e15      	ldr	r6, [pc, #84]	; (2cc4 <Send_MessageToServer+0x90>)
    2c6e:	a802      	add	r0, sp, #8
    2c70:	0031      	movs	r1, r6
    2c72:	f003 f96d 	bl	5f50 <Send_ATCommand>
    2c76:	2180      	movs	r1, #128	; 0x80
    2c78:	0023      	movs	r3, r4
    2c7a:	22c8      	movs	r2, #200	; 0xc8
    2c7c:	a802      	add	r0, sp, #8
    2c7e:	f003 f995 	bl	5fac <ProcessATResponse>
    2c82:	213e      	movs	r1, #62	; 0x3e
    2c84:	a802      	add	r0, sp, #8
    2c86:	f003 fd6a 	bl	675e <strchr>
    2c8a:	2800      	cmp	r0, #0
    2c8c:	d013      	beq.n	2cb6 <Send_MessageToServer+0x82>
    2c8e:	0031      	movs	r1, r6
    2c90:	0028      	movs	r0, r5
    2c92:	f003 f95d 	bl	5f50 <Send_ATCommand>
    2c96:	0028      	movs	r0, r5
    2c98:	f001 fa08 	bl	40ac <PRINT_K>
    2c9c:	0023      	movs	r3, r4
    2c9e:	22c8      	movs	r2, #200	; 0xc8
    2ca0:	2180      	movs	r1, #128	; 0x80
    2ca2:	a802      	add	r0, sp, #8
    2ca4:	f003 f982 	bl	5fac <ProcessATResponse>
    2ca8:	4907      	ldr	r1, [pc, #28]	; (2cc8 <Send_MessageToServer+0x94>)
    2caa:	a802      	add	r0, sp, #8
    2cac:	f003 fdfc 	bl	68a8 <strstr>
    2cb0:	1e43      	subs	r3, r0, #1
    2cb2:	4198      	sbcs	r0, r3
    2cb4:	b2c0      	uxtb	r0, r0
    2cb6:	b022      	add	sp, #136	; 0x88
    2cb8:	bd70      	pop	{r4, r5, r6, pc}
    2cba:	46c0      	nop			; (mov r8, r8)
    2cbc:	00002ecc 	.word	0x00002ecc
    2cc0:	0000216f 	.word	0x0000216f
    2cc4:	00004dee 	.word	0x00004dee
    2cc8:	00004337 	.word	0x00004337

00002ccc <Delay>:
    2ccc:	b51f      	push	{r0, r1, r2, r3, r4, lr}
    2cce:	000c      	movs	r4, r1
    2cd0:	0001      	movs	r1, r0
    2cd2:	a801      	add	r0, sp, #4
    2cd4:	f001 fa84 	bl	41e0 <Set_Timer>
    2cd8:	a801      	add	r0, sp, #4
    2cda:	f001 fa63 	bl	41a4 <mn_timer_expired>
    2cde:	2800      	cmp	r0, #0
    2ce0:	d103      	bne.n	2cea <Delay+0x1e>
    2ce2:	2c00      	cmp	r4, #0
    2ce4:	d0f8      	beq.n	2cd8 <Delay+0xc>
    2ce6:	47a0      	blx	r4
    2ce8:	e7f6      	b.n	2cd8 <Delay+0xc>
    2cea:	bd1f      	pop	{r0, r1, r2, r3, r4, pc}

00002cec <GSM_HardReset>:
    2cec:	b570      	push	{r4, r5, r6, lr}
    2cee:	480a      	ldr	r0, [pc, #40]	; (2d18 <GSM_HardReset+0x2c>)
    2cf0:	25a0      	movs	r5, #160	; 0xa0
    2cf2:	f001 f9db 	bl	40ac <PRINT_K>
    2cf6:	2301      	movs	r3, #1
    2cf8:	4c08      	ldr	r4, [pc, #32]	; (2d1c <GSM_HardReset+0x30>)
    2cfa:	062d      	lsls	r5, r5, #24
    2cfc:	756b      	strb	r3, [r5, #21]
    2cfe:	0021      	movs	r1, r4
    2d00:	2019      	movs	r0, #25
    2d02:	f7ff ffe3 	bl	2ccc <Delay>
    2d06:	2300      	movs	r3, #0
    2d08:	20af      	movs	r0, #175	; 0xaf
    2d0a:	756b      	strb	r3, [r5, #21]
    2d0c:	0021      	movs	r1, r4
    2d0e:	0080      	lsls	r0, r0, #2
    2d10:	f7ff ffdc 	bl	2ccc <Delay>
    2d14:	bd70      	pop	{r4, r5, r6, pc}
    2d16:	46c0      	nop			; (mov r8, r8)
    2d18:	00002fb8 	.word	0x00002fb8
    2d1c:	000022dd 	.word	0x000022dd

00002d20 <CheckModemStatus>:
    2d20:	b5f0      	push	{r4, r5, r6, r7, lr}
    2d22:	4e60      	ldr	r6, [pc, #384]	; (2ea4 <CheckModemStatus+0x184>)
    2d24:	4c60      	ldr	r4, [pc, #384]	; (2ea8 <CheckModemStatus+0x188>)
    2d26:	0030      	movs	r0, r6
    2d28:	44a5      	add	sp, r4
    2d2a:	304e      	adds	r0, #78	; 0x4e
    2d2c:	495f      	ldr	r1, [pc, #380]	; (2eac <CheckModemStatus+0x18c>)
    2d2e:	f003 f90f 	bl	5f50 <Send_ATCommand>
    2d32:	22c8      	movs	r2, #200	; 0xc8
    2d34:	4d5e      	ldr	r5, [pc, #376]	; (2eb0 <CheckModemStatus+0x190>)
    2d36:	0011      	movs	r1, r2
    2d38:	002b      	movs	r3, r5
    2d3a:	a80a      	add	r0, sp, #40	; 0x28
    2d3c:	f003 f936 	bl	5fac <ProcessATResponse>
    2d40:	a80a      	add	r0, sp, #40	; 0x28
    2d42:	f001 f9b3 	bl	40ac <PRINT_K>
    2d46:	a80a      	add	r0, sp, #40	; 0x28
    2d48:	f7ff fe94 	bl	2a74 <Get_GsmRegistrationStatus>
    2d4c:	4c59      	ldr	r4, [pc, #356]	; (2eb4 <CheckModemStatus+0x194>)
    2d4e:	a80a      	add	r0, sp, #40	; 0x28
    2d50:	0021      	movs	r1, r4
    2d52:	f003 fda9 	bl	68a8 <strstr>
    2d56:	9601      	str	r6, [sp, #4]
    2d58:	4e57      	ldr	r6, [pc, #348]	; (2eb8 <CheckModemStatus+0x198>)
    2d5a:	2800      	cmp	r0, #0
    2d5c:	d005      	beq.n	2d6a <CheckModemStatus+0x4a>
    2d5e:	2102      	movs	r1, #2
    2d60:	f7ff fc30 	bl	25c4 <Get_ValueByParamIndex>
    2d64:	230a      	movs	r3, #10
    2d66:	4358      	muls	r0, r3
    2d68:	8670      	strh	r0, [r6, #50]	; 0x32
    2d6a:	1d61      	adds	r1, r4, #5
    2d6c:	a80a      	add	r0, sp, #40	; 0x28
    2d6e:	f003 fd9b 	bl	68a8 <strstr>
    2d72:	2800      	cmp	r0, #0
    2d74:	d003      	beq.n	2d7e <CheckModemStatus+0x5e>
    2d76:	2101      	movs	r1, #1
    2d78:	f7ff fc24 	bl	25c4 <Get_ValueByParamIndex>
    2d7c:	6030      	str	r0, [r6, #0]
    2d7e:	2220      	movs	r2, #32
    2d80:	2100      	movs	r1, #0
    2d82:	a802      	add	r0, sp, #8
    2d84:	f003 f95c 	bl	6040 <memset>
    2d88:	2240      	movs	r2, #64	; 0x40
    2d8a:	a90a      	add	r1, sp, #40	; 0x28
    2d8c:	a87b      	add	r0, sp, #492	; 0x1ec
    2d8e:	f003 f953 	bl	6038 <memcpy>
    2d92:	494a      	ldr	r1, [pc, #296]	; (2ebc <CheckModemStatus+0x19c>)
    2d94:	a87b      	add	r0, sp, #492	; 0x1ec
    2d96:	f003 fd87 	bl	68a8 <strstr>
    2d9a:	1c46      	adds	r6, r0, #1
    2d9c:	2122      	movs	r1, #34	; 0x22
    2d9e:	0030      	movs	r0, r6
    2da0:	f003 fcdd 	bl	675e <strchr>
    2da4:	2e00      	cmp	r6, #0
    2da6:	d007      	beq.n	2db8 <CheckModemStatus+0x98>
    2da8:	2800      	cmp	r0, #0
    2daa:	d005      	beq.n	2db8 <CheckModemStatus+0x98>
    2dac:	2300      	movs	r3, #0
    2dae:	0031      	movs	r1, r6
    2db0:	7003      	strb	r3, [r0, #0]
    2db2:	a802      	add	r0, sp, #8
    2db4:	f003 fd00 	bl	67b8 <strcpy>
    2db8:	a802      	add	r0, sp, #8
    2dba:	f001 f977 	bl	40ac <PRINT_K>
    2dbe:	a83c      	add	r0, sp, #240	; 0xf0
    2dc0:	f002 fcee 	bl	57a0 <Get_UserSettings>
    2dc4:	2202      	movs	r2, #2
    2dc6:	2100      	movs	r1, #0
    2dc8:	32ff      	adds	r2, #255	; 0xff
    2dca:	a87b      	add	r0, sp, #492	; 0x1ec
    2dcc:	f003 f938 	bl	6040 <memset>
    2dd0:	0021      	movs	r1, r4
    2dd2:	a80a      	add	r0, sp, #40	; 0x28
    2dd4:	310c      	adds	r1, #12
    2dd6:	f003 fd67 	bl	68a8 <strstr>
    2dda:	1e06      	subs	r6, r0, #0
    2ddc:	d101      	bne.n	2de2 <CheckModemStatus+0xc2>
    2dde:	2600      	movs	r6, #0
    2de0:	e023      	b.n	2e2a <CheckModemStatus+0x10a>
    2de2:	4937      	ldr	r1, [pc, #220]	; (2ec0 <CheckModemStatus+0x1a0>)
    2de4:	f003 fd60 	bl	68a8 <strstr>
    2de8:	1e07      	subs	r7, r0, #0
    2dea:	d0f8      	beq.n	2dde <CheckModemStatus+0xbe>
    2dec:	210d      	movs	r1, #13
    2dee:	0030      	movs	r0, r6
    2df0:	f003 fcb5 	bl	675e <strchr>
    2df4:	2800      	cmp	r0, #0
    2df6:	d0f2      	beq.n	2dde <CheckModemStatus+0xbe>
    2df8:	2200      	movs	r2, #0
    2dfa:	a97b      	add	r1, sp, #492	; 0x1ec
    2dfc:	7002      	strb	r2, [r0, #0]
    2dfe:	0038      	movs	r0, r7
    2e00:	f002 fc2c 	bl	565c <ProcessReceivedData>
    2e04:	0006      	movs	r6, r0
    2e06:	2801      	cmp	r0, #1
    2e08:	d10f      	bne.n	2e2a <CheckModemStatus+0x10a>
    2e0a:	a87b      	add	r0, sp, #492	; 0x1ec
    2e0c:	f001 f94e 	bl	40ac <PRINT_K>
    2e10:	002a      	movs	r2, r5
    2e12:	a97b      	add	r1, sp, #492	; 0x1ec
    2e14:	a802      	add	r0, sp, #8
    2e16:	f7ff fe4d 	bl	2ab4 <Send_SMS>
    2e1a:	4b2a      	ldr	r3, [pc, #168]	; (2ec4 <CheckModemStatus+0x1a4>)
    2e1c:	aa02      	add	r2, sp, #8
    2e1e:	189b      	adds	r3, r3, r2
    2e20:	785b      	ldrb	r3, [r3, #1]
    2e22:	2b00      	cmp	r3, #0
    2e24:	d001      	beq.n	2e2a <CheckModemStatus+0x10a>
    2e26:	f001 f9b1 	bl	418c <NVIC_SystemReset.lto_priv.68.lto_priv.74>
    2e2a:	9901      	ldr	r1, [sp, #4]
    2e2c:	a80a      	add	r0, sp, #40	; 0x28
    2e2e:	3120      	adds	r1, #32
    2e30:	f003 fd3a 	bl	68a8 <strstr>
    2e34:	4d20      	ldr	r5, [pc, #128]	; (2eb8 <CheckModemStatus+0x198>)
    2e36:	1e07      	subs	r7, r0, #0
    2e38:	d012      	beq.n	2e60 <CheckModemStatus+0x140>
    2e3a:	2102      	movs	r1, #2
    2e3c:	f7ff fbc2 	bl	25c4 <Get_ValueByParamIndex>
    2e40:	2103      	movs	r1, #3
    2e42:	80a8      	strh	r0, [r5, #4]
    2e44:	0038      	movs	r0, r7
    2e46:	f7ff fbbd 	bl	25c4 <Get_ValueByParamIndex>
    2e4a:	2104      	movs	r1, #4
    2e4c:	80e8      	strh	r0, [r5, #6]
    2e4e:	0038      	movs	r0, r7
    2e50:	f7ff fbb8 	bl	25c4 <Get_ValueByParamIndex>
    2e54:	2105      	movs	r1, #5
    2e56:	8128      	strh	r0, [r5, #8]
    2e58:	0038      	movs	r0, r7
    2e5a:	f7ff fbb3 	bl	25c4 <Get_ValueByParamIndex>
    2e5e:	8168      	strh	r0, [r5, #10]
    2e60:	896a      	ldrh	r2, [r5, #10]
    2e62:	89ab      	ldrh	r3, [r5, #12]
    2e64:	4918      	ldr	r1, [pc, #96]	; (2ec8 <CheckModemStatus+0x1a8>)
    2e66:	429a      	cmp	r2, r3
    2e68:	d201      	bcs.n	2e6e <CheckModemStatus+0x14e>
    2e6a:	2300      	movs	r3, #0
    2e6c:	e002      	b.n	2e74 <CheckModemStatus+0x154>
    2e6e:	6b08      	ldr	r0, [r1, #48]	; 0x30
    2e70:	1ad3      	subs	r3, r2, r3
    2e72:	181b      	adds	r3, r3, r0
    2e74:	630b      	str	r3, [r1, #48]	; 0x30
    2e76:	0021      	movs	r1, r4
    2e78:	a80a      	add	r0, sp, #40	; 0x28
    2e7a:	3113      	adds	r1, #19
    2e7c:	81aa      	strh	r2, [r5, #12]
    2e7e:	f003 fd13 	bl	68a8 <strstr>
    2e82:	2800      	cmp	r0, #0
    2e84:	d009      	beq.n	2e9a <CheckModemStatus+0x17a>
    2e86:	2102      	movs	r1, #2
    2e88:	f7ff fb9c 	bl	25c4 <Get_ValueByParamIndex>
    2e8c:	3530      	adds	r5, #48	; 0x30
    2e8e:	2800      	cmp	r0, #0
    2e90:	d101      	bne.n	2e96 <CheckModemStatus+0x176>
    2e92:	7028      	strb	r0, [r5, #0]
    2e94:	e001      	b.n	2e9a <CheckModemStatus+0x17a>
    2e96:	2301      	movs	r3, #1
    2e98:	702b      	strb	r3, [r5, #0]
    2e9a:	0030      	movs	r0, r6
    2e9c:	23bd      	movs	r3, #189	; 0xbd
    2e9e:	009b      	lsls	r3, r3, #2
    2ea0:	449d      	add	sp, r3
    2ea2:	bdf0      	pop	{r4, r5, r6, r7, pc}
    2ea4:	00002ecc 	.word	0x00002ecc
    2ea8:	fffffd0c 	.word	0xfffffd0c
    2eac:	00004dee 	.word	0x00004dee
    2eb0:	000022dd 	.word	0x000022dd
    2eb4:	00002f4c 	.word	0x00002f4c
    2eb8:	10000888 	.word	0x10000888
    2ebc:	00002fcc 	.word	0x00002fcc
    2ec0:	00002fcf 	.word	0x00002fcf
    2ec4:	000002e3 	.word	0x000002e3
    2ec8:	100004c4 	.word	0x100004c4

00002ecc <Command_RecvData>:
    2ecc:	53235441 56434552 322c313d 000d3635     AT#SRECV=1,256..

00002edc <RespSRECV>:
    2edc:	43455253 41003a56                                SRECV:.

00002ee3 <Command_SLED>:
    2ee3:	53235441 3d44454c 49532300                       AT#SLED=.

00002eec <RespSI>:
    2eec:	3a495323 52432b00                                #SI:.

00002ef1 <RespCREG>:
    2ef1:	4552432b 00203a47                       +CREG: .

00002ef9 <Command_CMGS>:
    2ef9:	432b5441 3d53474d 23544100                       AT+CMGS=.

00002f02 <Command_CloseSocket>:
    2f02:	53235441 0d313d48 23544100                       AT#SH=1..

00002f0b <Command_SendData>:
    2f0b:	53235441 444e4553 3d545845 41002c31              AT#SSENDEXT=1,.

00002f1a <Command_CMGR>:
    2f1a:	432b5441 3d52474d 432b3b31 2b3b5153     AT+CMGR=1;+CSQ;+
    2f2a:	47455243 43233b3f 2b3b4342 44474d43     CREG?;#CBC;+CMGD
    2f3a:	342c313d 4953233b 233b313d 313d5353     =1,4;#SI=1;#SS=1
    2f4a:	4323000d                                         ..

00002f4c <RespCBC>:
    2f4c:	43424323 53432b00                                #CBC.

00002f51 <RespCSQ>:
    2f51:	5153432b 2b00203a                                +CSQ: .

00002f58 <RespCMGR>:
    2f58:	474d432b 23003a52                                +CMGR:.

00002f5f <RespSS>:
    2f5f:	3a535323 002c0d00 003b505b 30003037     #SS:..,.[P;.70.0
    2f6f:	5441000d 3d495323 53000d31 69646e65     ..AT#SI=1..Sendi
    2f7f:	5320676e 2e2e534d 53000a2e 5320534d     ng SMS.....SMS S
    2f8f:	0a746e65 6e614300 20746f6e 646e6553     ent..Cannot Send
    2f9f:	534d5320 430a000a 69736f6c 7320676e      SMS...Closing s
    2faf:	656b636f 2e2e2e74 6f4d0a00 656c7564     ocket.....Module
    2fbf:	72616820 65722064 0a746573 002b2200      hard reset.."+.
    2fcf:	54455323 50472400 00434d52 47504724     #SET.$GPRMC.$GPG
    2fdf:	24004147 53475047 ffff0041 80b530ff              GA.$GPGSA....

00002fec <get_healt_status>:
    2fec:	b530      	push	{r4, r5, lr}
    2fee:	2280      	movs	r2, #128	; 0x80
    2ff0:	000c      	movs	r4, r1
    2ff2:	b08f      	sub	sp, #60	; 0x3c
    2ff4:	0052      	lsls	r2, r2, #1
    2ff6:	2100      	movs	r1, #0
    2ff8:	0020      	movs	r0, r4
    2ffa:	f003 f821 	bl	6040 <memset>
    2ffe:	4668      	mov	r0, sp
    3000:	f002 ffcc 	bl	5f9c <Get_GsmInfo>
    3004:	4925      	ldr	r1, [pc, #148]	; (309c <get_healt_status+0xb0>)
    3006:	0020      	movs	r0, r4
    3008:	f003 fbd6 	bl	67b8 <strcpy>
    300c:	210e      	movs	r1, #14
    300e:	0020      	movs	r0, r4
    3010:	4469      	add	r1, sp
    3012:	f003 fb97 	bl	6744 <strcat>
    3016:	4922      	ldr	r1, [pc, #136]	; (30a0 <get_healt_status+0xb4>)
    3018:	0020      	movs	r0, r4
    301a:	f003 fb93 	bl	6744 <strcat>
    301e:	4d21      	ldr	r5, [pc, #132]	; (30a4 <get_healt_status+0xb8>)
    3020:	0020      	movs	r0, r4
    3022:	0029      	movs	r1, r5
    3024:	f003 fb8e 	bl	6744 <strcat>
    3028:	491f      	ldr	r1, [pc, #124]	; (30a8 <get_healt_status+0xbc>)
    302a:	0020      	movs	r0, r4
    302c:	f003 fb8a 	bl	6744 <strcat>
    3030:	0029      	movs	r1, r5
    3032:	0020      	movs	r0, r4
    3034:	f003 fb86 	bl	6744 <strcat>
    3038:	491c      	ldr	r1, [pc, #112]	; (30ac <get_healt_status+0xc0>)
    303a:	0020      	movs	r0, r4
    303c:	f003 fb82 	bl	6744 <strcat>
    3040:	491b      	ldr	r1, [pc, #108]	; (30b0 <get_healt_status+0xc4>)
    3042:	0020      	movs	r0, r4
    3044:	f003 fb7e 	bl	6744 <strcat>
    3048:	491a      	ldr	r1, [pc, #104]	; (30b4 <get_healt_status+0xc8>)
    304a:	0020      	movs	r0, r4
    304c:	f003 fb7a 	bl	6744 <strcat>
    3050:	4b19      	ldr	r3, [pc, #100]	; (30b8 <get_healt_status+0xcc>)
    3052:	491a      	ldr	r1, [pc, #104]	; (30bc <get_healt_status+0xd0>)
    3054:	3331      	adds	r3, #49	; 0x31
    3056:	781b      	ldrb	r3, [r3, #0]
    3058:	2b00      	cmp	r3, #0
    305a:	d100      	bne.n	305e <get_healt_status+0x72>
    305c:	4918      	ldr	r1, [pc, #96]	; (30c0 <get_healt_status+0xd4>)
    305e:	0020      	movs	r0, r4
    3060:	f002 fba6 	bl	57b0 <AddStringToEchoPacket>
    3064:	4b17      	ldr	r3, [pc, #92]	; (30c4 <get_healt_status+0xd8>)
    3066:	4918      	ldr	r1, [pc, #96]	; (30c8 <get_healt_status+0xdc>)
    3068:	781b      	ldrb	r3, [r3, #0]
    306a:	2b00      	cmp	r3, #0
    306c:	d100      	bne.n	3070 <get_healt_status+0x84>
    306e:	4917      	ldr	r1, [pc, #92]	; (30cc <get_healt_status+0xe0>)
    3070:	0020      	movs	r0, r4
    3072:	f002 fb9d 	bl	57b0 <AddStringToEchoPacket>
    3076:	f002 fa8d 	bl	5594 <SST25_Jedec_ID_Read>
    307a:	4915      	ldr	r1, [pc, #84]	; (30d0 <get_healt_status+0xe4>)
    307c:	2800      	cmp	r0, #0
    307e:	d100      	bne.n	3082 <get_healt_status+0x96>
    3080:	4914      	ldr	r1, [pc, #80]	; (30d4 <get_healt_status+0xe8>)
    3082:	0020      	movs	r0, r4
    3084:	f002 fb94 	bl	57b0 <AddStringToEchoPacket>
    3088:	0020      	movs	r0, r4
    308a:	f002 fb9f 	bl	57cc <CloseEchoPacket>
    308e:	2300      	movs	r3, #0
    3090:	2001      	movs	r0, #1
    3092:	34ff      	adds	r4, #255	; 0xff
    3094:	7063      	strb	r3, [r4, #1]
    3096:	b00f      	add	sp, #60	; 0x3c
    3098:	bd30      	pop	{r4, r5, pc}
    309a:	46c0      	nop			; (mov r8, r8)
    309c:	00003a80 	.word	0x00003a80
    30a0:	00002f6b 	.word	0x00002f6b
    30a4:	000020b6 	.word	0x000020b6
    30a8:	00003a8b 	.word	0x00003a8b
    30ac:	00003a8e 	.word	0x00003a8e
    30b0:	00002222 	.word	0x00002222
    30b4:	00003a94 	.word	0x00003a94
    30b8:	10000888 	.word	0x10000888
    30bc:	00003a96 	.word	0x00003a96
    30c0:	00003a9c 	.word	0x00003a9c
    30c4:	100004f8 	.word	0x100004f8
    30c8:	00003aa2 	.word	0x00003aa2
    30cc:	00003aa8 	.word	0x00003aa8
    30d0:	00003aae 	.word	0x00003aae
    30d4:	00003ab6 	.word	0x00003ab6

000030d8 <Get_ConfigurationParameter>:
    30d8:	b510      	push	{r4, lr}
    30da:	2000      	movs	r0, #0
    30dc:	000c      	movs	r4, r1
    30de:	0011      	movs	r1, r2
    30e0:	f003 fbf4 	bl	68cc <strtok>
    30e4:	0001      	movs	r1, r0
    30e6:	0020      	movs	r0, r4
    30e8:	f003 fb66 	bl	67b8 <strcpy>
    30ec:	bd10      	pop	{r4, pc}

000030ee <update_device_id>:
    30ee:	b5f0      	push	{r4, r5, r6, r7, lr}
    30f0:	4e19      	ldr	r6, [pc, #100]	; (3158 <update_device_id+0x6a>)
    30f2:	4a1a      	ldr	r2, [pc, #104]	; (315c <update_device_id+0x6e>)
    30f4:	b085      	sub	sp, #20
    30f6:	000c      	movs	r4, r1
    30f8:	0031      	movs	r1, r6
    30fa:	0007      	movs	r7, r0
    30fc:	2500      	movs	r5, #0
    30fe:	f7ff ffeb 	bl	30d8 <Get_ConfigurationParameter>
    3102:	2120      	movs	r1, #32
    3104:	4b16      	ldr	r3, [pc, #88]	; (3160 <update_device_id+0x72>)
    3106:	4a17      	ldr	r2, [pc, #92]	; (3164 <update_device_id+0x76>)
    3108:	0028      	movs	r0, r5
    310a:	30b6      	adds	r0, #182	; 0xb6
    310c:	5c10      	ldrb	r0, [r2, r0]
    310e:	1818      	adds	r0, r3, r0
    3110:	3080      	adds	r0, #128	; 0x80
    3112:	7800      	ldrb	r0, [r0, #0]
    3114:	4008      	ands	r0, r1
    3116:	d01c      	beq.n	3152 <update_device_id+0x64>
    3118:	3501      	adds	r5, #1
    311a:	2d0f      	cmp	r5, #15
    311c:	d1f4      	bne.n	3108 <update_device_id+0x1a>
    311e:	4a12      	ldr	r2, [pc, #72]	; (3168 <update_device_id+0x7a>)
    3120:	4669      	mov	r1, sp
    3122:	0038      	movs	r0, r7
    3124:	f7ff ffd8 	bl	30d8 <Get_ConfigurationParameter>
    3128:	f002 fcea 	bl	5b00 <Update_Settings>
    312c:	0020      	movs	r0, r4
    312e:	0029      	movs	r1, r5
    3130:	f002 fb54 	bl	57dc <BeginEchoPacket>
    3134:	0020      	movs	r0, r4
    3136:	0031      	movs	r1, r6
    3138:	f002 fb3a 	bl	57b0 <AddStringToEchoPacket>
    313c:	0020      	movs	r0, r4
    313e:	4669      	mov	r1, sp
    3140:	f002 fb36 	bl	57b0 <AddStringToEchoPacket>
    3144:	0020      	movs	r0, r4
    3146:	f002 fb41 	bl	57cc <CloseEchoPacket>
    314a:	2300      	movs	r3, #0
    314c:	2001      	movs	r0, #1
    314e:	34ff      	adds	r4, #255	; 0xff
    3150:	7063      	strb	r3, [r4, #1]
    3152:	b005      	add	sp, #20
    3154:	bdf0      	pop	{r4, r5, r6, r7, pc}
    3156:	46c0      	nop			; (mov r8, r8)
    3158:	100007ee 	.word	0x100007ee
    315c:	000020b6 	.word	0x000020b6
    3160:	000061c0 	.word	0x000061c0
    3164:	10000738 	.word	0x10000738
    3168:	00003abe 	.word	0x00003abe

0000316c <reset_device>:
    316c:	b507      	push	{r0, r1, r2, lr}
    316e:	4a07      	ldr	r2, [pc, #28]	; (318c <reset_device+0x20>)
    3170:	a901      	add	r1, sp, #4
    3172:	f7ff ffb1 	bl	30d8 <Get_ConfigurationParameter>
    3176:	4906      	ldr	r1, [pc, #24]	; (3190 <reset_device+0x24>)
    3178:	a801      	add	r0, sp, #4
    317a:	f003 fafb 	bl	6774 <strcmp>
    317e:	2800      	cmp	r0, #0
    3180:	d101      	bne.n	3186 <reset_device+0x1a>
    3182:	f001 f803 	bl	418c <NVIC_SystemReset.lto_priv.68.lto_priv.74>
    3186:	2000      	movs	r0, #0
    3188:	bd0e      	pop	{r1, r2, r3, pc}
    318a:	46c0      	nop			; (mov r8, r8)
    318c:	000020b6 	.word	0x000020b6
    3190:	00002219 	.word	0x00002219

00003194 <update_km_counter_setting>:
    3194:	b570      	push	{r4, r5, r6, lr}
    3196:	0005      	movs	r5, r0
    3198:	b0a4      	sub	sp, #144	; 0x90
    319a:	4a1d      	ldr	r2, [pc, #116]	; (3210 <update_km_counter_setting+0x7c>)
    319c:	000c      	movs	r4, r1
    319e:	a914      	add	r1, sp, #80	; 0x50
    31a0:	f7ff ff9a 	bl	30d8 <Get_ConfigurationParameter>
    31a4:	4a1b      	ldr	r2, [pc, #108]	; (3214 <update_km_counter_setting+0x80>)
    31a6:	4669      	mov	r1, sp
    31a8:	0028      	movs	r0, r5
    31aa:	f7ff ff95 	bl	30d8 <Get_ConfigurationParameter>
    31ae:	a814      	add	r0, sp, #80	; 0x50
    31b0:	f003 fb24 	bl	67fc <strlen>
    31b4:	a914      	add	r1, sp, #80	; 0x50
    31b6:	1f02      	subs	r2, r0, #4
    31b8:	a804      	add	r0, sp, #16
    31ba:	f003 fb49 	bl	6850 <strncpy>
    31be:	a804      	add	r0, sp, #16
    31c0:	f003 f9f8 	bl	65b4 <atoi>
    31c4:	0006      	movs	r6, r0
    31c6:	f002 facf 	bl	5768 <UpdateKmCounter>
    31ca:	4d13      	ldr	r5, [pc, #76]	; (3218 <update_km_counter_setting+0x84>)
    31cc:	2800      	cmp	r0, #0
    31ce:	d000      	beq.n	31d2 <update_km_counter_setting+0x3e>
    31d0:	606e      	str	r6, [r5, #4]
    31d2:	0020      	movs	r0, r4
    31d4:	210b      	movs	r1, #11
    31d6:	f002 fb01 	bl	57dc <BeginEchoPacket>
    31da:	220a      	movs	r2, #10
    31dc:	a914      	add	r1, sp, #80	; 0x50
    31de:	6868      	ldr	r0, [r5, #4]
    31e0:	f003 f8c0 	bl	6364 <uitoa>
    31e4:	490d      	ldr	r1, [pc, #52]	; (321c <update_km_counter_setting+0x88>)
    31e6:	a814      	add	r0, sp, #80	; 0x50
    31e8:	f003 faac 	bl	6744 <strcat>
    31ec:	a914      	add	r1, sp, #80	; 0x50
    31ee:	0020      	movs	r0, r4
    31f0:	f002 fade 	bl	57b0 <AddStringToEchoPacket>
    31f4:	4669      	mov	r1, sp
    31f6:	0020      	movs	r0, r4
    31f8:	f002 fada 	bl	57b0 <AddStringToEchoPacket>
    31fc:	0020      	movs	r0, r4
    31fe:	f002 fae5 	bl	57cc <CloseEchoPacket>
    3202:	2300      	movs	r3, #0
    3204:	2001      	movs	r0, #1
    3206:	34ff      	adds	r4, #255	; 0xff
    3208:	7063      	strb	r3, [r4, #1]
    320a:	b024      	add	sp, #144	; 0x90
    320c:	bd70      	pop	{r4, r5, r6, pc}
    320e:	46c0      	nop			; (mov r8, r8)
    3210:	000020b6 	.word	0x000020b6
    3214:	00003abe 	.word	0x00003abe
    3218:	100004f8 	.word	0x100004f8
    321c:	00003ac0 	.word	0x00003ac0

00003220 <update_engine_blockage_setting>:
    3220:	b5f0      	push	{r4, r5, r6, r7, lr}
    3222:	b087      	sub	sp, #28
    3224:	000c      	movs	r4, r1
    3226:	4a2f      	ldr	r2, [pc, #188]	; (32e4 <update_engine_blockage_setting+0xc4>)
    3228:	a901      	add	r1, sp, #4
    322a:	0007      	movs	r7, r0
    322c:	f7ff ff54 	bl	30d8 <Get_ConfigurationParameter>
    3230:	4d2d      	ldr	r5, [pc, #180]	; (32e8 <update_engine_blockage_setting+0xc8>)
    3232:	a801      	add	r0, sp, #4
    3234:	0029      	movs	r1, r5
    3236:	f003 fa9d 	bl	6774 <strcmp>
    323a:	2800      	cmp	r0, #0
    323c:	d11b      	bne.n	3276 <update_engine_blockage_setting+0x56>
    323e:	4e2b      	ldr	r6, [pc, #172]	; (32ec <update_engine_blockage_setting+0xcc>)
    3240:	4a2b      	ldr	r2, [pc, #172]	; (32f0 <update_engine_blockage_setting+0xd0>)
    3242:	0033      	movs	r3, r6
    3244:	33d6      	adds	r3, #214	; 0xd6
    3246:	7018      	strb	r0, [r3, #0]
    3248:	a902      	add	r1, sp, #8
    324a:	0038      	movs	r0, r7
    324c:	f7ff ff44 	bl	30d8 <Get_ConfigurationParameter>
    3250:	36d3      	adds	r6, #211	; 0xd3
    3252:	4828      	ldr	r0, [pc, #160]	; (32f4 <update_engine_blockage_setting+0xd4>)
    3254:	f000 ff2a 	bl	40ac <PRINT_K>
    3258:	7833      	ldrb	r3, [r6, #0]
    325a:	2b00      	cmp	r3, #0
    325c:	d101      	bne.n	3262 <update_engine_blockage_setting+0x42>
    325e:	f002 fc4f 	bl	5b00 <Update_Settings>
    3262:	2108      	movs	r1, #8
    3264:	0020      	movs	r0, r4
    3266:	f002 fab9 	bl	57dc <BeginEchoPacket>
    326a:	0029      	movs	r1, r5
    326c:	0020      	movs	r0, r4
    326e:	f002 fa9f 	bl	57b0 <AddStringToEchoPacket>
    3272:	2202      	movs	r2, #2
    3274:	e022      	b.n	32bc <update_engine_blockage_setting+0x9c>
    3276:	4d20      	ldr	r5, [pc, #128]	; (32f8 <update_engine_blockage_setting+0xd8>)
    3278:	a801      	add	r0, sp, #4
    327a:	0029      	movs	r1, r5
    327c:	f003 fa7a 	bl	6774 <strcmp>
    3280:	2800      	cmp	r0, #0
    3282:	d12c      	bne.n	32de <update_engine_blockage_setting+0xbe>
    3284:	481d      	ldr	r0, [pc, #116]	; (32fc <update_engine_blockage_setting+0xdc>)
    3286:	f000 ff11 	bl	40ac <PRINT_K>
    328a:	4e18      	ldr	r6, [pc, #96]	; (32ec <update_engine_blockage_setting+0xcc>)
    328c:	2201      	movs	r2, #1
    328e:	0033      	movs	r3, r6
    3290:	33d6      	adds	r3, #214	; 0xd6
    3292:	701a      	strb	r2, [r3, #0]
    3294:	a902      	add	r1, sp, #8
    3296:	4a16      	ldr	r2, [pc, #88]	; (32f0 <update_engine_blockage_setting+0xd0>)
    3298:	0038      	movs	r0, r7
    329a:	36d3      	adds	r6, #211	; 0xd3
    329c:	f7ff ff1c 	bl	30d8 <Get_ConfigurationParameter>
    32a0:	7833      	ldrb	r3, [r6, #0]
    32a2:	2b00      	cmp	r3, #0
    32a4:	d101      	bne.n	32aa <update_engine_blockage_setting+0x8a>
    32a6:	f002 fc2b 	bl	5b00 <Update_Settings>
    32aa:	2108      	movs	r1, #8
    32ac:	0020      	movs	r0, r4
    32ae:	f002 fa95 	bl	57dc <BeginEchoPacket>
    32b2:	0029      	movs	r1, r5
    32b4:	0020      	movs	r0, r4
    32b6:	f002 fa7b 	bl	57b0 <AddStringToEchoPacket>
    32ba:	2201      	movs	r2, #1
    32bc:	4b10      	ldr	r3, [pc, #64]	; (3300 <update_engine_blockage_setting+0xe0>)
    32be:	a902      	add	r1, sp, #8
    32c0:	705a      	strb	r2, [r3, #1]
    32c2:	4810      	ldr	r0, [pc, #64]	; (3304 <update_engine_blockage_setting+0xe4>)
    32c4:	2210      	movs	r2, #16
    32c6:	f002 feb7 	bl	6038 <memcpy>
    32ca:	0020      	movs	r0, r4
    32cc:	a902      	add	r1, sp, #8
    32ce:	f002 fa6f 	bl	57b0 <AddStringToEchoPacket>
    32d2:	0020      	movs	r0, r4
    32d4:	f002 fa7a 	bl	57cc <CloseEchoPacket>
    32d8:	2300      	movs	r3, #0
    32da:	34ff      	adds	r4, #255	; 0xff
    32dc:	7063      	strb	r3, [r4, #1]
    32de:	2001      	movs	r0, #1
    32e0:	b007      	add	sp, #28
    32e2:	bdf0      	pop	{r4, r5, r6, r7, pc}
    32e4:	000020b6 	.word	0x000020b6
    32e8:	00003ac3 	.word	0x00003ac3
    32ec:	10000738 	.word	0x10000738
    32f0:	00003abe 	.word	0x00003abe
    32f4:	00003ac5 	.word	0x00003ac5
    32f8:	00002219 	.word	0x00002219
    32fc:	00003ade 	.word	0x00003ade
    3300:	1000067c 	.word	0x1000067c
    3304:	1000067e 	.word	0x1000067e

00003308 <update_idle_alarm_setting>:
    3308:	b570      	push	{r4, r5, r6, lr}
    330a:	b088      	sub	sp, #32
    330c:	000c      	movs	r4, r1
    330e:	4a16      	ldr	r2, [pc, #88]	; (3368 <update_idle_alarm_setting+0x60>)
    3310:	4669      	mov	r1, sp
    3312:	0006      	movs	r6, r0
    3314:	f7ff fee0 	bl	30d8 <Get_ConfigurationParameter>
    3318:	4668      	mov	r0, sp
    331a:	f003 f94b 	bl	65b4 <atoi>
    331e:	4d13      	ldr	r5, [pc, #76]	; (336c <update_idle_alarm_setting+0x64>)
    3320:	4a13      	ldr	r2, [pc, #76]	; (3370 <update_idle_alarm_setting+0x68>)
    3322:	35f0      	adds	r5, #240	; 0xf0
    3324:	a904      	add	r1, sp, #16
    3326:	6028      	str	r0, [r5, #0]
    3328:	0030      	movs	r0, r6
    332a:	f7ff fed5 	bl	30d8 <Get_ConfigurationParameter>
    332e:	f002 fbe7 	bl	5b00 <Update_Settings>
    3332:	2196      	movs	r1, #150	; 0x96
    3334:	0020      	movs	r0, r4
    3336:	0089      	lsls	r1, r1, #2
    3338:	f002 fa50 	bl	57dc <BeginEchoPacket>
    333c:	220a      	movs	r2, #10
    333e:	4669      	mov	r1, sp
    3340:	6828      	ldr	r0, [r5, #0]
    3342:	f003 f833 	bl	63ac <itoa>
    3346:	4669      	mov	r1, sp
    3348:	0020      	movs	r0, r4
    334a:	f002 fa31 	bl	57b0 <AddStringToEchoPacket>
    334e:	a904      	add	r1, sp, #16
    3350:	0020      	movs	r0, r4
    3352:	f002 fa2d 	bl	57b0 <AddStringToEchoPacket>
    3356:	0020      	movs	r0, r4
    3358:	f002 fa38 	bl	57cc <CloseEchoPacket>
    335c:	2300      	movs	r3, #0
    335e:	2001      	movs	r0, #1
    3360:	34ff      	adds	r4, #255	; 0xff
    3362:	7063      	strb	r3, [r4, #1]
    3364:	b008      	add	sp, #32
    3366:	bd70      	pop	{r4, r5, r6, pc}
    3368:	000020b6 	.word	0x000020b6
    336c:	10000738 	.word	0x10000738
    3370:	00003abe 	.word	0x00003abe

00003374 <update_speed_limit_setting>:
    3374:	b5f0      	push	{r4, r5, r6, r7, lr}
    3376:	4f21      	ldr	r7, [pc, #132]	; (33fc <update_speed_limit_setting+0x88>)
    3378:	b087      	sub	sp, #28
    337a:	000c      	movs	r4, r1
    337c:	003a      	movs	r2, r7
    337e:	4669      	mov	r1, sp
    3380:	0006      	movs	r6, r0
    3382:	f7ff fea9 	bl	30d8 <Get_ConfigurationParameter>
    3386:	4668      	mov	r0, sp
    3388:	f003 f914 	bl	65b4 <atoi>
    338c:	4b1c      	ldr	r3, [pc, #112]	; (3400 <update_speed_limit_setting+0x8c>)
    338e:	003a      	movs	r2, r7
    3390:	8018      	strh	r0, [r3, #0]
    3392:	4669      	mov	r1, sp
    3394:	0030      	movs	r0, r6
    3396:	4d1b      	ldr	r5, [pc, #108]	; (3404 <update_speed_limit_setting+0x90>)
    3398:	f7ff fe9e 	bl	30d8 <Get_ConfigurationParameter>
    339c:	4668      	mov	r0, sp
    339e:	f003 f909 	bl	65b4 <atoi>
    33a2:	35ea      	adds	r5, #234	; 0xea
    33a4:	4a18      	ldr	r2, [pc, #96]	; (3408 <update_speed_limit_setting+0x94>)
    33a6:	a902      	add	r1, sp, #8
    33a8:	8028      	strh	r0, [r5, #0]
    33aa:	0030      	movs	r0, r6
    33ac:	f7ff fe94 	bl	30d8 <Get_ConfigurationParameter>
    33b0:	f002 fba6 	bl	5b00 <Update_Settings>
    33b4:	0020      	movs	r0, r4
    33b6:	2107      	movs	r1, #7
    33b8:	f002 fa10 	bl	57dc <BeginEchoPacket>
    33bc:	4b10      	ldr	r3, [pc, #64]	; (3400 <update_speed_limit_setting+0x8c>)
    33be:	220a      	movs	r2, #10
    33c0:	8818      	ldrh	r0, [r3, #0]
    33c2:	4669      	mov	r1, sp
    33c4:	f002 fff2 	bl	63ac <itoa>
    33c8:	4669      	mov	r1, sp
    33ca:	0020      	movs	r0, r4
    33cc:	f002 f9f0 	bl	57b0 <AddStringToEchoPacket>
    33d0:	220a      	movs	r2, #10
    33d2:	4669      	mov	r1, sp
    33d4:	8828      	ldrh	r0, [r5, #0]
    33d6:	f002 ffe9 	bl	63ac <itoa>
    33da:	4669      	mov	r1, sp
    33dc:	0020      	movs	r0, r4
    33de:	f002 f9e7 	bl	57b0 <AddStringToEchoPacket>
    33e2:	a902      	add	r1, sp, #8
    33e4:	0020      	movs	r0, r4
    33e6:	f002 f9e3 	bl	57b0 <AddStringToEchoPacket>
    33ea:	0020      	movs	r0, r4
    33ec:	f002 f9ee 	bl	57cc <CloseEchoPacket>
    33f0:	2300      	movs	r3, #0
    33f2:	2001      	movs	r0, #1
    33f4:	34ff      	adds	r4, #255	; 0xff
    33f6:	7063      	strb	r3, [r4, #1]
    33f8:	b007      	add	sp, #28
    33fa:	bdf0      	pop	{r4, r5, r6, r7, pc}
    33fc:	000020b6 	.word	0x000020b6
    3400:	10000820 	.word	0x10000820
    3404:	10000738 	.word	0x10000738
    3408:	00003abe 	.word	0x00003abe

0000340c <update_roaming_setting>:
    340c:	b570      	push	{r4, r5, r6, lr}
    340e:	b086      	sub	sp, #24
    3410:	466b      	mov	r3, sp
    3412:	1cde      	adds	r6, r3, #3
    3414:	000c      	movs	r4, r1
    3416:	4a16      	ldr	r2, [pc, #88]	; (3470 <update_roaming_setting+0x64>)
    3418:	0031      	movs	r1, r6
    341a:	2000      	movs	r0, #0
    341c:	f7ff fe5c 	bl	30d8 <Get_ConfigurationParameter>
    3420:	7833      	ldrb	r3, [r6, #0]
    3422:	2500      	movs	r5, #0
    3424:	3b30      	subs	r3, #48	; 0x30
    3426:	2b01      	cmp	r3, #1
    3428:	d81f      	bhi.n	346a <update_roaming_setting+0x5e>
    342a:	4a12      	ldr	r2, [pc, #72]	; (3474 <update_roaming_setting+0x68>)
    342c:	0028      	movs	r0, r5
    342e:	a902      	add	r1, sp, #8
    3430:	f7ff fe52 	bl	30d8 <Get_ConfigurationParameter>
    3434:	7833      	ldrb	r3, [r6, #0]
    3436:	4e10      	ldr	r6, [pc, #64]	; (3478 <update_roaming_setting+0x6c>)
    3438:	3b30      	subs	r3, #48	; 0x30
    343a:	1e5a      	subs	r2, r3, #1
    343c:	4193      	sbcs	r3, r2
    343e:	36d4      	adds	r6, #212	; 0xd4
    3440:	7033      	strb	r3, [r6, #0]
    3442:	f002 fb5d 	bl	5b00 <Update_Settings>
    3446:	0020      	movs	r0, r4
    3448:	2105      	movs	r1, #5
    344a:	f002 f9c7 	bl	57dc <BeginEchoPacket>
    344e:	7833      	ldrb	r3, [r6, #0]
    3450:	a901      	add	r1, sp, #4
    3452:	3330      	adds	r3, #48	; 0x30
    3454:	0020      	movs	r0, r4
    3456:	704d      	strb	r5, [r1, #1]
    3458:	700b      	strb	r3, [r1, #0]
    345a:	f002 f9a9 	bl	57b0 <AddStringToEchoPacket>
    345e:	0020      	movs	r0, r4
    3460:	34ff      	adds	r4, #255	; 0xff
    3462:	f002 f9b3 	bl	57cc <CloseEchoPacket>
    3466:	7065      	strb	r5, [r4, #1]
    3468:	3501      	adds	r5, #1
    346a:	0028      	movs	r0, r5
    346c:	b006      	add	sp, #24
    346e:	bd70      	pop	{r4, r5, r6, pc}
    3470:	000020b6 	.word	0x000020b6
    3474:	00003abe 	.word	0x00003abe
    3478:	10000738 	.word	0x10000738

0000347c <update_message_period_setting>:
    347c:	b5f0      	push	{r4, r5, r6, r7, lr}
    347e:	4f3a      	ldr	r7, [pc, #232]	; (3568 <update_message_period_setting+0xec>)
    3480:	b08b      	sub	sp, #44	; 0x2c
    3482:	ac06      	add	r4, sp, #24
    3484:	003a      	movs	r2, r7
    3486:	2000      	movs	r0, #0
    3488:	000d      	movs	r5, r1
    348a:	0021      	movs	r1, r4
    348c:	f7ff fe24 	bl	30d8 <Get_ConfigurationParameter>
    3490:	003a      	movs	r2, r7
    3492:	0021      	movs	r1, r4
    3494:	2000      	movs	r0, #0
    3496:	7826      	ldrb	r6, [r4, #0]
    3498:	f7ff fe1e 	bl	30d8 <Get_ConfigurationParameter>
    349c:	0020      	movs	r0, r4
    349e:	f003 f889 	bl	65b4 <atoi>
    34a2:	003a      	movs	r2, r7
    34a4:	0021      	movs	r1, r4
    34a6:	9001      	str	r0, [sp, #4]
    34a8:	2000      	movs	r0, #0
    34aa:	f7ff fe15 	bl	30d8 <Get_ConfigurationParameter>
    34ae:	0020      	movs	r0, r4
    34b0:	f003 f880 	bl	65b4 <atoi>
    34b4:	4a2d      	ldr	r2, [pc, #180]	; (356c <update_message_period_setting+0xf0>)
    34b6:	0007      	movs	r7, r0
    34b8:	a902      	add	r1, sp, #8
    34ba:	2000      	movs	r0, #0
    34bc:	f7ff fe0c 	bl	30d8 <Get_ConfigurationParameter>
    34c0:	2e30      	cmp	r6, #48	; 0x30
    34c2:	d106      	bne.n	34d2 <update_message_period_setting+0x56>
    34c4:	4b2a      	ldr	r3, [pc, #168]	; (3570 <update_message_period_setting+0xf4>)
    34c6:	9901      	ldr	r1, [sp, #4]
    34c8:	001a      	movs	r2, r3
    34ca:	32e0      	adds	r2, #224	; 0xe0
    34cc:	6011      	str	r1, [r2, #0]
    34ce:	33e4      	adds	r3, #228	; 0xe4
    34d0:	e008      	b.n	34e4 <update_message_period_setting+0x68>
    34d2:	2000      	movs	r0, #0
    34d4:	2e31      	cmp	r6, #49	; 0x31
    34d6:	d145      	bne.n	3564 <update_message_period_setting+0xe8>
    34d8:	4b25      	ldr	r3, [pc, #148]	; (3570 <update_message_period_setting+0xf4>)
    34da:	9901      	ldr	r1, [sp, #4]
    34dc:	001a      	movs	r2, r3
    34de:	32d8      	adds	r2, #216	; 0xd8
    34e0:	6011      	str	r1, [r2, #0]
    34e2:	33dc      	adds	r3, #220	; 0xdc
    34e4:	601f      	str	r7, [r3, #0]
    34e6:	f002 fb0b 	bl	5b00 <Update_Settings>
    34ea:	f002 fd9b 	bl	6024 <ReloadPeriodicDataSendTimer>
    34ee:	2104      	movs	r1, #4
    34f0:	0028      	movs	r0, r5
    34f2:	f002 f973 	bl	57dc <BeginEchoPacket>
    34f6:	2300      	movs	r3, #0
    34f8:	0021      	movs	r1, r4
    34fa:	0028      	movs	r0, r5
    34fc:	7026      	strb	r6, [r4, #0]
    34fe:	7063      	strb	r3, [r4, #1]
    3500:	f002 f956 	bl	57b0 <AddStringToEchoPacket>
    3504:	4f1a      	ldr	r7, [pc, #104]	; (3570 <update_message_period_setting+0xf4>)
    3506:	2e30      	cmp	r6, #48	; 0x30
    3508:	d10c      	bne.n	3524 <update_message_period_setting+0xa8>
    350a:	003b      	movs	r3, r7
    350c:	33e0      	adds	r3, #224	; 0xe0
    350e:	220a      	movs	r2, #10
    3510:	0021      	movs	r1, r4
    3512:	6818      	ldr	r0, [r3, #0]
    3514:	f002 ff4a 	bl	63ac <itoa>
    3518:	0021      	movs	r1, r4
    351a:	0028      	movs	r0, r5
    351c:	f002 f948 	bl	57b0 <AddStringToEchoPacket>
    3520:	37e4      	adds	r7, #228	; 0xe4
    3522:	e00b      	b.n	353c <update_message_period_setting+0xc0>
    3524:	003b      	movs	r3, r7
    3526:	33d8      	adds	r3, #216	; 0xd8
    3528:	220a      	movs	r2, #10
    352a:	0021      	movs	r1, r4
    352c:	6818      	ldr	r0, [r3, #0]
    352e:	f002 ff3d 	bl	63ac <itoa>
    3532:	0021      	movs	r1, r4
    3534:	0028      	movs	r0, r5
    3536:	f002 f93b 	bl	57b0 <AddStringToEchoPacket>
    353a:	37dc      	adds	r7, #220	; 0xdc
    353c:	220a      	movs	r2, #10
    353e:	0021      	movs	r1, r4
    3540:	6838      	ldr	r0, [r7, #0]
    3542:	f002 ff33 	bl	63ac <itoa>
    3546:	0028      	movs	r0, r5
    3548:	0021      	movs	r1, r4
    354a:	f002 f931 	bl	57b0 <AddStringToEchoPacket>
    354e:	0028      	movs	r0, r5
    3550:	a902      	add	r1, sp, #8
    3552:	f002 f92d 	bl	57b0 <AddStringToEchoPacket>
    3556:	0028      	movs	r0, r5
    3558:	f002 f938 	bl	57cc <CloseEchoPacket>
    355c:	2300      	movs	r3, #0
    355e:	2001      	movs	r0, #1
    3560:	35ff      	adds	r5, #255	; 0xff
    3562:	706b      	strb	r3, [r5, #1]
    3564:	b00b      	add	sp, #44	; 0x2c
    3566:	bdf0      	pop	{r4, r5, r6, r7, pc}
    3568:	000020b6 	.word	0x000020b6
    356c:	00003abe 	.word	0x00003abe
    3570:	10000738 	.word	0x10000738

00003574 <update_server_and_port_setting>:
    3574:	b5f0      	push	{r4, r5, r6, r7, lr}
    3576:	000c      	movs	r4, r1
    3578:	4f16      	ldr	r7, [pc, #88]	; (35d4 <update_server_and_port_setting+0x60>)
    357a:	4e17      	ldr	r6, [pc, #92]	; (35d8 <update_server_and_port_setting+0x64>)
    357c:	b085      	sub	sp, #20
    357e:	003a      	movs	r2, r7
    3580:	0031      	movs	r1, r6
    3582:	2000      	movs	r0, #0
    3584:	f7ff fda8 	bl	30d8 <Get_ConfigurationParameter>
    3588:	4d14      	ldr	r5, [pc, #80]	; (35dc <update_server_and_port_setting+0x68>)
    358a:	003a      	movs	r2, r7
    358c:	0029      	movs	r1, r5
    358e:	2000      	movs	r0, #0
    3590:	f7ff fda2 	bl	30d8 <Get_ConfigurationParameter>
    3594:	4a12      	ldr	r2, [pc, #72]	; (35e0 <update_server_and_port_setting+0x6c>)
    3596:	4669      	mov	r1, sp
    3598:	2000      	movs	r0, #0
    359a:	f7ff fd9d 	bl	30d8 <Get_ConfigurationParameter>
    359e:	f002 faaf 	bl	5b00 <Update_Settings>
    35a2:	0020      	movs	r0, r4
    35a4:	2101      	movs	r1, #1
    35a6:	f002 f919 	bl	57dc <BeginEchoPacket>
    35aa:	0031      	movs	r1, r6
    35ac:	0020      	movs	r0, r4
    35ae:	f002 f8ff 	bl	57b0 <AddStringToEchoPacket>
    35b2:	0029      	movs	r1, r5
    35b4:	0020      	movs	r0, r4
    35b6:	f002 f8fb 	bl	57b0 <AddStringToEchoPacket>
    35ba:	4669      	mov	r1, sp
    35bc:	0020      	movs	r0, r4
    35be:	f002 f8f7 	bl	57b0 <AddStringToEchoPacket>
    35c2:	0020      	movs	r0, r4
    35c4:	f002 f902 	bl	57cc <CloseEchoPacket>
    35c8:	2001      	movs	r0, #1
    35ca:	34ff      	adds	r4, #255	; 0xff
    35cc:	7060      	strb	r0, [r4, #1]
    35ce:	b005      	add	sp, #20
    35d0:	bdf0      	pop	{r4, r5, r6, r7, pc}
    35d2:	46c0      	nop			; (mov r8, r8)
    35d4:	000020b6 	.word	0x000020b6
    35d8:	10000768 	.word	0x10000768
    35dc:	100007e8 	.word	0x100007e8
    35e0:	00003abe 	.word	0x00003abe

000035e4 <Add_GpsCourseInfo>:
    35e4:	b530      	push	{r4, r5, lr}
    35e6:	000d      	movs	r5, r1
    35e8:	b085      	sub	sp, #20
    35ea:	2210      	movs	r2, #16
    35ec:	0004      	movs	r4, r0
    35ee:	2100      	movs	r1, #0
    35f0:	4668      	mov	r0, sp
    35f2:	f002 fd25 	bl	6040 <memset>
    35f6:	8c29      	ldrh	r1, [r5, #32]
    35f8:	4668      	mov	r0, sp
    35fa:	f000 fd95 	bl	4128 <Hex2Str>
    35fe:	466b      	mov	r3, sp
    3600:	0020      	movs	r0, r4
    3602:	1d59      	adds	r1, r3, #5
    3604:	f003 f89e 	bl	6744 <strcat>
    3608:	2100      	movs	r1, #0
    360a:	0020      	movs	r0, r4
    360c:	f003 f8a7 	bl	675e <strchr>
    3610:	b005      	add	sp, #20
    3612:	bd30      	pop	{r4, r5, pc}

00003614 <Add_GpsSpeedInfo>:
    3614:	b530      	push	{r4, r5, lr}
    3616:	000d      	movs	r5, r1
    3618:	b085      	sub	sp, #20
    361a:	2210      	movs	r2, #16
    361c:	0004      	movs	r4, r0
    361e:	2100      	movs	r1, #0
    3620:	4668      	mov	r0, sp
    3622:	f002 fd0d 	bl	6040 <memset>
    3626:	21fa      	movs	r1, #250	; 0xfa
    3628:	4b08      	ldr	r3, [pc, #32]	; (364c <Add_GpsSpeedInfo+0x38>)
    362a:	8ba8      	ldrh	r0, [r5, #28]
    362c:	0089      	lsls	r1, r1, #2
    362e:	4358      	muls	r0, r3
    3630:	f7fc fd46 	bl	c0 <__aeabi_idiv>
    3634:	0001      	movs	r1, r0
    3636:	4668      	mov	r0, sp
    3638:	f000 fd76 	bl	4128 <Hex2Str>
    363c:	466b      	mov	r3, sp
    363e:	0020      	movs	r0, r4
    3640:	1d99      	adds	r1, r3, #6
    3642:	f003 f87f 	bl	6744 <strcat>
    3646:	0020      	movs	r0, r4
    3648:	b005      	add	sp, #20
    364a:	bd30      	pop	{r4, r5, pc}
    364c:	0000073c 	.word	0x0000073c

00003650 <Add_GpsCoordinatesInfo>:
    3650:	b570      	push	{r4, r5, r6, lr}
    3652:	0004      	movs	r4, r0
    3654:	000d      	movs	r5, r1
    3656:	2306      	movs	r3, #6
    3658:	5ec8      	ldrsh	r0, [r1, r3]
    365a:	210a      	movs	r1, #10
    365c:	f7fc fd30 	bl	c0 <__aeabi_idiv>
    3660:	3030      	adds	r0, #48	; 0x30
    3662:	7020      	strb	r0, [r4, #0]
    3664:	2306      	movs	r3, #6
    3666:	5ee8      	ldrsh	r0, [r5, r3]
    3668:	210a      	movs	r1, #10
    366a:	f7fc fd29 	bl	c0 <__aeabi_idiv>
    366e:	3130      	adds	r1, #48	; 0x30
    3670:	7061      	strb	r1, [r4, #1]
    3672:	2308      	movs	r3, #8
    3674:	5ee8      	ldrsh	r0, [r5, r3]
    3676:	210a      	movs	r1, #10
    3678:	f7fc fd22 	bl	c0 <__aeabi_idiv>
    367c:	3030      	adds	r0, #48	; 0x30
    367e:	70a0      	strb	r0, [r4, #2]
    3680:	2308      	movs	r3, #8
    3682:	5ee8      	ldrsh	r0, [r5, r3]
    3684:	210a      	movs	r1, #10
    3686:	f7fc fd1b 	bl	c0 <__aeabi_idiv>
    368a:	3130      	adds	r1, #48	; 0x30
    368c:	70e1      	strb	r1, [r4, #3]
    368e:	21fa      	movs	r1, #250	; 0xfa
    3690:	68e8      	ldr	r0, [r5, #12]
    3692:	0089      	lsls	r1, r1, #2
    3694:	f7fc fd14 	bl	c0 <__aeabi_idiv>
    3698:	21fa      	movs	r1, #250	; 0xfa
    369a:	3030      	adds	r0, #48	; 0x30
    369c:	7120      	strb	r0, [r4, #4]
    369e:	68e8      	ldr	r0, [r5, #12]
    36a0:	0089      	lsls	r1, r1, #2
    36a2:	f7fc fd0d 	bl	c0 <__aeabi_idiv>
    36a6:	0008      	movs	r0, r1
    36a8:	2164      	movs	r1, #100	; 0x64
    36aa:	f7fc fd09 	bl	c0 <__aeabi_idiv>
    36ae:	3030      	adds	r0, #48	; 0x30
    36b0:	7160      	strb	r0, [r4, #5]
    36b2:	68e8      	ldr	r0, [r5, #12]
    36b4:	2164      	movs	r1, #100	; 0x64
    36b6:	f7fc fd03 	bl	c0 <__aeabi_idiv>
    36ba:	0008      	movs	r0, r1
    36bc:	210a      	movs	r1, #10
    36be:	f7fc fcff 	bl	c0 <__aeabi_idiv>
    36c2:	3030      	adds	r0, #48	; 0x30
    36c4:	71a0      	strb	r0, [r4, #6]
    36c6:	68e8      	ldr	r0, [r5, #12]
    36c8:	210a      	movs	r1, #10
    36ca:	f7fc fcf9 	bl	c0 <__aeabi_idiv>
    36ce:	3130      	adds	r1, #48	; 0x30
    36d0:	71e1      	strb	r1, [r4, #7]
    36d2:	2312      	movs	r3, #18
    36d4:	5ee8      	ldrsh	r0, [r5, r3]
    36d6:	2164      	movs	r1, #100	; 0x64
    36d8:	f7fc fcf2 	bl	c0 <__aeabi_idiv>
    36dc:	3030      	adds	r0, #48	; 0x30
    36de:	7220      	strb	r0, [r4, #8]
    36e0:	2312      	movs	r3, #18
    36e2:	5ee8      	ldrsh	r0, [r5, r3]
    36e4:	2164      	movs	r1, #100	; 0x64
    36e6:	f7fc fceb 	bl	c0 <__aeabi_idiv>
    36ea:	b208      	sxth	r0, r1
    36ec:	210a      	movs	r1, #10
    36ee:	f7fc fce7 	bl	c0 <__aeabi_idiv>
    36f2:	3030      	adds	r0, #48	; 0x30
    36f4:	7260      	strb	r0, [r4, #9]
    36f6:	2312      	movs	r3, #18
    36f8:	5ee8      	ldrsh	r0, [r5, r3]
    36fa:	210a      	movs	r1, #10
    36fc:	f7fc fce0 	bl	c0 <__aeabi_idiv>
    3700:	3130      	adds	r1, #48	; 0x30
    3702:	72a1      	strb	r1, [r4, #10]
    3704:	2314      	movs	r3, #20
    3706:	5ee8      	ldrsh	r0, [r5, r3]
    3708:	210a      	movs	r1, #10
    370a:	f7fc fcd9 	bl	c0 <__aeabi_idiv>
    370e:	3030      	adds	r0, #48	; 0x30
    3710:	72e0      	strb	r0, [r4, #11]
    3712:	2314      	movs	r3, #20
    3714:	5ee8      	ldrsh	r0, [r5, r3]
    3716:	210a      	movs	r1, #10
    3718:	f7fc fcd2 	bl	c0 <__aeabi_idiv>
    371c:	3130      	adds	r1, #48	; 0x30
    371e:	7321      	strb	r1, [r4, #12]
    3720:	21fa      	movs	r1, #250	; 0xfa
    3722:	69a8      	ldr	r0, [r5, #24]
    3724:	0089      	lsls	r1, r1, #2
    3726:	f7fc fccb 	bl	c0 <__aeabi_idiv>
    372a:	21fa      	movs	r1, #250	; 0xfa
    372c:	3030      	adds	r0, #48	; 0x30
    372e:	7360      	strb	r0, [r4, #13]
    3730:	69a8      	ldr	r0, [r5, #24]
    3732:	0089      	lsls	r1, r1, #2
    3734:	f7fc fcc4 	bl	c0 <__aeabi_idiv>
    3738:	0008      	movs	r0, r1
    373a:	2164      	movs	r1, #100	; 0x64
    373c:	f7fc fcc0 	bl	c0 <__aeabi_idiv>
    3740:	3030      	adds	r0, #48	; 0x30
    3742:	73a0      	strb	r0, [r4, #14]
    3744:	69a8      	ldr	r0, [r5, #24]
    3746:	2164      	movs	r1, #100	; 0x64
    3748:	f7fc fcba 	bl	c0 <__aeabi_idiv>
    374c:	0008      	movs	r0, r1
    374e:	210a      	movs	r1, #10
    3750:	f7fc fcb6 	bl	c0 <__aeabi_idiv>
    3754:	3030      	adds	r0, #48	; 0x30
    3756:	73e0      	strb	r0, [r4, #15]
    3758:	69a8      	ldr	r0, [r5, #24]
    375a:	210a      	movs	r1, #10
    375c:	f7fc fcb0 	bl	c0 <__aeabi_idiv>
    3760:	0020      	movs	r0, r4
    3762:	3130      	adds	r1, #48	; 0x30
    3764:	3011      	adds	r0, #17
    3766:	7421      	strb	r1, [r4, #16]
    3768:	bd70      	pop	{r4, r5, r6, pc}

0000376a <Add_GpsDateTimeInfo>:
    376a:	b570      	push	{r4, r5, r6, lr}
    376c:	1d4e      	adds	r6, r1, #5
    376e:	0004      	movs	r4, r0
    3770:	000d      	movs	r5, r1
    3772:	7ff0      	ldrb	r0, [r6, #31]
    3774:	210a      	movs	r1, #10
    3776:	f7fc fcab 	bl	d0 <__aeabi_uidiv>
    377a:	3030      	adds	r0, #48	; 0x30
    377c:	7020      	strb	r0, [r4, #0]
    377e:	7ff0      	ldrb	r0, [r6, #31]
    3780:	210a      	movs	r1, #10
    3782:	f7fc fca5 	bl	d0 <__aeabi_uidiv>
    3786:	3130      	adds	r1, #48	; 0x30
    3788:	1dae      	adds	r6, r5, #6
    378a:	7061      	strb	r1, [r4, #1]
    378c:	7ff0      	ldrb	r0, [r6, #31]
    378e:	210a      	movs	r1, #10
    3790:	f7fc fc9e 	bl	d0 <__aeabi_uidiv>
    3794:	3030      	adds	r0, #48	; 0x30
    3796:	70a0      	strb	r0, [r4, #2]
    3798:	7ff0      	ldrb	r0, [r6, #31]
    379a:	210a      	movs	r1, #10
    379c:	f7fc fc98 	bl	d0 <__aeabi_uidiv>
    37a0:	3130      	adds	r1, #48	; 0x30
    37a2:	1dee      	adds	r6, r5, #7
    37a4:	70e1      	strb	r1, [r4, #3]
    37a6:	7ff0      	ldrb	r0, [r6, #31]
    37a8:	210a      	movs	r1, #10
    37aa:	f7fc fc91 	bl	d0 <__aeabi_uidiv>
    37ae:	3030      	adds	r0, #48	; 0x30
    37b0:	7120      	strb	r0, [r4, #4]
    37b2:	7ff0      	ldrb	r0, [r6, #31]
    37b4:	210a      	movs	r1, #10
    37b6:	f7fc fc8b 	bl	d0 <__aeabi_uidiv>
    37ba:	3130      	adds	r1, #48	; 0x30
    37bc:	7161      	strb	r1, [r4, #5]
    37be:	7828      	ldrb	r0, [r5, #0]
    37c0:	210a      	movs	r1, #10
    37c2:	f7fc fc85 	bl	d0 <__aeabi_uidiv>
    37c6:	3030      	adds	r0, #48	; 0x30
    37c8:	71a0      	strb	r0, [r4, #6]
    37ca:	7828      	ldrb	r0, [r5, #0]
    37cc:	210a      	movs	r1, #10
    37ce:	f7fc fc7f 	bl	d0 <__aeabi_uidiv>
    37d2:	3130      	adds	r1, #48	; 0x30
    37d4:	71e1      	strb	r1, [r4, #7]
    37d6:	7868      	ldrb	r0, [r5, #1]
    37d8:	210a      	movs	r1, #10
    37da:	f7fc fc79 	bl	d0 <__aeabi_uidiv>
    37de:	3030      	adds	r0, #48	; 0x30
    37e0:	7220      	strb	r0, [r4, #8]
    37e2:	7868      	ldrb	r0, [r5, #1]
    37e4:	210a      	movs	r1, #10
    37e6:	f7fc fc73 	bl	d0 <__aeabi_uidiv>
    37ea:	3130      	adds	r1, #48	; 0x30
    37ec:	7261      	strb	r1, [r4, #9]
    37ee:	78a8      	ldrb	r0, [r5, #2]
    37f0:	210a      	movs	r1, #10
    37f2:	f7fc fc6d 	bl	d0 <__aeabi_uidiv>
    37f6:	3030      	adds	r0, #48	; 0x30
    37f8:	72a0      	strb	r0, [r4, #10]
    37fa:	78a8      	ldrb	r0, [r5, #2]
    37fc:	210a      	movs	r1, #10
    37fe:	f7fc fc67 	bl	d0 <__aeabi_uidiv>
    3802:	0020      	movs	r0, r4
    3804:	3130      	adds	r1, #48	; 0x30
    3806:	300c      	adds	r0, #12
    3808:	72e1      	strb	r1, [r4, #11]
    380a:	bd70      	pop	{r4, r5, r6, pc}

0000380c <Trio_AddTMessageExtensionSeperator>:
    380c:	b510      	push	{r4, lr}
    380e:	4902      	ldr	r1, [pc, #8]	; (3818 <Trio_AddTMessageExtensionSeperator+0xc>)
    3810:	f002 ff98 	bl	6744 <strcat>
    3814:	bd10      	pop	{r4, pc}
    3816:	46c0      	nop			; (mov r8, r8)
    3818:	000020b6 	.word	0x000020b6

0000381c <Trio_PrepareTMessageExtension>:
    381c:	b5f0      	push	{r4, r5, r6, r7, lr}
    381e:	4b7f      	ldr	r3, [pc, #508]	; (3a1c <Trio_PrepareTMessageExtension+0x200>)
    3820:	0004      	movs	r4, r0
    3822:	1f08      	subs	r0, r1, #4
    3824:	b093      	sub	sp, #76	; 0x4c
    3826:	681d      	ldr	r5, [r3, #0]
    3828:	2819      	cmp	r0, #25
    382a:	d900      	bls.n	382e <Trio_PrepareTMessageExtension+0x12>
    382c:	e0f4      	b.n	3a18 <Trio_PrepareTMessageExtension+0x1fc>
    382e:	f004 f8eb 	bl	7a08 <__gnu_thumb1_case_uqi>
    3832:	f3a2      	.short	0xf3a2
    3834:	96f3f3f3 	.word	0x96f3f3f3
    3838:	f387e4b8 	.word	0xf387e4b8
    383c:	f3f3f3f3 	.word	0xf3f3f3f3
    3840:	f3f30df3 	.word	0xf3f30df3
    3844:	c4c0c2f3 	.word	0xc4c0c2f3
    3848:	0fb6f31a 	.word	0x0fb6f31a
    384c:	4974      	ldr	r1, [pc, #464]	; (3a20 <Trio_PrepareTMessageExtension+0x204>)
    384e:	e0e0      	b.n	3a12 <Trio_PrepareTMessageExtension+0x1f6>
    3850:	4b74      	ldr	r3, [pc, #464]	; (3a24 <Trio_PrepareTMessageExtension+0x208>)
    3852:	a901      	add	r1, sp, #4
    3854:	2210      	movs	r2, #16
    3856:	69d8      	ldr	r0, [r3, #28]
    3858:	f002 fda8 	bl	63ac <itoa>
    385c:	4972      	ldr	r1, [pc, #456]	; (3a28 <Trio_PrepareTMessageExtension+0x20c>)
    385e:	0020      	movs	r0, r4
    3860:	f002 ff70 	bl	6744 <strcat>
    3864:	e0d4      	b.n	3a10 <Trio_PrepareTMessageExtension+0x1f4>
    3866:	ad05      	add	r5, sp, #20
    3868:	0028      	movs	r0, r5
    386a:	f001 fd11 	bl	5290 <Get_GSAInfo>
    386e:	a80a      	add	r0, sp, #40	; 0x28
    3870:	f001 fd00 	bl	5274 <Get_GGAInfo>
    3874:	496d      	ldr	r1, [pc, #436]	; (3a2c <Trio_PrepareTMessageExtension+0x210>)
    3876:	0020      	movs	r0, r4
    3878:	f002 ff64 	bl	6744 <strcat>
    387c:	2100      	movs	r1, #0
    387e:	0020      	movs	r0, r4
    3880:	f002 ff6d 	bl	675e <strchr>
    3884:	786b      	ldrb	r3, [r5, #1]
    3886:	4e6a      	ldr	r6, [pc, #424]	; (3a30 <Trio_PrepareTMessageExtension+0x214>)
    3888:	3330      	adds	r3, #48	; 0x30
    388a:	1c44      	adds	r4, r0, #1
    388c:	7003      	strb	r3, [r0, #0]
    388e:	0031      	movs	r1, r6
    3890:	0020      	movs	r0, r4
    3892:	f002 ff57 	bl	6744 <strcat>
    3896:	220a      	movs	r2, #10
    3898:	a901      	add	r1, sp, #4
    389a:	7ba8      	ldrb	r0, [r5, #14]
    389c:	f002 fd86 	bl	63ac <itoa>
    38a0:	a901      	add	r1, sp, #4
    38a2:	0020      	movs	r0, r4
    38a4:	f002 ff4e 	bl	6744 <strcat>
    38a8:	4f62      	ldr	r7, [pc, #392]	; (3a34 <Trio_PrepareTMessageExtension+0x218>)
    38aa:	0020      	movs	r0, r4
    38ac:	0039      	movs	r1, r7
    38ae:	f002 ff49 	bl	6744 <strcat>
    38b2:	220a      	movs	r2, #10
    38b4:	a901      	add	r1, sp, #4
    38b6:	7be8      	ldrb	r0, [r5, #15]
    38b8:	f002 fd78 	bl	63ac <itoa>
    38bc:	a901      	add	r1, sp, #4
    38be:	0020      	movs	r0, r4
    38c0:	f002 ff40 	bl	6744 <strcat>
    38c4:	0031      	movs	r1, r6
    38c6:	0020      	movs	r0, r4
    38c8:	f002 ff3c 	bl	6744 <strcat>
    38cc:	220a      	movs	r2, #10
    38ce:	a901      	add	r1, sp, #4
    38d0:	7c28      	ldrb	r0, [r5, #16]
    38d2:	f002 fd6b 	bl	63ac <itoa>
    38d6:	a901      	add	r1, sp, #4
    38d8:	0020      	movs	r0, r4
    38da:	f002 ff33 	bl	6744 <strcat>
    38de:	0039      	movs	r1, r7
    38e0:	0020      	movs	r0, r4
    38e2:	f002 ff2f 	bl	6744 <strcat>
    38e6:	220a      	movs	r2, #10
    38e8:	a901      	add	r1, sp, #4
    38ea:	7c68      	ldrb	r0, [r5, #17]
    38ec:	f002 fd5e 	bl	63ac <itoa>
    38f0:	a901      	add	r1, sp, #4
    38f2:	0020      	movs	r0, r4
    38f4:	f002 ff26 	bl	6744 <strcat>
    38f8:	0031      	movs	r1, r6
    38fa:	0020      	movs	r0, r4
    38fc:	f002 ff22 	bl	6744 <strcat>
    3900:	220a      	movs	r2, #10
    3902:	a901      	add	r1, sp, #4
    3904:	7ca8      	ldrb	r0, [r5, #18]
    3906:	f002 fd51 	bl	63ac <itoa>
    390a:	a901      	add	r1, sp, #4
    390c:	0020      	movs	r0, r4
    390e:	f002 ff19 	bl	6744 <strcat>
    3912:	0039      	movs	r1, r7
    3914:	0020      	movs	r0, r4
    3916:	f002 ff15 	bl	6744 <strcat>
    391a:	220a      	movs	r2, #10
    391c:	a901      	add	r1, sp, #4
    391e:	7ce8      	ldrb	r0, [r5, #19]
    3920:	f002 fd44 	bl	63ac <itoa>
    3924:	a901      	add	r1, sp, #4
    3926:	0020      	movs	r0, r4
    3928:	f002 ff0c 	bl	6744 <strcat>
    392c:	0031      	movs	r1, r6
    392e:	0020      	movs	r0, r4
    3930:	f002 ff08 	bl	6744 <strcat>
    3934:	2245      	movs	r2, #69	; 0x45
    3936:	466b      	mov	r3, sp
    3938:	189b      	adds	r3, r3, r2
    393a:	7818      	ldrb	r0, [r3, #0]
    393c:	3a3b      	subs	r2, #59	; 0x3b
    393e:	e064      	b.n	3a0a <Trio_PrepareTMessageExtension+0x1ee>
    3940:	493d      	ldr	r1, [pc, #244]	; (3a38 <Trio_PrepareTMessageExtension+0x21c>)
    3942:	0020      	movs	r0, r4
    3944:	f002 fefe 	bl	6744 <strcat>
    3948:	237f      	movs	r3, #127	; 0x7f
    394a:	439d      	bics	r5, r3
    394c:	b2ed      	uxtb	r5, r5
    394e:	2d00      	cmp	r5, #0
    3950:	d062      	beq.n	3a18 <Trio_PrepareTMessageExtension+0x1fc>
    3952:	493a      	ldr	r1, [pc, #232]	; (3a3c <Trio_PrepareTMessageExtension+0x220>)
    3954:	0020      	movs	r0, r4
    3956:	f002 fef5 	bl	6744 <strcat>
    395a:	4d32      	ldr	r5, [pc, #200]	; (3a24 <Trio_PrepareTMessageExtension+0x208>)
    395c:	e017      	b.n	398e <Trio_PrepareTMessageExtension+0x172>
    395e:	4938      	ldr	r1, [pc, #224]	; (3a40 <Trio_PrepareTMessageExtension+0x224>)
    3960:	0020      	movs	r0, r4
    3962:	f002 feef 	bl	6744 <strcat>
    3966:	05ab      	lsls	r3, r5, #22
    3968:	d556      	bpl.n	3a18 <Trio_PrepareTMessageExtension+0x1fc>
    396a:	4934      	ldr	r1, [pc, #208]	; (3a3c <Trio_PrepareTMessageExtension+0x220>)
    396c:	0020      	movs	r0, r4
    396e:	f002 fee9 	bl	6744 <strcat>
    3972:	4d34      	ldr	r5, [pc, #208]	; (3a44 <Trio_PrepareTMessageExtension+0x228>)
    3974:	e00b      	b.n	398e <Trio_PrepareTMessageExtension+0x172>
    3976:	4934      	ldr	r1, [pc, #208]	; (3a48 <Trio_PrepareTMessageExtension+0x22c>)
    3978:	0020      	movs	r0, r4
    397a:	f002 fee3 	bl	6744 <strcat>
    397e:	4933      	ldr	r1, [pc, #204]	; (3a4c <Trio_PrepareTMessageExtension+0x230>)
    3980:	06ab      	lsls	r3, r5, #26
    3982:	d546      	bpl.n	3a12 <Trio_PrepareTMessageExtension+0x1f6>
    3984:	4932      	ldr	r1, [pc, #200]	; (3a50 <Trio_PrepareTMessageExtension+0x234>)
    3986:	0020      	movs	r0, r4
    3988:	f002 fedc 	bl	6744 <strcat>
    398c:	4d31      	ldr	r5, [pc, #196]	; (3a54 <Trio_PrepareTMessageExtension+0x238>)
    398e:	2210      	movs	r2, #16
    3990:	a901      	add	r1, sp, #4
    3992:	69a8      	ldr	r0, [r5, #24]
    3994:	f002 fd0a 	bl	63ac <itoa>
    3998:	2300      	movs	r3, #0
    399a:	61ab      	str	r3, [r5, #24]
    399c:	e038      	b.n	3a10 <Trio_PrepareTMessageExtension+0x1f4>
    399e:	492e      	ldr	r1, [pc, #184]	; (3a58 <Trio_PrepareTMessageExtension+0x23c>)
    39a0:	e037      	b.n	3a12 <Trio_PrepareTMessageExtension+0x1f6>
    39a2:	23a0      	movs	r3, #160	; 0xa0
    39a4:	061b      	lsls	r3, r3, #24
    39a6:	7d9b      	ldrb	r3, [r3, #22]
    39a8:	492c      	ldr	r1, [pc, #176]	; (3a5c <Trio_PrepareTMessageExtension+0x240>)
    39aa:	2b00      	cmp	r3, #0
    39ac:	d031      	beq.n	3a12 <Trio_PrepareTMessageExtension+0x1f6>
    39ae:	492c      	ldr	r1, [pc, #176]	; (3a60 <Trio_PrepareTMessageExtension+0x244>)
    39b0:	e02f      	b.n	3a12 <Trio_PrepareTMessageExtension+0x1f6>
    39b2:	492c      	ldr	r1, [pc, #176]	; (3a64 <Trio_PrepareTMessageExtension+0x248>)
    39b4:	e02d      	b.n	3a12 <Trio_PrepareTMessageExtension+0x1f6>
    39b6:	492c      	ldr	r1, [pc, #176]	; (3a68 <Trio_PrepareTMessageExtension+0x24c>)
    39b8:	e02b      	b.n	3a12 <Trio_PrepareTMessageExtension+0x1f6>
    39ba:	492c      	ldr	r1, [pc, #176]	; (3a6c <Trio_PrepareTMessageExtension+0x250>)
    39bc:	0020      	movs	r0, r4
    39be:	f002 fec1 	bl	6744 <strcat>
    39c2:	4d2b      	ldr	r5, [pc, #172]	; (3a70 <Trio_PrepareTMessageExtension+0x254>)
    39c4:	0020      	movs	r0, r4
    39c6:	0029      	movs	r1, r5
    39c8:	f002 febc 	bl	6744 <strcat>
    39cc:	4918      	ldr	r1, [pc, #96]	; (3a30 <Trio_PrepareTMessageExtension+0x214>)
    39ce:	0020      	movs	r0, r4
    39d0:	f002 feb8 	bl	6744 <strcat>
    39d4:	6c6b      	ldr	r3, [r5, #68]	; 0x44
    39d6:	6c2a      	ldr	r2, [r5, #64]	; 0x40
    39d8:	a901      	add	r1, sp, #4
    39da:	1a98      	subs	r0, r3, r2
    39dc:	220a      	movs	r2, #10
    39de:	f002 fce5 	bl	63ac <itoa>
    39e2:	a901      	add	r1, sp, #4
    39e4:	0020      	movs	r0, r4
    39e6:	f002 fead 	bl	6744 <strcat>
    39ea:	4922      	ldr	r1, [pc, #136]	; (3a74 <Trio_PrepareTMessageExtension+0x258>)
    39ec:	0020      	movs	r0, r4
    39ee:	f002 fea9 	bl	6744 <strcat>
    39f2:	220a      	movs	r2, #10
    39f4:	a901      	add	r1, sp, #4
    39f6:	6ca8      	ldr	r0, [r5, #72]	; 0x48
    39f8:	e008      	b.n	3a0c <Trio_PrepareTMessageExtension+0x1f0>
    39fa:	491f      	ldr	r1, [pc, #124]	; (3a78 <Trio_PrepareTMessageExtension+0x25c>)
    39fc:	0020      	movs	r0, r4
    39fe:	f002 fea1 	bl	6744 <strcat>
    3a02:	220a      	movs	r2, #10
    3a04:	4b1d      	ldr	r3, [pc, #116]	; (3a7c <Trio_PrepareTMessageExtension+0x260>)
    3a06:	2032      	movs	r0, #50	; 0x32
    3a08:	5e18      	ldrsh	r0, [r3, r0]
    3a0a:	a901      	add	r1, sp, #4
    3a0c:	f002 fcce 	bl	63ac <itoa>
    3a10:	a901      	add	r1, sp, #4
    3a12:	0020      	movs	r0, r4
    3a14:	f002 fe96 	bl	6744 <strcat>
    3a18:	b013      	add	sp, #76	; 0x4c
    3a1a:	bdf0      	pop	{r4, r5, r6, r7, pc}
    3a1c:	10000704 	.word	0x10000704
    3a20:	00003af0 	.word	0x00003af0
    3a24:	10000690 	.word	0x10000690
    3a28:	00003af4 	.word	0x00003af4
    3a2c:	00003af9 	.word	0x00003af9
    3a30:	00002f65 	.word	0x00002f65
    3a34:	0000217f 	.word	0x0000217f
    3a38:	00003afe 	.word	0x00003afe
    3a3c:	00003b09 	.word	0x00003b09
    3a40:	00003b02 	.word	0x00003b02
    3a44:	10000854 	.word	0x10000854
    3a48:	00003b06 	.word	0x00003b06
    3a4c:	00002219 	.word	0x00002219
    3a50:	00003b21 	.word	0x00003b21
    3a54:	10000834 	.word	0x10000834
    3a58:	00003b0b 	.word	0x00003b0b
    3a5c:	00003b2f 	.word	0x00003b2f
    3a60:	00003b29 	.word	0x00003b29
    3a64:	00003b0f 	.word	0x00003b0f
    3a68:	00003b15 	.word	0x00003b15
    3a6c:	00003b1b 	.word	0x00003b1b
    3a70:	100006b4 	.word	0x100006b4
    3a74:	00003b20 	.word	0x00003b20
    3a78:	00003b24 	.word	0x00003b24
    3a7c:	10000888 	.word	0x10000888
    3a80:	54454740 	.word	0x54454740
    3a84:	464e493b 	.word	0x464e493b
    3a88:	54003b4f 	.word	0x54003b4f
    3a8c:	32520030 	.word	0x32520030
    3a90:	00373732 	.word	0x00373732
    3a94:	53470073 	.word	0x53470073
    3a98:	00313a4d 	.word	0x00313a4d
    3a9c:	3a4d5347 	.word	0x3a4d5347
    3aa0:	50470030 	.word	0x50470030
    3aa4:	00313a53 	.word	0x00313a53
    3aa8:	3a535047 	.word	0x3a535047
    3aac:	4c460030 	.word	0x4c460030
    3ab0:	3a485341 	.word	0x3a485341
    3ab4:	4c460031 	.word	0x4c460031
    3ab8:	3a485341 	.word	0x3a485341
    3abc:	00210030 	.word	0x00210030
    3ac0:	30303030 	.word	0x30303030
    3ac4:	4f4c4200 	.word	0x4f4c4200
    3ac8:	47414b43 	.word	0x47414b43
    3acc:	45522045 	.word	0x45522045
    3ad0:	45564f4d 	.word	0x45564f4d
    3ad4:	51455220 	.word	0x51455220
    3ad8:	54534555 	.word	0x54534555
    3adc:	4c42000a 	.word	0x4c42000a
    3ae0:	414b434f 	.word	0x414b434f
    3ae4:	52204547 	.word	0x52204547
    3ae8:	45555145 	.word	0x45555145
    3aec:	000a5453 	.word	0x000a5453
    3af0:	00393130 	.word	0x00393130
    3af4:	3a463030 	.word	0x3a463030
    3af8:	35323000 	.word	0x35323000
    3afc:	3030003a 	.word	0x3030003a
    3b00:	30300058 	.word	0x30300058
    3b04:	30300043 	.word	0x30300043
    3b08:	30003a35 	.word	0x30003a35
    3b0c:	30003732 	.word	0x30003732
    3b10:	313a3432 	.word	0x313a3432
    3b14:	34323000 	.word	0x34323000
    3b18:	3000303a 	.word	0x3000303a
    3b1c:	003a3632 	.word	0x003a3632
    3b20:	002c302c 	.word	0x002c302c
    3b24:	3a453030 	.word	0x3a453030
    3b28:	44303000 	.word	0x44303000
    3b2c:	3000313a 	.word	0x3000313a
    3b30:	303a4430 	.word	0x303a4430
    3b34:	ffffff00 	.word	0xffffff00

00003b38 <Chip_UART_TXIntHandlerRB>:
    3b38:	b5f7      	push	{r0, r1, r2, r4, r5, r6, r7, lr}
    3b3a:	0005      	movs	r5, r0
    3b3c:	000c      	movs	r4, r1
    3b3e:	2704      	movs	r7, #4
    3b40:	68ab      	ldr	r3, [r5, #8]
    3b42:	423b      	tst	r3, r7
    3b44:	d016      	beq.n	3b74 <Chip_UART_TXIntHandlerRB+0x3c>
    3b46:	68e1      	ldr	r1, [r4, #12]
    3b48:	6922      	ldr	r2, [r4, #16]
    3b4a:	6823      	ldr	r3, [r4, #0]
    3b4c:	4291      	cmp	r1, r2
    3b4e:	d011      	beq.n	3b74 <Chip_UART_TXIntHandlerRB+0x3c>
    3b50:	6862      	ldr	r2, [r4, #4]
    3b52:	1e51      	subs	r1, r2, #1
    3b54:	6922      	ldr	r2, [r4, #16]
    3b56:	4011      	ands	r1, r2
    3b58:	68a2      	ldr	r2, [r4, #8]
    3b5a:	4351      	muls	r1, r2
    3b5c:	1859      	adds	r1, r3, r1
    3b5e:	466b      	mov	r3, sp
    3b60:	1dde      	adds	r6, r3, #7
    3b62:	0030      	movs	r0, r6
    3b64:	f002 fa68 	bl	6038 <memcpy>
    3b68:	6923      	ldr	r3, [r4, #16]
    3b6a:	3301      	adds	r3, #1
    3b6c:	6123      	str	r3, [r4, #16]
    3b6e:	7833      	ldrb	r3, [r6, #0]
    3b70:	61eb      	str	r3, [r5, #28]
    3b72:	e7e5      	b.n	3b40 <Chip_UART_TXIntHandlerRB+0x8>
    3b74:	bdf7      	pop	{r0, r1, r2, r4, r5, r6, r7, pc}

00003b76 <RingBuffer_InsertMult>:
    3b76:	b5f8      	push	{r3, r4, r5, r6, r7, lr}
    3b78:	68c3      	ldr	r3, [r0, #12]
    3b7a:	000f      	movs	r7, r1
    3b7c:	6846      	ldr	r6, [r0, #4]
    3b7e:	6901      	ldr	r1, [r0, #16]
    3b80:	0004      	movs	r4, r0
    3b82:	1a5b      	subs	r3, r3, r1
    3b84:	2000      	movs	r0, #0
    3b86:	42b3      	cmp	r3, r6
    3b88:	da31      	bge.n	3bee <RingBuffer_InsertMult+0x78>
    3b8a:	68e3      	ldr	r3, [r4, #12]
    3b8c:	6921      	ldr	r1, [r4, #16]
    3b8e:	68e0      	ldr	r0, [r4, #12]
    3b90:	1a59      	subs	r1, r3, r1
    3b92:	1e73      	subs	r3, r6, #1
    3b94:	1a71      	subs	r1, r6, r1
    3b96:	4003      	ands	r3, r0
    3b98:	18c8      	adds	r0, r1, r3
    3b9a:	000d      	movs	r5, r1
    3b9c:	42b0      	cmp	r0, r6
    3b9e:	d300      	bcc.n	3ba2 <RingBuffer_InsertMult+0x2c>
    3ba0:	1af5      	subs	r5, r6, r3
    3ba2:	6820      	ldr	r0, [r4, #0]
    3ba4:	1b49      	subs	r1, r1, r5
    3ba6:	4295      	cmp	r5, r2
    3ba8:	dd00      	ble.n	3bac <RingBuffer_InsertMult+0x36>
    3baa:	0015      	movs	r5, r2
    3bac:	1b56      	subs	r6, r2, r5
    3bae:	428e      	cmp	r6, r1
    3bb0:	dd00      	ble.n	3bb4 <RingBuffer_InsertMult+0x3e>
    3bb2:	000e      	movs	r6, r1
    3bb4:	68a1      	ldr	r1, [r4, #8]
    3bb6:	000a      	movs	r2, r1
    3bb8:	434b      	muls	r3, r1
    3bba:	436a      	muls	r2, r5
    3bbc:	18c0      	adds	r0, r0, r3
    3bbe:	0039      	movs	r1, r7
    3bc0:	f002 fa3a 	bl	6038 <memcpy>
    3bc4:	68e3      	ldr	r3, [r4, #12]
    3bc6:	6860      	ldr	r0, [r4, #4]
    3bc8:	18eb      	adds	r3, r5, r3
    3bca:	3801      	subs	r0, #1
    3bcc:	60e3      	str	r3, [r4, #12]
    3bce:	68a1      	ldr	r1, [r4, #8]
    3bd0:	4018      	ands	r0, r3
    3bd2:	68a3      	ldr	r3, [r4, #8]
    3bd4:	4369      	muls	r1, r5
    3bd6:	4358      	muls	r0, r3
    3bd8:	68a2      	ldr	r2, [r4, #8]
    3bda:	6823      	ldr	r3, [r4, #0]
    3bdc:	4372      	muls	r2, r6
    3bde:	1818      	adds	r0, r3, r0
    3be0:	1879      	adds	r1, r7, r1
    3be2:	f002 fa29 	bl	6038 <memcpy>
    3be6:	68e3      	ldr	r3, [r4, #12]
    3be8:	19a8      	adds	r0, r5, r6
    3bea:	199b      	adds	r3, r3, r6
    3bec:	60e3      	str	r3, [r4, #12]
    3bee:	bdf8      	pop	{r3, r4, r5, r6, r7, pc}

00003bf0 <RingBuffer_PopMult.constprop.58>:
    3bf0:	b5f8      	push	{r3, r4, r5, r6, r7, lr}
    3bf2:	68c2      	ldr	r2, [r0, #12]
    3bf4:	6903      	ldr	r3, [r0, #16]
    3bf6:	0004      	movs	r4, r0
    3bf8:	000f      	movs	r7, r1
    3bfa:	2000      	movs	r0, #0
    3bfc:	429a      	cmp	r2, r3
    3bfe:	d031      	beq.n	3c64 <RingBuffer_PopMult.constprop.58+0x74>
    3c00:	68e3      	ldr	r3, [r4, #12]
    3c02:	6860      	ldr	r0, [r4, #4]
    3c04:	6922      	ldr	r2, [r4, #16]
    3c06:	6921      	ldr	r1, [r4, #16]
    3c08:	1a9a      	subs	r2, r3, r2
    3c0a:	1e43      	subs	r3, r0, #1
    3c0c:	400b      	ands	r3, r1
    3c0e:	18d1      	adds	r1, r2, r3
    3c10:	0016      	movs	r6, r2
    3c12:	4281      	cmp	r1, r0
    3c14:	d300      	bcc.n	3c18 <RingBuffer_PopMult.constprop.58+0x28>
    3c16:	1ac6      	subs	r6, r0, r3
    3c18:	6821      	ldr	r1, [r4, #0]
    3c1a:	1b92      	subs	r2, r2, r6
    3c1c:	2501      	movs	r5, #1
    3c1e:	2e00      	cmp	r6, #0
    3c20:	dd00      	ble.n	3c24 <RingBuffer_PopMult.constprop.58+0x34>
    3c22:	002e      	movs	r6, r5
    3c24:	1bad      	subs	r5, r5, r6
    3c26:	4295      	cmp	r5, r2
    3c28:	dd00      	ble.n	3c2c <RingBuffer_PopMult.constprop.58+0x3c>
    3c2a:	0015      	movs	r5, r2
    3c2c:	68a0      	ldr	r0, [r4, #8]
    3c2e:	0002      	movs	r2, r0
    3c30:	4343      	muls	r3, r0
    3c32:	4372      	muls	r2, r6
    3c34:	18c9      	adds	r1, r1, r3
    3c36:	0038      	movs	r0, r7
    3c38:	f002 f9fe 	bl	6038 <memcpy>
    3c3c:	68a0      	ldr	r0, [r4, #8]
    3c3e:	6923      	ldr	r3, [r4, #16]
    3c40:	0002      	movs	r2, r0
    3c42:	18f1      	adds	r1, r6, r3
    3c44:	6863      	ldr	r3, [r4, #4]
    3c46:	6121      	str	r1, [r4, #16]
    3c48:	3b01      	subs	r3, #1
    3c4a:	4019      	ands	r1, r3
    3c4c:	4341      	muls	r1, r0
    3c4e:	4370      	muls	r0, r6
    3c50:	6823      	ldr	r3, [r4, #0]
    3c52:	436a      	muls	r2, r5
    3c54:	1859      	adds	r1, r3, r1
    3c56:	1838      	adds	r0, r7, r0
    3c58:	f002 f9ee 	bl	6038 <memcpy>
    3c5c:	6923      	ldr	r3, [r4, #16]
    3c5e:	1970      	adds	r0, r6, r5
    3c60:	195b      	adds	r3, r3, r5
    3c62:	6123      	str	r3, [r4, #16]
    3c64:	bdf8      	pop	{r3, r4, r5, r6, r7, pc}

00003c66 <Chip_SPIM_XferHandler.constprop.55>:
    3c66:	b5f8      	push	{r3, r4, r5, r6, r7, lr}
    3c68:	2310      	movs	r3, #16
    3c6a:	4d3a      	ldr	r5, [pc, #232]	; (3d54 <Chip_SPIM_XferHandler.constprop.55+0xee>)
    3c6c:	0004      	movs	r4, r0
    3c6e:	6a2e      	ldr	r6, [r5, #32]
    3c70:	68aa      	ldr	r2, [r5, #8]
    3c72:	0136      	lsls	r6, r6, #4
    3c74:	0f36      	lsrs	r6, r6, #28
    3c76:	421a      	tst	r2, r3
    3c78:	d003      	beq.n	3c82 <Chip_SPIM_XferHandler.constprop.55+0x1c>
    3c7a:	60ab      	str	r3, [r5, #8]
    3c7c:	6843      	ldr	r3, [r0, #4]
    3c7e:	681b      	ldr	r3, [r3, #0]
    3c80:	4798      	blx	r3
    3c82:	2320      	movs	r3, #32
    3c84:	68aa      	ldr	r2, [r5, #8]
    3c86:	421a      	tst	r2, r3
    3c88:	d009      	beq.n	3c9e <Chip_SPIM_XferHandler.constprop.55+0x38>
    3c8a:	4a32      	ldr	r2, [pc, #200]	; (3d54 <Chip_SPIM_XferHandler.constprop.55+0xee>)
    3c8c:	6093      	str	r3, [r2, #8]
    3c8e:	4b32      	ldr	r3, [pc, #200]	; (3d58 <Chip_SPIM_XferHandler.constprop.55+0xf2>)
    3c90:	781b      	ldrb	r3, [r3, #0]
    3c92:	2b00      	cmp	r3, #0
    3c94:	d103      	bne.n	3c9e <Chip_SPIM_XferHandler.constprop.55+0x38>
    3c96:	6863      	ldr	r3, [r4, #4]
    3c98:	0020      	movs	r0, r4
    3c9a:	691b      	ldr	r3, [r3, #16]
    3c9c:	4798      	blx	r3
    3c9e:	2780      	movs	r7, #128	; 0x80
    3ca0:	2202      	movs	r2, #2
    3ca2:	68ab      	ldr	r3, [r5, #8]
    3ca4:	4213      	tst	r3, r2
    3ca6:	d03e      	beq.n	3d26 <Chip_SPIM_XferHandler.constprop.55+0xc0>
    3ca8:	4b2b      	ldr	r3, [pc, #172]	; (3d58 <Chip_SPIM_XferHandler.constprop.55+0xf2>)
    3caa:	781a      	ldrb	r2, [r3, #0]
    3cac:	2a00      	cmp	r2, #0
    3cae:	d03a      	beq.n	3d26 <Chip_SPIM_XferHandler.constprop.55+0xc0>
    3cb0:	2122      	movs	r1, #34	; 0x22
    3cb2:	5e62      	ldrsh	r2, [r4, r1]
    3cb4:	2a00      	cmp	r2, #0
    3cb6:	d10c      	bne.n	3cd2 <Chip_SPIM_XferHandler.constprop.55+0x6c>
    3cb8:	0021      	movs	r1, r4
    3cba:	3129      	adds	r1, #41	; 0x29
    3cbc:	7809      	ldrb	r1, [r1, #0]
    3cbe:	2900      	cmp	r1, #0
    3cc0:	d003      	beq.n	3cca <Chip_SPIM_XferHandler.constprop.55+0x64>
    3cc2:	4924      	ldr	r1, [pc, #144]	; (3d54 <Chip_SPIM_XferHandler.constprop.55+0xee>)
    3cc4:	608f      	str	r7, [r1, #8]
    3cc6:	701a      	strb	r2, [r3, #0]
    3cc8:	e003      	b.n	3cd2 <Chip_SPIM_XferHandler.constprop.55+0x6c>
    3cca:	6863      	ldr	r3, [r4, #4]
    3ccc:	0020      	movs	r0, r4
    3cce:	685b      	ldr	r3, [r3, #4]
    3cd0:	4798      	blx	r3
    3cd2:	2322      	movs	r3, #34	; 0x22
    3cd4:	5ee2      	ldrsh	r2, [r4, r3]
    3cd6:	2a00      	cmp	r2, #0
    3cd8:	dde2      	ble.n	3ca0 <Chip_SPIM_XferHandler.constprop.55+0x3a>
    3cda:	68e3      	ldr	r3, [r4, #12]
    3cdc:	1e19      	subs	r1, r3, #0
    3cde:	d00a      	beq.n	3cf6 <Chip_SPIM_XferHandler.constprop.55+0x90>
    3ce0:	2e08      	cmp	r6, #8
    3ce2:	d902      	bls.n	3cea <Chip_SPIM_XferHandler.constprop.55+0x84>
    3ce4:	8819      	ldrh	r1, [r3, #0]
    3ce6:	3302      	adds	r3, #2
    3ce8:	e001      	b.n	3cee <Chip_SPIM_XferHandler.constprop.55+0x88>
    3cea:	7819      	ldrb	r1, [r3, #0]
    3cec:	3301      	adds	r3, #1
    3cee:	60e3      	str	r3, [r4, #12]
    3cf0:	8ce3      	ldrh	r3, [r4, #38]	; 0x26
    3cf2:	3301      	adds	r3, #1
    3cf4:	84e3      	strh	r3, [r4, #38]	; 0x26
    3cf6:	3a01      	subs	r2, #1
    3cf8:	61e9      	str	r1, [r5, #28]
    3cfa:	8462      	strh	r2, [r4, #34]	; 0x22
    3cfc:	e7d0      	b.n	3ca0 <Chip_SPIM_XferHandler.constprop.55+0x3a>
    3cfe:	2101      	movs	r1, #1
    3d00:	68ab      	ldr	r3, [r5, #8]
    3d02:	420b      	tst	r3, r1
    3d04:	d025      	beq.n	3d52 <Chip_SPIM_XferHandler.constprop.55+0xec>
    3d06:	68a3      	ldr	r3, [r4, #8]
    3d08:	6957      	ldr	r7, [r2, #20]
    3d0a:	2b00      	cmp	r3, #0
    3d0c:	d0f7      	beq.n	3cfe <Chip_SPIM_XferHandler.constprop.55+0x98>
    3d0e:	2220      	movs	r2, #32
    3d10:	5ea3      	ldrsh	r3, [r4, r2]
    3d12:	2b00      	cmp	r3, #0
    3d14:	d103      	bne.n	3d1e <Chip_SPIM_XferHandler.constprop.55+0xb8>
    3d16:	6863      	ldr	r3, [r4, #4]
    3d18:	0020      	movs	r0, r4
    3d1a:	689b      	ldr	r3, [r3, #8]
    3d1c:	4798      	blx	r3
    3d1e:	2220      	movs	r2, #32
    3d20:	5ea3      	ldrsh	r3, [r4, r2]
    3d22:	2b00      	cmp	r3, #0
    3d24:	dc01      	bgt.n	3d2a <Chip_SPIM_XferHandler.constprop.55+0xc4>
    3d26:	4a0b      	ldr	r2, [pc, #44]	; (3d54 <Chip_SPIM_XferHandler.constprop.55+0xee>)
    3d28:	e7e9      	b.n	3cfe <Chip_SPIM_XferHandler.constprop.55+0x98>
    3d2a:	4b0c      	ldr	r3, [pc, #48]	; (3d5c <Chip_SPIM_XferHandler.constprop.55+0xf6>)
    3d2c:	401f      	ands	r7, r3
    3d2e:	68a3      	ldr	r3, [r4, #8]
    3d30:	2e08      	cmp	r6, #8
    3d32:	d903      	bls.n	3d3c <Chip_SPIM_XferHandler.constprop.55+0xd6>
    3d34:	801f      	strh	r7, [r3, #0]
    3d36:	68a3      	ldr	r3, [r4, #8]
    3d38:	3302      	adds	r3, #2
    3d3a:	e002      	b.n	3d42 <Chip_SPIM_XferHandler.constprop.55+0xdc>
    3d3c:	701f      	strb	r7, [r3, #0]
    3d3e:	68a3      	ldr	r3, [r4, #8]
    3d40:	3301      	adds	r3, #1
    3d42:	60a3      	str	r3, [r4, #8]
    3d44:	8ca3      	ldrh	r3, [r4, #36]	; 0x24
    3d46:	3301      	adds	r3, #1
    3d48:	84a3      	strh	r3, [r4, #36]	; 0x24
    3d4a:	8c23      	ldrh	r3, [r4, #32]
    3d4c:	3b01      	subs	r3, #1
    3d4e:	8423      	strh	r3, [r4, #32]
    3d50:	e7e9      	b.n	3d26 <Chip_SPIM_XferHandler.constprop.55+0xc0>
    3d52:	bdf8      	pop	{r3, r4, r5, r6, r7, pc}
    3d54:	40058000 	.word	0x40058000
    3d58:	10000500 	.word	0x10000500
    3d5c:	0011ffff 	.word	0x0011ffff

00003d60 <send_spi_data.constprop.50>:
    3d60:	0003      	movs	r3, r0
    3d62:	b570      	push	{r4, r5, r6, lr}
    3d64:	4c1a      	ldr	r4, [pc, #104]	; (3dd0 <send_spi_data.constprop.50+0x70>)
    3d66:	8563      	strh	r3, [r4, #42]	; 0x2a
    3d68:	23e0      	movs	r3, #224	; 0xe0
    3d6a:	04db      	lsls	r3, r3, #19
    3d6c:	6263      	str	r3, [r4, #36]	; 0x24
    3d6e:	0023      	movs	r3, r4
    3d70:	6121      	str	r1, [r4, #16]
    3d72:	0025      	movs	r5, r4
    3d74:	2101      	movs	r1, #1
    3d76:	3331      	adds	r3, #49	; 0x31
    3d78:	7019      	strb	r1, [r3, #0]
    3d7a:	3534      	adds	r5, #52	; 0x34
    3d7c:	0023      	movs	r3, r4
    3d7e:	6165      	str	r5, [r4, #20]
    3d80:	2500      	movs	r5, #0
    3d82:	8522      	strh	r2, [r4, #40]	; 0x28
    3d84:	22de      	movs	r2, #222	; 0xde
    3d86:	0020      	movs	r0, r4
    3d88:	3330      	adds	r3, #48	; 0x30
    3d8a:	701d      	strb	r5, [r3, #0]
    3d8c:	4b11      	ldr	r3, [pc, #68]	; (3dd4 <send_spi_data.constprop.50+0x74>)
    3d8e:	0052      	lsls	r2, r2, #1
    3d90:	681e      	ldr	r6, [r3, #0]
    3d92:	3008      	adds	r0, #8
    3d94:	4032      	ands	r2, r6
    3d96:	6060      	str	r0, [r4, #4]
    3d98:	601a      	str	r2, [r3, #0]
    3d9a:	22be      	movs	r2, #190	; 0xbe
    3d9c:	681e      	ldr	r6, [r3, #0]
    3d9e:	32ff      	adds	r2, #255	; 0xff
    3da0:	4032      	ands	r2, r6
    3da2:	430a      	orrs	r2, r1
    3da4:	601a      	str	r2, [r3, #0]
    3da6:	4a0c      	ldr	r2, [pc, #48]	; (3dd8 <send_spi_data.constprop.50+0x78>)
    3da8:	621a      	str	r2, [r3, #32]
    3daa:	22f7      	movs	r2, #247	; 0xf7
    3dac:	6a1e      	ldr	r6, [r3, #32]
    3dae:	0512      	lsls	r2, r2, #20
    3db0:	4032      	ands	r2, r6
    3db2:	621a      	str	r2, [r3, #32]
    3db4:	85e5      	strh	r5, [r4, #46]	; 0x2e
    3db6:	85a5      	strh	r5, [r4, #44]	; 0x2c
    3db8:	7021      	strb	r1, [r4, #0]
    3dba:	f7ff ff54 	bl	3c66 <Chip_SPIM_XferHandler.constprop.55>
    3dbe:	0023      	movs	r3, r4
    3dc0:	3344      	adds	r3, #68	; 0x44
    3dc2:	781a      	ldrb	r2, [r3, #0]
    3dc4:	2a00      	cmp	r2, #0
    3dc6:	d0fa      	beq.n	3dbe <send_spi_data.constprop.50+0x5e>
    3dc8:	2200      	movs	r2, #0
    3dca:	701a      	strb	r2, [r3, #0]
    3dcc:	bd70      	pop	{r4, r5, r6, pc}
    3dce:	46c0      	nop			; (mov r8, r8)
    3dd0:	10000500 	.word	0x10000500
    3dd4:	40058000 	.word	0x40058000
    3dd8:	070f0000 	.word	0x070f0000

00003ddc <ConnectToServer.constprop.45>:
    3ddc:	b5f0      	push	{r4, r5, r6, r7, lr}
    3dde:	2405      	movs	r4, #5
    3de0:	b0d1      	sub	sp, #324	; 0x144
    3de2:	f7fe ff9d 	bl	2d20 <CheckModemStatus>
    3de6:	20fa      	movs	r0, #250	; 0xfa
    3de8:	4e1e      	ldr	r6, [pc, #120]	; (3e64 <ConnectToServer.constprop.45+0x88>)
    3dea:	0040      	lsls	r0, r0, #1
    3dec:	0031      	movs	r1, r6
    3dee:	f7fe ff6d 	bl	2ccc <Delay>
    3df2:	2280      	movs	r2, #128	; 0x80
    3df4:	2100      	movs	r1, #0
    3df6:	0052      	lsls	r2, r2, #1
    3df8:	a810      	add	r0, sp, #64	; 0x40
    3dfa:	f002 f921 	bl	6040 <memset>
    3dfe:	4d1a      	ldr	r5, [pc, #104]	; (3e68 <ConnectToServer.constprop.45+0x8c>)
    3e00:	a810      	add	r0, sp, #64	; 0x40
    3e02:	0029      	movs	r1, r5
    3e04:	f002 fc9e 	bl	6744 <strcat>
    3e08:	4918      	ldr	r1, [pc, #96]	; (3e6c <ConnectToServer.constprop.45+0x90>)
    3e0a:	a810      	add	r0, sp, #64	; 0x40
    3e0c:	000f      	movs	r7, r1
    3e0e:	31c5      	adds	r1, #197	; 0xc5
    3e10:	f002 fc98 	bl	6744 <strcat>
    3e14:	3745      	adds	r7, #69	; 0x45
    3e16:	4916      	ldr	r1, [pc, #88]	; (3e70 <ConnectToServer.constprop.45+0x94>)
    3e18:	a810      	add	r0, sp, #64	; 0x40
    3e1a:	f002 fc93 	bl	6744 <strcat>
    3e1e:	0039      	movs	r1, r7
    3e20:	a810      	add	r0, sp, #64	; 0x40
    3e22:	f002 fc8f 	bl	6744 <strcat>
    3e26:	4913      	ldr	r1, [pc, #76]	; (3e74 <ConnectToServer.constprop.45+0x98>)
    3e28:	a810      	add	r0, sp, #64	; 0x40
    3e2a:	f002 fc8b 	bl	6744 <strcat>
    3e2e:	4912      	ldr	r1, [pc, #72]	; (3e78 <ConnectToServer.constprop.45+0x9c>)
    3e30:	a810      	add	r0, sp, #64	; 0x40
    3e32:	f002 f88d 	bl	5f50 <Send_ATCommand>
    3e36:	2140      	movs	r1, #64	; 0x40
    3e38:	0033      	movs	r3, r6
    3e3a:	22c8      	movs	r2, #200	; 0xc8
    3e3c:	4668      	mov	r0, sp
    3e3e:	f002 f8b5 	bl	5fac <ProcessATResponse>
    3e42:	0029      	movs	r1, r5
    3e44:	4668      	mov	r0, sp
    3e46:	310b      	adds	r1, #11
    3e48:	f002 fd2e 	bl	68a8 <strstr>
    3e4c:	2800      	cmp	r0, #0
    3e4e:	d105      	bne.n	3e5c <ConnectToServer.constprop.45+0x80>
    3e50:	3c01      	subs	r4, #1
    3e52:	b2e4      	uxtb	r4, r4
    3e54:	2c00      	cmp	r4, #0
    3e56:	d1c4      	bne.n	3de2 <ConnectToServer.constprop.45+0x6>
    3e58:	0020      	movs	r0, r4
    3e5a:	e000      	b.n	3e5e <ConnectToServer.constprop.45+0x82>
    3e5c:	2001      	movs	r0, #1
    3e5e:	b051      	add	sp, #324	; 0x144
    3e60:	bdf0      	pop	{r4, r5, r6, r7, pc}
    3e62:	46c0      	nop			; (mov r8, r8)
    3e64:	000022dd 	.word	0x000022dd
    3e68:	0000432c 	.word	0x0000432c
    3e6c:	10000500 	.word	0x10000500
    3e70:	00002182 	.word	0x00002182
    3e74:	0000433a 	.word	0x0000433a
    3e78:	00004343 	.word	0x00004343

00003e7c <nmea_parse_next_field.constprop.0>:
    3e7c:	6803      	ldr	r3, [r0, #0]
    3e7e:	781a      	ldrb	r2, [r3, #0]
    3e80:	2a2c      	cmp	r2, #44	; 0x2c
    3e82:	d005      	beq.n	3e90 <nmea_parse_next_field.constprop.0+0x14>
    3e84:	2a00      	cmp	r2, #0
    3e86:	d100      	bne.n	3e8a <nmea_parse_next_field.constprop.0+0xe>
    3e88:	e7fe      	b.n	3e88 <nmea_parse_next_field.constprop.0+0xc>
    3e8a:	3301      	adds	r3, #1
    3e8c:	6003      	str	r3, [r0, #0]
    3e8e:	e7f5      	b.n	3e7c <nmea_parse_next_field.constprop.0>
    3e90:	3301      	adds	r3, #1
    3e92:	6003      	str	r3, [r0, #0]
    3e94:	4770      	bx	lr

00003e96 <Chip_Clock_EnablePeriphClock.lto_priv.60.lto_priv.95>:
    3e96:	2101      	movs	r1, #1
    3e98:	4081      	lsls	r1, r0
    3e9a:	b510      	push	{r4, lr}
    3e9c:	4c03      	ldr	r4, [pc, #12]	; (3eac <Chip_Clock_EnablePeriphClock.lto_priv.60.lto_priv.95+0x16>)
    3e9e:	4a04      	ldr	r2, [pc, #16]	; (3eb0 <Chip_Clock_EnablePeriphClock.lto_priv.60.lto_priv.95+0x1a>)
    3ea0:	6fe3      	ldr	r3, [r4, #124]	; 0x7c
    3ea2:	4013      	ands	r3, r2
    3ea4:	430b      	orrs	r3, r1
    3ea6:	67e3      	str	r3, [r4, #124]	; 0x7c
    3ea8:	bd10      	pop	{r4, pc}
    3eaa:	46c0      	nop			; (mov r8, r8)
    3eac:	40048004 	.word	0x40048004
    3eb0:	25efffff 	.word	0x25efffff

00003eb4 <Set_PinFunctionOutput.constprop.59>:
    3eb4:	b510      	push	{r4, lr}
    3eb6:	0004      	movs	r4, r0
    3eb8:	2007      	movs	r0, #7
    3eba:	f7ff ffec 	bl	3e96 <Chip_Clock_EnablePeriphClock.lto_priv.60.lto_priv.95>
    3ebe:	2301      	movs	r3, #1
    3ec0:	22a0      	movs	r2, #160	; 0xa0
    3ec2:	218e      	movs	r1, #142	; 0x8e
    3ec4:	40a3      	lsls	r3, r4
    3ec6:	0612      	lsls	r2, r2, #24
    3ec8:	0189      	lsls	r1, r1, #6
    3eca:	5053      	str	r3, [r2, r1]
    3ecc:	2300      	movs	r3, #0
    3ece:	5513      	strb	r3, [r2, r4]
    3ed0:	4a02      	ldr	r2, [pc, #8]	; (3edc <Set_PinFunctionOutput.constprop.59+0x28>)
    3ed2:	4b03      	ldr	r3, [pc, #12]	; (3ee0 <Set_PinFunctionOutput.constprop.59+0x2c>)
    3ed4:	6fd1      	ldr	r1, [r2, #124]	; 0x7c
    3ed6:	400b      	ands	r3, r1
    3ed8:	67d3      	str	r3, [r2, #124]	; 0x7c
    3eda:	bd10      	pop	{r4, pc}
    3edc:	40048004 	.word	0x40048004
    3ee0:	25efff7f 	.word	0x25efff7f

00003ee4 <Chip_UART_IRQRBHandler>:
    3ee4:	b5f7      	push	{r0, r1, r2, r4, r5, r6, r7, lr}
    3ee6:	2704      	movs	r7, #4
    3ee8:	6883      	ldr	r3, [r0, #8]
    3eea:	0005      	movs	r5, r0
    3eec:	000c      	movs	r4, r1
    3eee:	0016      	movs	r6, r2
    3ef0:	423b      	tst	r3, r7
    3ef2:	d007      	beq.n	3f04 <Chip_UART_IRQRBHandler+0x20>
    3ef4:	0011      	movs	r1, r2
    3ef6:	f7ff fe1f 	bl	3b38 <Chip_UART_TXIntHandlerRB>
    3efa:	68f2      	ldr	r2, [r6, #12]
    3efc:	6933      	ldr	r3, [r6, #16]
    3efe:	429a      	cmp	r2, r3
    3f00:	d100      	bne.n	3f04 <Chip_UART_IRQRBHandler+0x20>
    3f02:	612f      	str	r7, [r5, #16]
    3f04:	2601      	movs	r6, #1
    3f06:	68ab      	ldr	r3, [r5, #8]
    3f08:	4233      	tst	r3, r6
    3f0a:	d017      	beq.n	3f3c <Chip_UART_IRQRBHandler+0x58>
    3f0c:	466a      	mov	r2, sp
    3f0e:	696b      	ldr	r3, [r5, #20]
    3f10:	1dd1      	adds	r1, r2, #7
    3f12:	700b      	strb	r3, [r1, #0]
    3f14:	6860      	ldr	r0, [r4, #4]
    3f16:	68e3      	ldr	r3, [r4, #12]
    3f18:	6922      	ldr	r2, [r4, #16]
    3f1a:	1a9b      	subs	r3, r3, r2
    3f1c:	4283      	cmp	r3, r0
    3f1e:	daf2      	bge.n	3f06 <Chip_UART_IRQRBHandler+0x22>
    3f20:	68e3      	ldr	r3, [r4, #12]
    3f22:	3801      	subs	r0, #1
    3f24:	4018      	ands	r0, r3
    3f26:	68a3      	ldr	r3, [r4, #8]
    3f28:	68a2      	ldr	r2, [r4, #8]
    3f2a:	4358      	muls	r0, r3
    3f2c:	6823      	ldr	r3, [r4, #0]
    3f2e:	1818      	adds	r0, r3, r0
    3f30:	f002 f882 	bl	6038 <memcpy>
    3f34:	68e3      	ldr	r3, [r4, #12]
    3f36:	3301      	adds	r3, #1
    3f38:	60e3      	str	r3, [r4, #12]
    3f3a:	e7e4      	b.n	3f06 <Chip_UART_IRQRBHandler+0x22>
    3f3c:	bdf7      	pop	{r0, r1, r2, r4, r5, r6, r7, pc}

00003f3e <Chip_UART_SendRB>:
    3f3e:	b5f7      	push	{r0, r1, r2, r4, r5, r6, r7, lr}
    3f40:	000f      	movs	r7, r1
    3f42:	001d      	movs	r5, r3
    3f44:	2304      	movs	r3, #4
    3f46:	9201      	str	r2, [sp, #4]
    3f48:	0006      	movs	r6, r0
    3f4a:	002a      	movs	r2, r5
    3f4c:	6103      	str	r3, [r0, #16]
    3f4e:	9901      	ldr	r1, [sp, #4]
    3f50:	0038      	movs	r0, r7
    3f52:	f7ff fe10 	bl	3b76 <RingBuffer_InsertMult>
    3f56:	0004      	movs	r4, r0
    3f58:	0039      	movs	r1, r7
    3f5a:	0030      	movs	r0, r6
    3f5c:	f7ff fdec 	bl	3b38 <Chip_UART_TXIntHandlerRB>
    3f60:	9b01      	ldr	r3, [sp, #4]
    3f62:	1b2a      	subs	r2, r5, r4
    3f64:	1919      	adds	r1, r3, r4
    3f66:	0038      	movs	r0, r7
    3f68:	f7ff fe05 	bl	3b76 <RingBuffer_InsertMult>
    3f6c:	2304      	movs	r3, #4
    3f6e:	1900      	adds	r0, r0, r4
    3f70:	60f3      	str	r3, [r6, #12]
    3f72:	bdfe      	pop	{r1, r2, r3, r4, r5, r6, r7, pc}

00003f74 <Chip_SYSCTL_PeriphReset.lto_priv.65.lto_priv.94>:
    3f74:	2301      	movs	r3, #1
    3f76:	4083      	lsls	r3, r0
    3f78:	4a05      	ldr	r2, [pc, #20]	; (3f90 <Chip_SYSCTL_PeriphReset.lto_priv.65.lto_priv.94+0x1c>)
    3f7a:	4806      	ldr	r0, [pc, #24]	; (3f94 <Chip_SYSCTL_PeriphReset.lto_priv.65.lto_priv.94+0x20>)
    3f7c:	6851      	ldr	r1, [r2, #4]
    3f7e:	4318      	orrs	r0, r3
    3f80:	4381      	bics	r1, r0
    3f82:	6051      	str	r1, [r2, #4]
    3f84:	6850      	ldr	r0, [r2, #4]
    3f86:	4904      	ldr	r1, [pc, #16]	; (3f98 <Chip_SYSCTL_PeriphReset.lto_priv.65.lto_priv.94+0x24>)
    3f88:	4001      	ands	r1, r0
    3f8a:	430b      	orrs	r3, r1
    3f8c:	6053      	str	r3, [r2, #4]
    3f8e:	4770      	bx	lr
    3f90:	40048000 	.word	0x40048000
    3f94:	fffe2000 	.word	0xfffe2000
    3f98:	0001dfff 	.word	0x0001dfff

00003f9c <Chip_Clock_GetUSARTNBaseClockRate>:
    3f9c:	b510      	push	{r4, lr}
    3f9e:	2000      	movs	r0, #0
    3fa0:	24ff      	movs	r4, #255	; 0xff
    3fa2:	4b0f      	ldr	r3, [pc, #60]	; (3fe0 <Chip_Clock_GetUSARTNBaseClockRate+0x44>)
    3fa4:	6819      	ldr	r1, [r3, #0]
    3fa6:	4021      	ands	r1, r4
    3fa8:	4281      	cmp	r1, r0
    3faa:	d017      	beq.n	3fdc <Chip_Clock_GetUSARTNBaseClockRate+0x40>
    3fac:	4b0d      	ldr	r3, [pc, #52]	; (3fe4 <Chip_Clock_GetUSARTNBaseClockRate+0x48>)
    3fae:	6898      	ldr	r0, [r3, #8]
    3fb0:	231f      	movs	r3, #31
    3fb2:	4018      	ands	r0, r3
    3fb4:	4b0c      	ldr	r3, [pc, #48]	; (3fe8 <Chip_Clock_GetUSARTNBaseClockRate+0x4c>)
    3fb6:	3001      	adds	r0, #1
    3fb8:	4358      	muls	r0, r3
    3fba:	f7fc f889 	bl	d0 <__aeabi_uidiv>
    3fbe:	4b0b      	ldr	r3, [pc, #44]	; (3fec <Chip_Clock_GetUSARTNBaseClockRate+0x50>)
    3fc0:	681a      	ldr	r2, [r3, #0]
    3fc2:	4014      	ands	r4, r2
    3fc4:	2cff      	cmp	r4, #255	; 0xff
    3fc6:	d109      	bne.n	3fdc <Chip_Clock_GetUSARTNBaseClockRate+0x40>
    3fc8:	4b09      	ldr	r3, [pc, #36]	; (3ff0 <Chip_Clock_GetUSARTNBaseClockRate+0x54>)
    3fca:	0e01      	lsrs	r1, r0, #24
    3fcc:	681a      	ldr	r2, [r3, #0]
    3fce:	0200      	lsls	r0, r0, #8
    3fd0:	4014      	ands	r4, r2
    3fd2:	1c62      	adds	r2, r4, #1
    3fd4:	32ff      	adds	r2, #255	; 0xff
    3fd6:	2300      	movs	r3, #0
    3fd8:	f003 fb6a 	bl	76b0 <__aeabi_uldivmod>
    3fdc:	bd10      	pop	{r4, pc}
    3fde:	46c0      	nop			; (mov r8, r8)
    3fe0:	40048094 	.word	0x40048094
    3fe4:	40048000 	.word	0x40048000
    3fe8:	00b71b00 	.word	0x00b71b00
    3fec:	400480f0 	.word	0x400480f0
    3ff0:	400480f4 	.word	0x400480f4

00003ff4 <Chip_UART_SetBaud>:
    3ff4:	b570      	push	{r4, r5, r6, lr}
    3ff6:	000c      	movs	r4, r1
    3ff8:	0005      	movs	r5, r0
    3ffa:	f7ff ffcf 	bl	3f9c <Chip_Clock_GetUSARTNBaseClockRate>
    3ffe:	0121      	lsls	r1, r4, #4
    4000:	f7fc f866 	bl	d0 <__aeabi_uidiv>
    4004:	3801      	subs	r0, #1
    4006:	6228      	str	r0, [r5, #32]
    4008:	bd70      	pop	{r4, r5, r6, pc}

0000400a <Chip_Clock_GetSystemClockRate>:
    400a:	4b06      	ldr	r3, [pc, #24]	; (4024 <Chip_Clock_GetSystemClockRate+0x1a>)
    400c:	b510      	push	{r4, lr}
    400e:	6898      	ldr	r0, [r3, #8]
    4010:	6f99      	ldr	r1, [r3, #120]	; 0x78
    4012:	231f      	movs	r3, #31
    4014:	4018      	ands	r0, r3
    4016:	4b04      	ldr	r3, [pc, #16]	; (4028 <Chip_Clock_GetSystemClockRate+0x1e>)
    4018:	3001      	adds	r0, #1
    401a:	4358      	muls	r0, r3
    401c:	b2c9      	uxtb	r1, r1
    401e:	f7fc f857 	bl	d0 <__aeabi_uidiv>
    4022:	bd10      	pop	{r4, pc}
    4024:	40048000 	.word	0x40048000
    4028:	00b71b00 	.word	0x00b71b00

0000402c <crc16>:
    402c:	0003      	movs	r3, r0
    402e:	2000      	movs	r0, #0
    4030:	b570      	push	{r4, r5, r6, lr}
    4032:	4d0b      	ldr	r5, [pc, #44]	; (4060 <crc16+0x34>)
    4034:	781a      	ldrb	r2, [r3, #0]
    4036:	0212      	lsls	r2, r2, #8
    4038:	4050      	eors	r0, r2
    403a:	2208      	movs	r2, #8
    403c:	b206      	sxth	r6, r0
    403e:	0044      	lsls	r4, r0, #1
    4040:	b2a0      	uxth	r0, r4
    4042:	2e00      	cmp	r6, #0
    4044:	da01      	bge.n	404a <crc16+0x1e>
    4046:	406c      	eors	r4, r5
    4048:	b2a0      	uxth	r0, r4
    404a:	3a01      	subs	r2, #1
    404c:	b2d2      	uxtb	r2, r2
    404e:	2a00      	cmp	r2, #0
    4050:	d1f4      	bne.n	403c <crc16+0x10>
    4052:	3901      	subs	r1, #1
    4054:	b289      	uxth	r1, r1
    4056:	3301      	adds	r3, #1
    4058:	2900      	cmp	r1, #0
    405a:	d1eb      	bne.n	4034 <crc16+0x8>
    405c:	bd70      	pop	{r4, r5, r6, pc}
    405e:	46c0      	nop			; (mov r8, r8)
    4060:	00001021 	.word	0x00001021

00004064 <UART0_IRQHandler>:
    4064:	4904      	ldr	r1, [pc, #16]	; (4078 <UART0_IRQHandler+0x14>)
    4066:	b510      	push	{r4, lr}
    4068:	000a      	movs	r2, r1
    406a:	4804      	ldr	r0, [pc, #16]	; (407c <UART0_IRQHandler+0x18>)
    406c:	3250      	adds	r2, #80	; 0x50
    406e:	3164      	adds	r1, #100	; 0x64
    4070:	f7ff ff38 	bl	3ee4 <Chip_UART_IRQRBHandler>
    4074:	bd10      	pop	{r4, pc}
    4076:	46c0      	nop			; (mov r8, r8)
    4078:	10000580 	.word	0x10000580
    407c:	40064000 	.word	0x40064000

00004080 <PRINT_INT>:
    4080:	b51f      	push	{r0, r1, r2, r3, r4, lr}
    4082:	220a      	movs	r2, #10
    4084:	4669      	mov	r1, sp
    4086:	f002 f991 	bl	63ac <itoa>
    408a:	4668      	mov	r0, sp
    408c:	f002 fbb6 	bl	67fc <strlen>
    4090:	4904      	ldr	r1, [pc, #16]	; (40a4 <PRINT_INT+0x24>)
    4092:	0003      	movs	r3, r0
    4094:	466a      	mov	r2, sp
    4096:	3150      	adds	r1, #80	; 0x50
    4098:	4803      	ldr	r0, [pc, #12]	; (40a8 <PRINT_INT+0x28>)
    409a:	f7ff ff50 	bl	3f3e <Chip_UART_SendRB>
    409e:	b005      	add	sp, #20
    40a0:	bd00      	pop	{pc}
    40a2:	46c0      	nop			; (mov r8, r8)
    40a4:	10000580 	.word	0x10000580
    40a8:	40064000 	.word	0x40064000

000040ac <PRINT_K>:
    40ac:	b510      	push	{r4, lr}
    40ae:	0004      	movs	r4, r0
    40b0:	f002 fba4 	bl	67fc <strlen>
    40b4:	4903      	ldr	r1, [pc, #12]	; (40c4 <PRINT_K+0x18>)
    40b6:	0003      	movs	r3, r0
    40b8:	0022      	movs	r2, r4
    40ba:	3150      	adds	r1, #80	; 0x50
    40bc:	4802      	ldr	r0, [pc, #8]	; (40c8 <PRINT_K+0x1c>)
    40be:	f7ff ff3e 	bl	3f3e <Chip_UART_SendRB>
    40c2:	bd10      	pop	{r4, pc}
    40c4:	10000580 	.word	0x10000580
    40c8:	40064000 	.word	0x40064000

000040cc <XModemReadByte>:
    40cc:	4a0d      	ldr	r2, [pc, #52]	; (4104 <XModemReadByte+0x38>)
    40ce:	b510      	push	{r4, lr}
    40d0:	8813      	ldrh	r3, [r2, #0]
    40d2:	8851      	ldrh	r1, [r2, #2]
    40d4:	0014      	movs	r4, r2
    40d6:	4299      	cmp	r1, r3
    40d8:	d80d      	bhi.n	40f6 <XModemReadByte+0x2a>
    40da:	1d10      	adds	r0, r2, #4
    40dc:	490a      	ldr	r1, [pc, #40]	; (4108 <XModemReadByte+0x3c>)
    40de:	2200      	movs	r2, #0
    40e0:	f7fe fc84 	bl	29ec <Get_GsmTcpBuffer>
    40e4:	8060      	strh	r0, [r4, #2]
    40e6:	2800      	cmp	r0, #0
    40e8:	d002      	beq.n	40f0 <XModemReadByte+0x24>
    40ea:	4808      	ldr	r0, [pc, #32]	; (410c <XModemReadByte+0x40>)
    40ec:	f7ff ffde 	bl	40ac <PRINT_K>
    40f0:	2000      	movs	r0, #0
    40f2:	8020      	strh	r0, [r4, #0]
    40f4:	e005      	b.n	4102 <XModemReadByte+0x36>
    40f6:	1c59      	adds	r1, r3, #1
    40f8:	18d3      	adds	r3, r2, r3
    40fa:	791b      	ldrb	r3, [r3, #4]
    40fc:	8011      	strh	r1, [r2, #0]
    40fe:	7003      	strb	r3, [r0, #0]
    4100:	2001      	movs	r0, #1
    4102:	bd10      	pop	{r4, pc}
    4104:	10000f0c 	.word	0x10000f0c
    4108:	0000041a 	.word	0x0000041a
    410c:	00004352 	.word	0x00004352

00004110 <PRINT_LN>:
    4110:	b510      	push	{r4, lr}
    4112:	0004      	movs	r4, r0
    4114:	4803      	ldr	r0, [pc, #12]	; (4124 <PRINT_LN+0x14>)
    4116:	f7ff ffc9 	bl	40ac <PRINT_K>
    411a:	0020      	movs	r0, r4
    411c:	f7ff ffc6 	bl	40ac <PRINT_K>
    4120:	bd10      	pop	{r4, pc}
    4122:	46c0      	nop			; (mov r8, r8)
    4124:	00004ded 	.word	0x00004ded

00004128 <Hex2Str>:
    4128:	2300      	movs	r3, #0
    412a:	001a      	movs	r2, r3
    412c:	b5f0      	push	{r4, r5, r6, r7, lr}
    412e:	4f08      	ldr	r7, [pc, #32]	; (4150 <Hex2Str+0x28>)
    4130:	000d      	movs	r5, r1
    4132:	240f      	movs	r4, #15
    4134:	4025      	ands	r5, r4
    4136:	5d7e      	ldrb	r6, [r7, r5]
    4138:	1a84      	subs	r4, r0, r2
    413a:	71e6      	strb	r6, [r4, #7]
    413c:	0909      	lsrs	r1, r1, #4
    413e:	2d00      	cmp	r5, #0
    4140:	d000      	beq.n	4144 <Hex2Str+0x1c>
    4142:	0013      	movs	r3, r2
    4144:	3201      	adds	r2, #1
    4146:	2a08      	cmp	r2, #8
    4148:	d1f2      	bne.n	4130 <Hex2Str+0x8>
    414a:	1c58      	adds	r0, r3, #1
    414c:	bdf0      	pop	{r4, r5, r6, r7, pc}
    414e:	46c0      	nop			; (mov r8, r8)
    4150:	00004361 	.word	0x00004361

00004154 <Print_Val>:
    4154:	b57f      	push	{r0, r1, r2, r3, r4, r5, r6, lr}
    4156:	2300      	movs	r3, #0
    4158:	ac01      	add	r4, sp, #4
    415a:	000e      	movs	r6, r1
    415c:	0005      	movs	r5, r0
    415e:	7223      	strb	r3, [r4, #8]
    4160:	f002 fb4c 	bl	67fc <strlen>
    4164:	4907      	ldr	r1, [pc, #28]	; (4184 <Print_Val+0x30>)
    4166:	0003      	movs	r3, r0
    4168:	002a      	movs	r2, r5
    416a:	3150      	adds	r1, #80	; 0x50
    416c:	4806      	ldr	r0, [pc, #24]	; (4188 <Print_Val+0x34>)
    416e:	f7ff fee6 	bl	3f3e <Chip_UART_SendRB>
    4172:	0031      	movs	r1, r6
    4174:	0020      	movs	r0, r4
    4176:	f7ff ffd7 	bl	4128 <Hex2Str>
    417a:	1a20      	subs	r0, r4, r0
    417c:	3008      	adds	r0, #8
    417e:	f7ff ff95 	bl	40ac <PRINT_K>
    4182:	bd7f      	pop	{r0, r1, r2, r3, r4, r5, r6, pc}
    4184:	10000580 	.word	0x10000580
    4188:	40064000 	.word	0x40064000

0000418c <NVIC_SystemReset.lto_priv.68.lto_priv.74>:
    418c:	f3bf 8f4f 	dsb	sy
    4190:	4a02      	ldr	r2, [pc, #8]	; (419c <NVIC_SystemReset.lto_priv.68.lto_priv.74+0x10>)
    4192:	4b03      	ldr	r3, [pc, #12]	; (41a0 <NVIC_SystemReset.lto_priv.68.lto_priv.74+0x14>)
    4194:	60da      	str	r2, [r3, #12]
    4196:	f3bf 8f4f 	dsb	sy
    419a:	e7fe      	b.n	419a <NVIC_SystemReset.lto_priv.68.lto_priv.74+0xe>
    419c:	05fa0004 	.word	0x05fa0004
    41a0:	e000ed00 	.word	0xe000ed00

000041a4 <mn_timer_expired>:
    41a4:	4b0d      	ldr	r3, [pc, #52]	; (41dc <mn_timer_expired+0x38>)
    41a6:	b082      	sub	sp, #8
    41a8:	6f9b      	ldr	r3, [r3, #120]	; 0x78
    41aa:	9301      	str	r3, [sp, #4]
    41ac:	7a03      	ldrb	r3, [r0, #8]
    41ae:	9901      	ldr	r1, [sp, #4]
    41b0:	2b00      	cmp	r3, #0
    41b2:	d007      	beq.n	41c4 <mn_timer_expired+0x20>
    41b4:	6802      	ldr	r2, [r0, #0]
    41b6:	2300      	movs	r3, #0
    41b8:	428a      	cmp	r2, r1
    41ba:	d90b      	bls.n	41d4 <mn_timer_expired+0x30>
    41bc:	6842      	ldr	r2, [r0, #4]
    41be:	428a      	cmp	r2, r1
    41c0:	419b      	sbcs	r3, r3
    41c2:	e006      	b.n	41d2 <mn_timer_expired+0x2e>
    41c4:	6842      	ldr	r2, [r0, #4]
    41c6:	2301      	movs	r3, #1
    41c8:	428a      	cmp	r2, r1
    41ca:	d303      	bcc.n	41d4 <mn_timer_expired+0x30>
    41cc:	6803      	ldr	r3, [r0, #0]
    41ce:	4299      	cmp	r1, r3
    41d0:	419b      	sbcs	r3, r3
    41d2:	425b      	negs	r3, r3
    41d4:	0018      	movs	r0, r3
    41d6:	b002      	add	sp, #8
    41d8:	4770      	bx	lr
    41da:	46c0      	nop			; (mov r8, r8)
    41dc:	10000580 	.word	0x10000580

000041e0 <Set_Timer>:
    41e0:	4b07      	ldr	r3, [pc, #28]	; (4200 <Set_Timer+0x20>)
    41e2:	b082      	sub	sp, #8
    41e4:	6f9b      	ldr	r3, [r3, #120]	; 0x78
    41e6:	9301      	str	r3, [sp, #4]
    41e8:	9b01      	ldr	r3, [sp, #4]
    41ea:	18c9      	adds	r1, r1, r3
    41ec:	6003      	str	r3, [r0, #0]
    41ee:	6041      	str	r1, [r0, #4]
    41f0:	4299      	cmp	r1, r3
    41f2:	d301      	bcc.n	41f8 <Set_Timer+0x18>
    41f4:	2300      	movs	r3, #0
    41f6:	e000      	b.n	41fa <Set_Timer+0x1a>
    41f8:	2301      	movs	r3, #1
    41fa:	7203      	strb	r3, [r0, #8]
    41fc:	b002      	add	sp, #8
    41fe:	4770      	bx	lr
    4200:	10000580 	.word	0x10000580

00004204 <Get_UartLine.constprop.38>:
    4204:	b5f0      	push	{r4, r5, r6, r7, lr}
    4206:	b087      	sub	sp, #28
    4208:	001c      	movs	r4, r3
    420a:	ab0c      	add	r3, sp, #48	; 0x30
    420c:	781b      	ldrb	r3, [r3, #0]
    420e:	000e      	movs	r6, r1
    4210:	9301      	str	r3, [sp, #4]
    4212:	ab02      	add	r3, sp, #8
    4214:	1cdd      	adds	r5, r3, #3
    4216:	2300      	movs	r3, #0
    4218:	0029      	movs	r1, r5
    421a:	0030      	movs	r0, r6
    421c:	0017      	movs	r7, r2
    421e:	702b      	strb	r3, [r5, #0]
    4220:	f7ff fce6 	bl	3bf0 <RingBuffer_PopMult.constprop.58>
    4224:	2800      	cmp	r0, #0
    4226:	d101      	bne.n	422c <Get_UartLine.constprop.38+0x28>
    4228:	2000      	movs	r0, #0
    422a:	e022      	b.n	4272 <Get_UartLine.constprop.38+0x6e>
    422c:	782b      	ldrb	r3, [r5, #0]
    422e:	42a3      	cmp	r3, r4
    4230:	d1fa      	bne.n	4228 <Get_UartLine.constprop.38+0x24>
    4232:	703b      	strb	r3, [r7, #0]
    4234:	2102      	movs	r1, #2
    4236:	a803      	add	r0, sp, #12
    4238:	f7ff ffd2 	bl	41e0 <Set_Timer>
    423c:	2401      	movs	r4, #1
    423e:	a803      	add	r0, sp, #12
    4240:	f7ff ffb0 	bl	41a4 <mn_timer_expired>
    4244:	2800      	cmp	r0, #0
    4246:	d1ef      	bne.n	4228 <Get_UartLine.constprop.38+0x24>
    4248:	0029      	movs	r1, r5
    424a:	0030      	movs	r0, r6
    424c:	f7ff fcd0 	bl	3bf0 <RingBuffer_PopMult.constprop.58>
    4250:	2800      	cmp	r0, #0
    4252:	d0f4      	beq.n	423e <Get_UartLine.constprop.38+0x3a>
    4254:	2102      	movs	r1, #2
    4256:	a803      	add	r0, sp, #12
    4258:	f7ff ffc2 	bl	41e0 <Set_Timer>
    425c:	2c80      	cmp	r4, #128	; 0x80
    425e:	d803      	bhi.n	4268 <Get_UartLine.constprop.38+0x64>
    4260:	782a      	ldrb	r2, [r5, #0]
    4262:	1c63      	adds	r3, r4, #1
    4264:	553a      	strb	r2, [r7, r4]
    4266:	b29c      	uxth	r4, r3
    4268:	782b      	ldrb	r3, [r5, #0]
    426a:	9a01      	ldr	r2, [sp, #4]
    426c:	4293      	cmp	r3, r2
    426e:	d1e6      	bne.n	423e <Get_UartLine.constprop.38+0x3a>
    4270:	0020      	movs	r0, r4
    4272:	b007      	add	sp, #28
    4274:	bdf0      	pop	{r4, r5, r6, r7, pc}

00004276 <Trio_DebugPortTask>:
    4276:	b530      	push	{r4, r5, lr}
    4278:	4c21      	ldr	r4, [pc, #132]	; (4300 <Trio_DebugPortTask+0x8a>)
    427a:	b0c9      	sub	sp, #292	; 0x124
    427c:	0025      	movs	r5, r4
    427e:	357c      	adds	r5, #124	; 0x7c
    4280:	2280      	movs	r2, #128	; 0x80
    4282:	2100      	movs	r1, #0
    4284:	0028      	movs	r0, r5
    4286:	f001 fedb 	bl	6040 <memset>
    428a:	2202      	movs	r2, #2
    428c:	2100      	movs	r1, #0
    428e:	32ff      	adds	r2, #255	; 0xff
    4290:	a807      	add	r0, sp, #28
    4292:	f001 fed5 	bl	6040 <memset>
    4296:	2321      	movs	r3, #33	; 0x21
    4298:	0021      	movs	r1, r4
    429a:	9300      	str	r3, [sp, #0]
    429c:	3164      	adds	r1, #100	; 0x64
    429e:	3302      	adds	r3, #2
    42a0:	002a      	movs	r2, r5
    42a2:	4818      	ldr	r0, [pc, #96]	; (4304 <Trio_DebugPortTask+0x8e>)
    42a4:	f7ff ffae 	bl	4204 <Get_UartLine.constprop.38>
    42a8:	2800      	cmp	r0, #0
    42aa:	d011      	beq.n	42d0 <Trio_DebugPortTask+0x5a>
    42ac:	2202      	movs	r2, #2
    42ae:	a907      	add	r1, sp, #28
    42b0:	0028      	movs	r0, r5
    42b2:	f001 f9d3 	bl	565c <ProcessReceivedData>
    42b6:	2801      	cmp	r0, #1
    42b8:	d102      	bne.n	42c0 <Trio_DebugPortTask+0x4a>
    42ba:	a807      	add	r0, sp, #28
    42bc:	f7ff fef6 	bl	40ac <PRINT_K>
    42c0:	231c      	movs	r3, #28
    42c2:	33ff      	adds	r3, #255	; 0xff
    42c4:	446b      	add	r3, sp
    42c6:	785b      	ldrb	r3, [r3, #1]
    42c8:	2b00      	cmp	r3, #0
    42ca:	d001      	beq.n	42d0 <Trio_DebugPortTask+0x5a>
    42cc:	f7ff ff5e 	bl	418c <NVIC_SystemReset.lto_priv.68.lto_priv.74>
    42d0:	4c0d      	ldr	r4, [pc, #52]	; (4308 <Trio_DebugPortTask+0x92>)
    42d2:	ad02      	add	r5, sp, #8
    42d4:	347c      	adds	r4, #124	; 0x7c
    42d6:	2212      	movs	r2, #18
    42d8:	0021      	movs	r1, r4
    42da:	0028      	movs	r0, r5
    42dc:	f001 feac 	bl	6038 <memcpy>
    42e0:	786b      	ldrb	r3, [r5, #1]
    42e2:	2b03      	cmp	r3, #3
    42e4:	d10a      	bne.n	42fc <Trio_DebugPortTask+0x86>
    42e6:	782b      	ldrb	r3, [r5, #0]
    42e8:	2b02      	cmp	r3, #2
    42ea:	d107      	bne.n	42fc <Trio_DebugPortTask+0x86>
    42ec:	a807      	add	r0, sp, #28
    42ee:	f001 fa99 	bl	5824 <PrepareBlockageEchoPacket>
    42f2:	a807      	add	r0, sp, #28
    42f4:	f7ff feda 	bl	40ac <PRINT_K>
    42f8:	2300      	movs	r3, #0
    42fa:	7063      	strb	r3, [r4, #1]
    42fc:	b049      	add	sp, #292	; 0x124
    42fe:	bd30      	pop	{r4, r5, pc}
    4300:	10000580 	.word	0x10000580
    4304:	40064000 	.word	0x40064000
    4308:	10000600 	.word	0x10000600

0000430c <SysTick_Handler>:
    430c:	4a02      	ldr	r2, [pc, #8]	; (4318 <SysTick_Handler+0xc>)
    430e:	6f93      	ldr	r3, [r2, #120]	; 0x78
    4310:	3301      	adds	r3, #1
    4312:	6793      	str	r3, [r2, #120]	; 0x78
    4314:	4770      	bx	lr
    4316:	46c0      	nop			; (mov r8, r8)
    4318:	10000580 	.word	0x10000580

0000431c <Get_IgnitionPinStatus>:
    431c:	23a0      	movs	r3, #160	; 0xa0
    431e:	061b      	lsls	r3, r3, #24
    4320:	7b98      	ldrb	r0, [r3, #14]
    4322:	4243      	negs	r3, r0
    4324:	4158      	adcs	r0, r3
    4326:	b2c0      	uxtb	r0, r0
    4328:	4770      	bx	lr
    432a:	46c0      	nop			; (mov r8, r8)

0000432c <Command_TCPConnect>:
    432c:	5441 5323 3d44 2c31 2c30 4f00                    AT#SD=1,0,.

00004337 <RespOK.lto_priv.77>:
    4337:	4b4f 2200 302c 302c 312c 000d 430a 6e6f     OK.",0,0,1...Con
    4347:	656e 7463 6e69 2e67 2e2e 5000 6761 2065     necting....Page 
    4357:	6572 6563 7669 6465 000a 3130 3332 3534     received..012345
    4367:	3736 3938 4241 4443 4645 ff00 05ff               6789ABCDEF...

00004374 <IncreaseIdleTimeCounters>:
    4374:	4b05      	ldr	r3, [pc, #20]	; (438c <IncreaseIdleTimeCounters+0x18>)
    4376:	699a      	ldr	r2, [r3, #24]
    4378:	3201      	adds	r2, #1
    437a:	619a      	str	r2, [r3, #24]
    437c:	6eda      	ldr	r2, [r3, #108]	; 0x6c
    437e:	3201      	adds	r2, #1
    4380:	66da      	str	r2, [r3, #108]	; 0x6c
    4382:	69da      	ldr	r2, [r3, #28]
    4384:	3201      	adds	r2, #1
    4386:	61da      	str	r2, [r3, #28]
    4388:	4770      	bx	lr
    438a:	46c0      	nop			; (mov r8, r8)
    438c:	10000690 	.word	0x10000690

00004390 <Init_IdleInfo>:
    4390:	b530      	push	{r4, r5, lr}
    4392:	b0c1      	sub	sp, #260	; 0x104
    4394:	a801      	add	r0, sp, #4
    4396:	f001 fa03 	bl	57a0 <Get_UserSettings>
    439a:	2202      	movs	r2, #2
    439c:	4c09      	ldr	r4, [pc, #36]	; (43c4 <Init_IdleInfo+0x34>)
    439e:	2564      	movs	r5, #100	; 0x64
    43a0:	1c63      	adds	r3, r4, #1
    43a2:	77da      	strb	r2, [r3, #31]
    43a4:	2300      	movs	r3, #0
    43a6:	993d      	ldr	r1, [sp, #244]	; 0xf4
    43a8:	0020      	movs	r0, r4
    43aa:	4369      	muls	r1, r5
    43ac:	61a3      	str	r3, [r4, #24]
    43ae:	61e3      	str	r3, [r4, #28]
    43b0:	f7ff ff16 	bl	41e0 <Set_Timer>
    43b4:	0020      	movs	r0, r4
    43b6:	0029      	movs	r1, r5
    43b8:	300c      	adds	r0, #12
    43ba:	f7ff ff11 	bl	41e0 <Set_Timer>
    43be:	b041      	add	sp, #260	; 0x104
    43c0:	bd30      	pop	{r4, r5, pc}
    43c2:	46c0      	nop			; (mov r8, r8)
    43c4:	10000690 	.word	0x10000690

000043c8 <Init_TripInfo>:
    43c8:	b5f0      	push	{r4, r5, r6, r7, lr}
    43ca:	b091      	sub	sp, #68	; 0x44
    43cc:	0006      	movs	r6, r0
    43ce:	4668      	mov	r0, sp
    43d0:	f000 ff48 	bl	5264 <Get_PositionInfo>
    43d4:	4d14      	ldr	r5, [pc, #80]	; (4428 <Init_TripInfo+0x60>)
    43d6:	2240      	movs	r2, #64	; 0x40
    43d8:	002f      	movs	r7, r5
    43da:	3724      	adds	r7, #36	; 0x24
    43dc:	ac06      	add	r4, sp, #24
    43de:	2100      	movs	r1, #0
    43e0:	0038      	movs	r0, r7
    43e2:	f001 fe2d 	bl	6040 <memset>
    43e6:	0020      	movs	r0, r4
    43e8:	f000 ff5e 	bl	52a8 <Get_RMCInfo>
    43ec:	0021      	movs	r1, r4
    43ee:	0038      	movs	r0, r7
    43f0:	f7ff f9bb 	bl	376a <Add_GpsDateTimeInfo>
    43f4:	0021      	movs	r1, r4
    43f6:	f7ff f92b 	bl	3650 <Add_GpsCoordinatesInfo>
    43fa:	0021      	movs	r1, r4
    43fc:	f7ff f90a 	bl	3614 <Add_GpsSpeedInfo>
    4400:	0021      	movs	r1, r4
    4402:	f7ff f8ef 	bl	35e4 <Add_GpsCourseInfo>
    4406:	7c21      	ldrb	r1, [r4, #16]
    4408:	0007      	movs	r7, r0
    440a:	7920      	ldrb	r0, [r4, #4]
    440c:	f7fe f960 	bl	26d0 <get_ewns_code>
    4410:	2300      	movs	r3, #0
    4412:	7038      	strb	r0, [r7, #0]
    4414:	9804      	ldr	r0, [sp, #16]
    4416:	9905      	ldr	r1, [sp, #20]
    4418:	66eb      	str	r3, [r5, #108]	; 0x6c
    441a:	f002 ffdb 	bl	73d4 <__aeabi_d2uiz>
    441e:	6668      	str	r0, [r5, #100]	; 0x64
    4420:	3570      	adds	r5, #112	; 0x70
    4422:	702e      	strb	r6, [r5, #0]
    4424:	b011      	add	sp, #68	; 0x44
    4426:	bdf0      	pop	{r4, r5, r6, r7, pc}
    4428:	10000690 	.word	0x10000690

0000442c <Get_EventStatus>:
    442c:	4b02      	ldr	r3, [pc, #8]	; (4438 <Get_EventStatus+0xc>)
    442e:	6f58      	ldr	r0, [r3, #116]	; 0x74
    4430:	1e43      	subs	r3, r0, #1
    4432:	4198      	sbcs	r0, r3
    4434:	b2c0      	uxtb	r0, r0
    4436:	4770      	bx	lr
    4438:	10000690 	.word	0x10000690

0000443c <PIN_INT0_IRQHandler>:
    443c:	2301      	movs	r3, #1
    443e:	b510      	push	{r4, lr}
    4440:	4c0c      	ldr	r4, [pc, #48]	; (4474 <PIN_INT0_IRQHandler+0x38>)
    4442:	69e1      	ldr	r1, [r4, #28]
    4444:	6a22      	ldr	r2, [r4, #32]
    4446:	4219      	tst	r1, r3
    4448:	d001      	beq.n	444e <PIN_INT0_IRQHandler+0x12>
    444a:	61e3      	str	r3, [r4, #28]
    444c:	e002      	b.n	4454 <PIN_INT0_IRQHandler+0x18>
    444e:	421a      	tst	r2, r3
    4450:	d000      	beq.n	4454 <PIN_INT0_IRQHandler+0x18>
    4452:	6223      	str	r3, [r4, #32]
    4454:	23a0      	movs	r3, #160	; 0xa0
    4456:	4808      	ldr	r0, [pc, #32]	; (4478 <PIN_INT0_IRQHandler+0x3c>)
    4458:	061b      	lsls	r3, r3, #24
    445a:	7c5b      	ldrb	r3, [r3, #17]
    445c:	0002      	movs	r2, r0
    445e:	4259      	negs	r1, r3
    4460:	414b      	adcs	r3, r1
    4462:	3278      	adds	r2, #120	; 0x78
    4464:	307c      	adds	r0, #124	; 0x7c
    4466:	210a      	movs	r1, #10
    4468:	7013      	strb	r3, [r2, #0]
    446a:	f7ff feb9 	bl	41e0 <Set_Timer>
    446e:	2301      	movs	r3, #1
    4470:	6263      	str	r3, [r4, #36]	; 0x24
    4472:	bd10      	pop	{r4, pc}
    4474:	a0004000 	.word	0xa0004000
    4478:	10000690 	.word	0x10000690

0000447c <wait_spi_busy_timeout.lto_priv.72>:
    447c:	b530      	push	{r4, r5, lr}
    447e:	2505      	movs	r5, #5
    4480:	b085      	sub	sp, #20
    4482:	0001      	movs	r1, r0
    4484:	a801      	add	r0, sp, #4
    4486:	f7ff feab 	bl	41e0 <Set_Timer>
    448a:	4c09      	ldr	r4, [pc, #36]	; (44b0 <wait_spi_busy_timeout.lto_priv.72+0x34>)
    448c:	2202      	movs	r2, #2
    448e:	4669      	mov	r1, sp
    4490:	0010      	movs	r0, r2
    4492:	7025      	strb	r5, [r4, #0]
    4494:	f7ff fc64 	bl	3d60 <send_spi_data.constprop.50>
    4498:	466b      	mov	r3, sp
    449a:	785b      	ldrb	r3, [r3, #1]
    449c:	07db      	lsls	r3, r3, #31
    449e:	d504      	bpl.n	44aa <wait_spi_busy_timeout.lto_priv.72+0x2e>
    44a0:	a801      	add	r0, sp, #4
    44a2:	f7ff fe7f 	bl	41a4 <mn_timer_expired>
    44a6:	2800      	cmp	r0, #0
    44a8:	d0f0      	beq.n	448c <wait_spi_busy_timeout.lto_priv.72+0x10>
    44aa:	b005      	add	sp, #20
    44ac:	bd30      	pop	{r4, r5, pc}
    44ae:	46c0      	nop			; (mov r8, r8)
    44b0:	10000534 	.word	0x10000534

000044b4 <Get_LogPeriod>:
    44b4:	b510      	push	{r4, lr}
    44b6:	f7ff ff31 	bl	431c <Get_IgnitionPinStatus>
    44ba:	2800      	cmp	r0, #0
    44bc:	d004      	beq.n	44c8 <Get_LogPeriod+0x14>
    44be:	f001 fd01 	bl	5ec4 <Get_DataSendPeriod>
    44c2:	4b06      	ldr	r3, [pc, #24]	; (44dc <Get_LogPeriod+0x28>)
    44c4:	0002      	movs	r2, r0
    44c6:	e003      	b.n	44d0 <Get_LogPeriod+0x1c>
    44c8:	f001 fcfc 	bl	5ec4 <Get_DataSendPeriod>
    44cc:	0002      	movs	r2, r0
    44ce:	4b04      	ldr	r3, [pc, #16]	; (44e0 <Get_LogPeriod+0x2c>)
    44d0:	0018      	movs	r0, r3
    44d2:	429a      	cmp	r2, r3
    44d4:	d901      	bls.n	44da <Get_LogPeriod+0x26>
    44d6:	f001 fcf5 	bl	5ec4 <Get_DataSendPeriod>
    44da:	bd10      	pop	{r4, pc}
    44dc:	000005dc 	.word	0x000005dc
    44e0:	00015f90 	.word	0x00015f90

000044e4 <Trio_StatusTask>:
    44e4:	b5f0      	push	{r4, r5, r6, r7, lr}
    44e6:	b0e1      	sub	sp, #388	; 0x184
    44e8:	a821      	add	r0, sp, #132	; 0x84
    44ea:	ad0f      	add	r5, sp, #60	; 0x3c
    44ec:	f001 f958 	bl	57a0 <Get_UserSettings>
    44f0:	0028      	movs	r0, r5
    44f2:	f000 febf 	bl	5274 <Get_GGAInfo>
    44f6:	ac17      	add	r4, sp, #92	; 0x5c
    44f8:	a803      	add	r0, sp, #12
    44fa:	f000 fec9 	bl	5290 <Get_GSAInfo>
    44fe:	0020      	movs	r0, r4
    4500:	f000 fed2 	bl	52a8 <Get_RMCInfo>
    4504:	4ac2      	ldr	r2, [pc, #776]	; (4810 <Trio_StatusTask+0x32c>)
    4506:	4fc3      	ldr	r7, [pc, #780]	; (4814 <Trio_StatusTask+0x330>)
    4508:	7851      	ldrb	r1, [r2, #1]
    450a:	2901      	cmp	r1, #1
    450c:	d11a      	bne.n	4544 <Trio_StatusTask+0x60>
    450e:	7a3b      	ldrb	r3, [r7, #8]
    4510:	2b00      	cmp	r3, #0
    4512:	d122      	bne.n	455a <Trio_StatusTask+0x76>
    4514:	78e3      	ldrb	r3, [r4, #3]
    4516:	2b41      	cmp	r3, #65	; 0x41
    4518:	d11f      	bne.n	455a <Trio_StatusTask+0x76>
    451a:	8ba0      	ldrh	r0, [r4, #28]
    451c:	4bbe      	ldr	r3, [pc, #760]	; (4818 <Trio_StatusTask+0x334>)
    451e:	4343      	muls	r3, r0
    4520:	48be      	ldr	r0, [pc, #760]	; (481c <Trio_StatusTask+0x338>)
    4522:	181b      	adds	r3, r3, r0
    4524:	48be      	ldr	r0, [pc, #760]	; (4820 <Trio_StatusTask+0x33c>)
    4526:	4283      	cmp	r3, r0
    4528:	d817      	bhi.n	455a <Trio_StatusTask+0x76>
    452a:	7f2b      	ldrb	r3, [r5, #28]
    452c:	2b00      	cmp	r3, #0
    452e:	d014      	beq.n	455a <Trio_StatusTask+0x76>
    4530:	7f6b      	ldrb	r3, [r5, #29]
    4532:	2b04      	cmp	r3, #4
    4534:	d911      	bls.n	455a <Trio_StatusTask+0x76>
    4536:	23a0      	movs	r3, #160	; 0xa0
    4538:	061b      	lsls	r3, r3, #24
    453a:	74d9      	strb	r1, [r3, #19]
    453c:	2303      	movs	r3, #3
    453e:	48b9      	ldr	r0, [pc, #740]	; (4824 <Trio_StatusTask+0x340>)
    4540:	7053      	strb	r3, [r2, #1]
    4542:	e008      	b.n	4556 <Trio_StatusTask+0x72>
    4544:	2902      	cmp	r1, #2
    4546:	d108      	bne.n	455a <Trio_StatusTask+0x76>
    4548:	23a0      	movs	r3, #160	; 0xa0
    454a:	2100      	movs	r1, #0
    454c:	061b      	lsls	r3, r3, #24
    454e:	74d9      	strb	r1, [r3, #19]
    4550:	2304      	movs	r3, #4
    4552:	48b5      	ldr	r0, [pc, #724]	; (4828 <Trio_StatusTask+0x344>)
    4554:	7053      	strb	r3, [r2, #1]
    4556:	f7ff fda9 	bl	40ac <PRINT_K>
    455a:	4ab4      	ldr	r2, [pc, #720]	; (482c <Trio_StatusTask+0x348>)
    455c:	0016      	movs	r6, r2
    455e:	3678      	adds	r6, #120	; 0x78
    4560:	7873      	ldrb	r3, [r6, #1]
    4562:	9200      	str	r2, [sp, #0]
    4564:	2b00      	cmp	r3, #0
    4566:	d002      	beq.n	456e <Trio_StatusTask+0x8a>
    4568:	2b01      	cmp	r3, #1
    456a:	d00f      	beq.n	458c <Trio_StatusTask+0xa8>
    456c:	e024      	b.n	45b8 <Trio_StatusTask+0xd4>
    456e:	7833      	ldrb	r3, [r6, #0]
    4570:	2b00      	cmp	r3, #0
    4572:	d021      	beq.n	45b8 <Trio_StatusTask+0xd4>
    4574:	9800      	ldr	r0, [sp, #0]
    4576:	307c      	adds	r0, #124	; 0x7c
    4578:	f7ff fe14 	bl	41a4 <mn_timer_expired>
    457c:	2800      	cmp	r0, #0
    457e:	d01b      	beq.n	45b8 <Trio_StatusTask+0xd4>
    4580:	48ab      	ldr	r0, [pc, #684]	; (4830 <Trio_StatusTask+0x34c>)
    4582:	f7ff fd93 	bl	40ac <PRINT_K>
    4586:	2301      	movs	r3, #1
    4588:	7073      	strb	r3, [r6, #1]
    458a:	e015      	b.n	45b8 <Trio_StatusTask+0xd4>
    458c:	7833      	ldrb	r3, [r6, #0]
    458e:	9301      	str	r3, [sp, #4]
    4590:	2b00      	cmp	r3, #0
    4592:	d111      	bne.n	45b8 <Trio_StatusTask+0xd4>
    4594:	9800      	ldr	r0, [sp, #0]
    4596:	307c      	adds	r0, #124	; 0x7c
    4598:	f7ff fe04 	bl	41a4 <mn_timer_expired>
    459c:	2800      	cmp	r0, #0
    459e:	d00b      	beq.n	45b8 <Trio_StatusTask+0xd4>
    45a0:	48a4      	ldr	r0, [pc, #656]	; (4834 <Trio_StatusTask+0x350>)
    45a2:	f7ff fd83 	bl	40ac <PRINT_K>
    45a6:	466b      	mov	r3, sp
    45a8:	2140      	movs	r1, #64	; 0x40
    45aa:	9a00      	ldr	r2, [sp, #0]
    45ac:	791b      	ldrb	r3, [r3, #4]
    45ae:	3275      	adds	r2, #117	; 0x75
    45b0:	7073      	strb	r3, [r6, #1]
    45b2:	7813      	ldrb	r3, [r2, #0]
    45b4:	430b      	orrs	r3, r1
    45b6:	7013      	strb	r3, [r2, #0]
    45b8:	78e3      	ldrb	r3, [r4, #3]
    45ba:	9301      	str	r3, [sp, #4]
    45bc:	f7ff feae 	bl	431c <Get_IgnitionPinStatus>
    45c0:	7e3b      	ldrb	r3, [r7, #24]
    45c2:	0006      	movs	r6, r0
    45c4:	4283      	cmp	r3, r0
    45c6:	d03a      	beq.n	463e <Trio_StatusTask+0x15a>
    45c8:	7638      	strb	r0, [r7, #24]
    45ca:	2800      	cmp	r0, #0
    45cc:	d01b      	beq.n	4606 <Trio_StatusTask+0x122>
    45ce:	2601      	movs	r6, #1
    45d0:	723e      	strb	r6, [r7, #8]
    45d2:	f001 fd27 	bl	6024 <ReloadPeriodicDataSendTimer>
    45d6:	4898      	ldr	r0, [pc, #608]	; (4838 <Trio_StatusTask+0x354>)
    45d8:	f7ff fd68 	bl	40ac <PRINT_K>
    45dc:	f7ff ff6a 	bl	44b4 <Get_LogPeriod>
    45e0:	0001      	movs	r1, r0
    45e2:	0038      	movs	r0, r7
    45e4:	301c      	adds	r0, #28
    45e6:	f7ff fdfb 	bl	41e0 <Set_Timer>
    45ea:	9b01      	ldr	r3, [sp, #4]
    45ec:	2000      	movs	r0, #0
    45ee:	2b41      	cmp	r3, #65	; 0x41
    45f0:	d000      	beq.n	45f4 <Trio_StatusTask+0x110>
    45f2:	0030      	movs	r0, r6
    45f4:	f7ff fee8 	bl	43c8 <Init_TripInfo>
    45f8:	f7ff feca 	bl	4390 <Init_IdleInfo>
    45fc:	9b00      	ldr	r3, [sp, #0]
    45fe:	2120      	movs	r1, #32
    4600:	3375      	adds	r3, #117	; 0x75
    4602:	781a      	ldrb	r2, [r3, #0]
    4604:	e019      	b.n	463a <Trio_StatusTask+0x156>
    4606:	7238      	strb	r0, [r7, #8]
    4608:	488c      	ldr	r0, [pc, #560]	; (483c <Trio_StatusTask+0x358>)
    460a:	f7ff fd4f 	bl	40ac <PRINT_K>
    460e:	f001 fd09 	bl	6024 <ReloadPeriodicDataSendTimer>
    4612:	f7ff ff4f 	bl	44b4 <Get_LogPeriod>
    4616:	0001      	movs	r1, r0
    4618:	0038      	movs	r0, r7
    461a:	301c      	adds	r0, #28
    461c:	f7ff fde0 	bl	41e0 <Set_Timer>
    4620:	a808      	add	r0, sp, #32
    4622:	f000 fe1f 	bl	5264 <Get_PositionInfo>
    4626:	980c      	ldr	r0, [sp, #48]	; 0x30
    4628:	990d      	ldr	r1, [sp, #52]	; 0x34
    462a:	f002 fed3 	bl	73d4 <__aeabi_d2uiz>
    462e:	2110      	movs	r1, #16
    4630:	4b7e      	ldr	r3, [pc, #504]	; (482c <Trio_StatusTask+0x348>)
    4632:	72be      	strb	r6, [r7, #10]
    4634:	6698      	str	r0, [r3, #104]	; 0x68
    4636:	3375      	adds	r3, #117	; 0x75
    4638:	781a      	ldrb	r2, [r3, #0]
    463a:	430a      	orrs	r2, r1
    463c:	701a      	strb	r2, [r3, #0]
    463e:	9b5d      	ldr	r3, [sp, #372]	; 0x174
    4640:	9300      	str	r3, [sp, #0]
    4642:	2b00      	cmp	r3, #0
    4644:	d05e      	beq.n	4704 <Trio_StatusTask+0x220>
    4646:	7a3b      	ldrb	r3, [r7, #8]
    4648:	2b00      	cmp	r3, #0
    464a:	d05b      	beq.n	4704 <Trio_StatusTask+0x220>
    464c:	ab02      	add	r3, sp, #8
    464e:	795b      	ldrb	r3, [r3, #5]
    4650:	2b03      	cmp	r3, #3
    4652:	d157      	bne.n	4704 <Trio_StatusTask+0x220>
    4654:	7f2b      	ldrb	r3, [r5, #28]
    4656:	2b00      	cmp	r3, #0
    4658:	d054      	beq.n	4704 <Trio_StatusTask+0x220>
    465a:	4a79      	ldr	r2, [pc, #484]	; (4840 <Trio_StatusTask+0x35c>)
    465c:	8ba3      	ldrh	r3, [r4, #28]
    465e:	7fd2      	ldrb	r2, [r2, #31]
    4660:	4e72      	ldr	r6, [pc, #456]	; (482c <Trio_StatusTask+0x348>)
    4662:	2a01      	cmp	r2, #1
    4664:	d03b      	beq.n	46de <Trio_StatusTask+0x1fa>
    4666:	2a00      	cmp	r2, #0
    4668:	d002      	beq.n	4670 <Trio_StatusTask+0x18c>
    466a:	2a02      	cmp	r2, #2
    466c:	d01d      	beq.n	46aa <Trio_StatusTask+0x1c6>
    466e:	e049      	b.n	4704 <Trio_StatusTask+0x220>
    4670:	2b02      	cmp	r3, #2
    4672:	d90c      	bls.n	468e <Trio_StatusTask+0x1aa>
    4674:	2301      	movs	r3, #1
    4676:	4a72      	ldr	r2, [pc, #456]	; (4840 <Trio_StatusTask+0x35c>)
    4678:	4872      	ldr	r0, [pc, #456]	; (4844 <Trio_StatusTask+0x360>)
    467a:	77d3      	strb	r3, [r2, #31]
    467c:	f7ff fd16 	bl	40ac <PRINT_K>
    4680:	2280      	movs	r2, #128	; 0x80
    4682:	3674      	adds	r6, #116	; 0x74
    4684:	7833      	ldrb	r3, [r6, #0]
    4686:	4252      	negs	r2, r2
    4688:	4313      	orrs	r3, r2
    468a:	7033      	strb	r3, [r6, #0]
    468c:	e03a      	b.n	4704 <Trio_StatusTask+0x220>
    468e:	4867      	ldr	r0, [pc, #412]	; (482c <Trio_StatusTask+0x348>)
    4690:	300c      	adds	r0, #12
    4692:	f7ff fd87 	bl	41a4 <mn_timer_expired>
    4696:	2800      	cmp	r0, #0
    4698:	d034      	beq.n	4704 <Trio_StatusTask+0x220>
    469a:	f7ff fe6b 	bl	4374 <IncreaseIdleTimeCounters>
    469e:	4863      	ldr	r0, [pc, #396]	; (482c <Trio_StatusTask+0x348>)
    46a0:	2164      	movs	r1, #100	; 0x64
    46a2:	300c      	adds	r0, #12
    46a4:	f7ff fd9c 	bl	41e0 <Set_Timer>
    46a8:	e02c      	b.n	4704 <Trio_StatusTask+0x220>
    46aa:	2b02      	cmp	r3, #2
    46ac:	d906      	bls.n	46bc <Trio_StatusTask+0x1d8>
    46ae:	2301      	movs	r3, #1
    46b0:	4a63      	ldr	r2, [pc, #396]	; (4840 <Trio_StatusTask+0x35c>)
    46b2:	4865      	ldr	r0, [pc, #404]	; (4848 <Trio_StatusTask+0x364>)
    46b4:	77d3      	strb	r3, [r2, #31]
    46b6:	2300      	movs	r3, #0
    46b8:	61b3      	str	r3, [r6, #24]
    46ba:	e021      	b.n	4700 <Trio_StatusTask+0x21c>
    46bc:	0030      	movs	r0, r6
    46be:	f7ff fd71 	bl	41a4 <mn_timer_expired>
    46c2:	2800      	cmp	r0, #0
    46c4:	d0e3      	beq.n	468e <Trio_StatusTask+0x1aa>
    46c6:	2240      	movs	r2, #64	; 0x40
    46c8:	3674      	adds	r6, #116	; 0x74
    46ca:	7833      	ldrb	r3, [r6, #0]
    46cc:	485f      	ldr	r0, [pc, #380]	; (484c <Trio_StatusTask+0x368>)
    46ce:	4313      	orrs	r3, r2
    46d0:	7033      	strb	r3, [r6, #0]
    46d2:	f7ff fceb 	bl	40ac <PRINT_K>
    46d6:	2300      	movs	r3, #0
    46d8:	4a59      	ldr	r2, [pc, #356]	; (4840 <Trio_StatusTask+0x35c>)
    46da:	77d3      	strb	r3, [r2, #31]
    46dc:	e012      	b.n	4704 <Trio_StatusTask+0x220>
    46de:	2b02      	cmp	r3, #2
    46e0:	d810      	bhi.n	4704 <Trio_StatusTask+0x220>
    46e2:	0030      	movs	r0, r6
    46e4:	2164      	movs	r1, #100	; 0x64
    46e6:	300c      	adds	r0, #12
    46e8:	f7ff fd7a 	bl	41e0 <Set_Timer>
    46ec:	2164      	movs	r1, #100	; 0x64
    46ee:	9b00      	ldr	r3, [sp, #0]
    46f0:	0030      	movs	r0, r6
    46f2:	4359      	muls	r1, r3
    46f4:	f7ff fd74 	bl	41e0 <Set_Timer>
    46f8:	2302      	movs	r3, #2
    46fa:	4a51      	ldr	r2, [pc, #324]	; (4840 <Trio_StatusTask+0x35c>)
    46fc:	4854      	ldr	r0, [pc, #336]	; (4850 <Trio_StatusTask+0x36c>)
    46fe:	77d3      	strb	r3, [r2, #31]
    4700:	f7ff fcd4 	bl	40ac <PRINT_K>
    4704:	23b3      	movs	r3, #179	; 0xb3
    4706:	aa02      	add	r2, sp, #8
    4708:	005b      	lsls	r3, r3, #1
    470a:	189b      	adds	r3, r3, r2
    470c:	881b      	ldrh	r3, [r3, #0]
    470e:	4e51      	ldr	r6, [pc, #324]	; (4854 <Trio_StatusTask+0x370>)
    4710:	2b00      	cmp	r3, #0
    4712:	d061      	beq.n	47d8 <Trio_StatusTask+0x2f4>
    4714:	7953      	ldrb	r3, [r2, #5]
    4716:	2b03      	cmp	r3, #3
    4718:	d15e      	bne.n	47d8 <Trio_StatusTask+0x2f4>
    471a:	7f2b      	ldrb	r3, [r5, #28]
    471c:	2b00      	cmp	r3, #0
    471e:	d05b      	beq.n	47d8 <Trio_StatusTask+0x2f4>
    4720:	21fa      	movs	r1, #250	; 0xfa
    4722:	4b3d      	ldr	r3, [pc, #244]	; (4818 <Trio_StatusTask+0x334>)
    4724:	8ba0      	ldrh	r0, [r4, #28]
    4726:	0034      	movs	r4, r6
    4728:	4358      	muls	r0, r3
    472a:	0089      	lsls	r1, r1, #2
    472c:	f7fb fcc8 	bl	c0 <__aeabi_idiv>
    4730:	0039      	movs	r1, r7
    4732:	3440      	adds	r4, #64	; 0x40
    4734:	7822      	ldrb	r2, [r4, #0]
    4736:	31fe      	adds	r1, #254	; 0xfe
    4738:	b280      	uxth	r0, r0
    473a:	8a4b      	ldrh	r3, [r1, #18]
    473c:	2a01      	cmp	r2, #1
    473e:	d032      	beq.n	47a6 <Trio_StatusTask+0x2c2>
    4740:	2a00      	cmp	r2, #0
    4742:	d002      	beq.n	474a <Trio_StatusTask+0x266>
    4744:	2a02      	cmp	r2, #2
    4746:	d016      	beq.n	4776 <Trio_StatusTask+0x292>
    4748:	e046      	b.n	47d8 <Trio_StatusTask+0x2f4>
    474a:	4298      	cmp	r0, r3
    474c:	d944      	bls.n	47d8 <Trio_StatusTask+0x2f4>
    474e:	8a8b      	ldrh	r3, [r1, #20]
    4750:	4841      	ldr	r0, [pc, #260]	; (4858 <Trio_StatusTask+0x374>)
    4752:	9300      	str	r3, [sp, #0]
    4754:	2564      	movs	r5, #100	; 0x64
    4756:	f7ff fca9 	bl	40ac <PRINT_K>
    475a:	0030      	movs	r0, r6
    475c:	9900      	ldr	r1, [sp, #0]
    475e:	3024      	adds	r0, #36	; 0x24
    4760:	4369      	muls	r1, r5
    4762:	f7ff fd3d 	bl	41e0 <Set_Timer>
    4766:	0030      	movs	r0, r6
    4768:	0029      	movs	r1, r5
    476a:	3030      	adds	r0, #48	; 0x30
    476c:	f7ff fd38 	bl	41e0 <Set_Timer>
    4770:	2302      	movs	r3, #2
    4772:	7023      	strb	r3, [r4, #0]
    4774:	e030      	b.n	47d8 <Trio_StatusTask+0x2f4>
    4776:	4298      	cmp	r0, r3
    4778:	d803      	bhi.n	4782 <Trio_StatusTask+0x29e>
    477a:	2300      	movs	r3, #0
    477c:	7023      	strb	r3, [r4, #0]
    477e:	63f3      	str	r3, [r6, #60]	; 0x3c
    4780:	e01c      	b.n	47bc <Trio_StatusTask+0x2d8>
    4782:	0030      	movs	r0, r6
    4784:	3024      	adds	r0, #36	; 0x24
    4786:	f7ff fd0d 	bl	41a4 <mn_timer_expired>
    478a:	2800      	cmp	r0, #0
    478c:	d016      	beq.n	47bc <Trio_StatusTask+0x2d8>
    478e:	2110      	movs	r1, #16
    4790:	4b26      	ldr	r3, [pc, #152]	; (482c <Trio_StatusTask+0x348>)
    4792:	4832      	ldr	r0, [pc, #200]	; (485c <Trio_StatusTask+0x378>)
    4794:	3374      	adds	r3, #116	; 0x74
    4796:	781a      	ldrb	r2, [r3, #0]
    4798:	430a      	orrs	r2, r1
    479a:	701a      	strb	r2, [r3, #0]
    479c:	2301      	movs	r3, #1
    479e:	7023      	strb	r3, [r4, #0]
    47a0:	f7ff fc84 	bl	40ac <PRINT_K>
    47a4:	e00a      	b.n	47bc <Trio_StatusTask+0x2d8>
    47a6:	4298      	cmp	r0, r3
    47a8:	d808      	bhi.n	47bc <Trio_StatusTask+0x2d8>
    47aa:	2300      	movs	r3, #0
    47ac:	2120      	movs	r1, #32
    47ae:	7023      	strb	r3, [r4, #0]
    47b0:	4b1e      	ldr	r3, [pc, #120]	; (482c <Trio_StatusTask+0x348>)
    47b2:	3374      	adds	r3, #116	; 0x74
    47b4:	781a      	ldrb	r2, [r3, #0]
    47b6:	430a      	orrs	r2, r1
    47b8:	701a      	strb	r2, [r3, #0]
    47ba:	e00d      	b.n	47d8 <Trio_StatusTask+0x2f4>
    47bc:	0034      	movs	r4, r6
    47be:	3430      	adds	r4, #48	; 0x30
    47c0:	0020      	movs	r0, r4
    47c2:	f7ff fcef 	bl	41a4 <mn_timer_expired>
    47c6:	2800      	cmp	r0, #0
    47c8:	d006      	beq.n	47d8 <Trio_StatusTask+0x2f4>
    47ca:	6bf3      	ldr	r3, [r6, #60]	; 0x3c
    47cc:	2164      	movs	r1, #100	; 0x64
    47ce:	3301      	adds	r3, #1
    47d0:	0020      	movs	r0, r4
    47d2:	63f3      	str	r3, [r6, #60]	; 0x3c
    47d4:	f7ff fd04 	bl	41e0 <Set_Timer>
    47d8:	003b      	movs	r3, r7
    47da:	33fc      	adds	r3, #252	; 0xfc
    47dc:	6999      	ldr	r1, [r3, #24]
    47de:	2900      	cmp	r1, #0
    47e0:	d071      	beq.n	48c6 <Trio_StatusTask+0x3e2>
    47e2:	0034      	movs	r4, r6
    47e4:	3444      	adds	r4, #68	; 0x44
    47e6:	7f23      	ldrb	r3, [r4, #28]
    47e8:	2b01      	cmp	r3, #1
    47ea:	d05d      	beq.n	48a8 <Trio_StatusTask+0x3c4>
    47ec:	2b00      	cmp	r3, #0
    47ee:	d002      	beq.n	47f6 <Trio_StatusTask+0x312>
    47f0:	2b02      	cmp	r3, #2
    47f2:	d035      	beq.n	4860 <Trio_StatusTask+0x37c>
    47f4:	e067      	b.n	48c6 <Trio_StatusTask+0x3e2>
    47f6:	7a3b      	ldrb	r3, [r7, #8]
    47f8:	2b00      	cmp	r3, #0
    47fa:	d046      	beq.n	488a <Trio_StatusTask+0x3a6>
    47fc:	2301      	movs	r3, #1
    47fe:	2102      	movs	r1, #2
    4800:	7723      	strb	r3, [r4, #28]
    4802:	4b0a      	ldr	r3, [pc, #40]	; (482c <Trio_StatusTask+0x348>)
    4804:	3375      	adds	r3, #117	; 0x75
    4806:	781a      	ldrb	r2, [r3, #0]
    4808:	430a      	orrs	r2, r1
    480a:	701a      	strb	r2, [r3, #0]
    480c:	e05b      	b.n	48c6 <Trio_StatusTask+0x3e2>
    480e:	46c0      	nop			; (mov r8, r8)
    4810:	1000067c 	.word	0x1000067c
    4814:	10000710 	.word	0x10000710
    4818:	0000073c 	.word	0x0000073c
    481c:	000003e7 	.word	0x000003e7
    4820:	000007ce 	.word	0x000007ce
    4824:	00004cf4 	.word	0x00004cf4
    4828:	00004d08 	.word	0x00004d08
    482c:	10000690 	.word	0x10000690
    4830:	00004d1a 	.word	0x00004d1a
    4834:	00004d3a 	.word	0x00004d3a
    4838:	00004d5c 	.word	0x00004d5c
    483c:	00004d66 	.word	0x00004d66
    4840:	10000691 	.word	0x10000691
    4844:	00004d74 	.word	0x00004d74
    4848:	00004d87 	.word	0x00004d87
    484c:	00004da9 	.word	0x00004da9
    4850:	00004dc5 	.word	0x00004dc5
    4854:	10000810 	.word	0x10000810
    4858:	00004ddb 	.word	0x00004ddb
    485c:	00004def 	.word	0x00004def
    4860:	7a3d      	ldrb	r5, [r7, #8]
    4862:	2d00      	cmp	r5, #0
    4864:	d004      	beq.n	4870 <Trio_StatusTask+0x38c>
    4866:	2301      	movs	r3, #1
    4868:	7723      	strb	r3, [r4, #28]
    486a:	2300      	movs	r3, #0
    486c:	65f3      	str	r3, [r6, #92]	; 0x5c
    486e:	e02a      	b.n	48c6 <Trio_StatusTask+0x3e2>
    4870:	0020      	movs	r0, r4
    4872:	f7ff fc97 	bl	41a4 <mn_timer_expired>
    4876:	2800      	cmp	r0, #0
    4878:	d007      	beq.n	488a <Trio_StatusTask+0x3a6>
    487a:	2101      	movs	r1, #1
    487c:	4b3a      	ldr	r3, [pc, #232]	; (4968 <Trio_StatusTask+0x484>)
    487e:	7725      	strb	r5, [r4, #28]
    4880:	3375      	adds	r3, #117	; 0x75
    4882:	781a      	ldrb	r2, [r3, #0]
    4884:	430a      	orrs	r2, r1
    4886:	701a      	strb	r2, [r3, #0]
    4888:	e01d      	b.n	48c6 <Trio_StatusTask+0x3e2>
    488a:	0034      	movs	r4, r6
    488c:	3450      	adds	r4, #80	; 0x50
    488e:	0020      	movs	r0, r4
    4890:	f7ff fc88 	bl	41a4 <mn_timer_expired>
    4894:	2800      	cmp	r0, #0
    4896:	d016      	beq.n	48c6 <Trio_StatusTask+0x3e2>
    4898:	6df3      	ldr	r3, [r6, #92]	; 0x5c
    489a:	2164      	movs	r1, #100	; 0x64
    489c:	3301      	adds	r3, #1
    489e:	0020      	movs	r0, r4
    48a0:	65f3      	str	r3, [r6, #92]	; 0x5c
    48a2:	f7ff fc9d 	bl	41e0 <Set_Timer>
    48a6:	e00e      	b.n	48c6 <Trio_StatusTask+0x3e2>
    48a8:	7a3b      	ldrb	r3, [r7, #8]
    48aa:	2b00      	cmp	r3, #0
    48ac:	d10b      	bne.n	48c6 <Trio_StatusTask+0x3e2>
    48ae:	2564      	movs	r5, #100	; 0x64
    48b0:	0020      	movs	r0, r4
    48b2:	4369      	muls	r1, r5
    48b4:	f7ff fc94 	bl	41e0 <Set_Timer>
    48b8:	0030      	movs	r0, r6
    48ba:	0029      	movs	r1, r5
    48bc:	3050      	adds	r0, #80	; 0x50
    48be:	f7ff fc8f 	bl	41e0 <Set_Timer>
    48c2:	2302      	movs	r3, #2
    48c4:	7723      	strb	r3, [r4, #28]
    48c6:	23a0      	movs	r3, #160	; 0xa0
    48c8:	061b      	lsls	r3, r3, #24
    48ca:	7d9c      	ldrb	r4, [r3, #22]
    48cc:	0035      	movs	r5, r6
    48ce:	1e63      	subs	r3, r4, #1
    48d0:	419c      	sbcs	r4, r3
    48d2:	0033      	movs	r3, r6
    48d4:	b2e4      	uxtb	r4, r4
    48d6:	3364      	adds	r3, #100	; 0x64
    48d8:	3565      	adds	r5, #101	; 0x65
    48da:	701c      	strb	r4, [r3, #0]
    48dc:	782b      	ldrb	r3, [r5, #0]
    48de:	42a3      	cmp	r3, r4
    48e0:	d008      	beq.n	48f4 <Trio_StatusTask+0x410>
    48e2:	0037      	movs	r7, r6
    48e4:	0030      	movs	r0, r6
    48e6:	3768      	adds	r7, #104	; 0x68
    48e8:	306c      	adds	r0, #108	; 0x6c
    48ea:	210a      	movs	r1, #10
    48ec:	f7ff fc78 	bl	41e0 <Set_Timer>
    48f0:	702c      	strb	r4, [r5, #0]
    48f2:	703c      	strb	r4, [r7, #0]
    48f4:	0034      	movs	r4, r6
    48f6:	3468      	adds	r4, #104	; 0x68
    48f8:	7863      	ldrb	r3, [r4, #1]
    48fa:	2b00      	cmp	r3, #0
    48fc:	d002      	beq.n	4904 <Trio_StatusTask+0x420>
    48fe:	2b01      	cmp	r3, #1
    4900:	d016      	beq.n	4930 <Trio_StatusTask+0x44c>
    4902:	e02f      	b.n	4964 <Trio_StatusTask+0x480>
    4904:	7823      	ldrb	r3, [r4, #0]
    4906:	2b00      	cmp	r3, #0
    4908:	d02c      	beq.n	4964 <Trio_StatusTask+0x480>
    490a:	0030      	movs	r0, r6
    490c:	306c      	adds	r0, #108	; 0x6c
    490e:	f7ff fc49 	bl	41a4 <mn_timer_expired>
    4912:	2800      	cmp	r0, #0
    4914:	d026      	beq.n	4964 <Trio_StatusTask+0x480>
    4916:	23fa      	movs	r3, #250	; 0xfa
    4918:	3678      	adds	r6, #120	; 0x78
    491a:	2132      	movs	r1, #50	; 0x32
    491c:	5e72      	ldrsh	r2, [r6, r1]
    491e:	011b      	lsls	r3, r3, #4
    4920:	429a      	cmp	r2, r3
    4922:	dd1f      	ble.n	4964 <Trio_StatusTask+0x480>
    4924:	4811      	ldr	r0, [pc, #68]	; (496c <Trio_StatusTask+0x488>)
    4926:	f7ff fbc1 	bl	40ac <PRINT_K>
    492a:	2301      	movs	r3, #1
    492c:	7063      	strb	r3, [r4, #1]
    492e:	e013      	b.n	4958 <Trio_StatusTask+0x474>
    4930:	7825      	ldrb	r5, [r4, #0]
    4932:	2d00      	cmp	r5, #0
    4934:	d116      	bne.n	4964 <Trio_StatusTask+0x480>
    4936:	0030      	movs	r0, r6
    4938:	306c      	adds	r0, #108	; 0x6c
    493a:	f7ff fc33 	bl	41a4 <mn_timer_expired>
    493e:	2800      	cmp	r0, #0
    4940:	d010      	beq.n	4964 <Trio_StatusTask+0x480>
    4942:	23fa      	movs	r3, #250	; 0xfa
    4944:	3678      	adds	r6, #120	; 0x78
    4946:	2132      	movs	r1, #50	; 0x32
    4948:	5e72      	ldrsh	r2, [r6, r1]
    494a:	011b      	lsls	r3, r3, #4
    494c:	429a      	cmp	r2, r3
    494e:	dc09      	bgt.n	4964 <Trio_StatusTask+0x480>
    4950:	4807      	ldr	r0, [pc, #28]	; (4970 <Trio_StatusTask+0x48c>)
    4952:	f7ff fbab 	bl	40ac <PRINT_K>
    4956:	7065      	strb	r5, [r4, #1]
    4958:	2104      	movs	r1, #4
    495a:	4b03      	ldr	r3, [pc, #12]	; (4968 <Trio_StatusTask+0x484>)
    495c:	3375      	adds	r3, #117	; 0x75
    495e:	781a      	ldrb	r2, [r3, #0]
    4960:	430a      	orrs	r2, r1
    4962:	701a      	strb	r2, [r3, #0]
    4964:	b061      	add	sp, #388	; 0x184
    4966:	bdf0      	pop	{r4, r5, r6, r7, pc}
    4968:	10000690 	.word	0x10000690
    496c:	00004e04 	.word	0x00004e04
    4970:	00004e13 	.word	0x00004e13

00004974 <SST25_WriteArray>:
    4974:	b5f0      	push	{r4, r5, r6, r7, lr}
    4976:	0017      	movs	r7, r2
    4978:	0014      	movs	r4, r2
    497a:	b087      	sub	sp, #28
    497c:	188b      	adds	r3, r1, r2
    497e:	9003      	str	r0, [sp, #12]
    4980:	9302      	str	r3, [sp, #8]
    4982:	9b02      	ldr	r3, [sp, #8]
    4984:	429c      	cmp	r4, r3
    4986:	d030      	beq.n	49ea <SST25_WriteArray+0x76>
    4988:	0523      	lsls	r3, r4, #20
    498a:	0d1b      	lsrs	r3, r3, #20
    498c:	9301      	str	r3, [sp, #4]
    498e:	4d18      	ldr	r5, [pc, #96]	; (49f0 <SST25_WriteArray+0x7c>)
    4990:	d114      	bne.n	49bc <SST25_WriteArray+0x48>
    4992:	f000 fdef 	bl	5574 <SST25_WriteEnable>
    4996:	2320      	movs	r3, #32
    4998:	0b26      	lsrs	r6, r4, #12
    499a:	0336      	lsls	r6, r6, #12
    499c:	702b      	strb	r3, [r5, #0]
    499e:	0c33      	lsrs	r3, r6, #16
    49a0:	706b      	strb	r3, [r5, #1]
    49a2:	466b      	mov	r3, sp
    49a4:	2204      	movs	r2, #4
    49a6:	791b      	ldrb	r3, [r3, #4]
    49a8:	0010      	movs	r0, r2
    49aa:	0a36      	lsrs	r6, r6, #8
    49ac:	a904      	add	r1, sp, #16
    49ae:	70ae      	strb	r6, [r5, #2]
    49b0:	70eb      	strb	r3, [r5, #3]
    49b2:	f7ff f9d5 	bl	3d60 <send_spi_data.constprop.50>
    49b6:	201e      	movs	r0, #30
    49b8:	f7ff fd60 	bl	447c <wait_spi_busy_timeout.lto_priv.72>
    49bc:	9b03      	ldr	r3, [sp, #12]
    49be:	1bdb      	subs	r3, r3, r7
    49c0:	5d1e      	ldrb	r6, [r3, r4]
    49c2:	f000 fdd7 	bl	5574 <SST25_WriteEnable>
    49c6:	2302      	movs	r3, #2
    49c8:	2205      	movs	r2, #5
    49ca:	702b      	strb	r3, [r5, #0]
    49cc:	0c23      	lsrs	r3, r4, #16
    49ce:	0010      	movs	r0, r2
    49d0:	706b      	strb	r3, [r5, #1]
    49d2:	a904      	add	r1, sp, #16
    49d4:	0a23      	lsrs	r3, r4, #8
    49d6:	70ab      	strb	r3, [r5, #2]
    49d8:	70ec      	strb	r4, [r5, #3]
    49da:	712e      	strb	r6, [r5, #4]
    49dc:	f7ff f9c0 	bl	3d60 <send_spi_data.constprop.50>
    49e0:	2002      	movs	r0, #2
    49e2:	f7ff fd4b 	bl	447c <wait_spi_busy_timeout.lto_priv.72>
    49e6:	3401      	adds	r4, #1
    49e8:	e7cb      	b.n	4982 <SST25_WriteArray+0xe>
    49ea:	0020      	movs	r0, r4
    49ec:	b007      	add	sp, #28
    49ee:	bdf0      	pop	{r4, r5, r6, r7, pc}
    49f0:	10000534 	.word	0x10000534

000049f4 <SST25_WriteSR>:
    49f4:	b537      	push	{r0, r1, r2, r4, r5, lr}
    49f6:	0005      	movs	r5, r0
    49f8:	f000 fdbc 	bl	5574 <SST25_WriteEnable>
    49fc:	2201      	movs	r2, #1
    49fe:	2350      	movs	r3, #80	; 0x50
    4a00:	4c0a      	ldr	r4, [pc, #40]	; (4a2c <SST25_WriteSR+0x38>)
    4a02:	a901      	add	r1, sp, #4
    4a04:	0010      	movs	r0, r2
    4a06:	7023      	strb	r3, [r4, #0]
    4a08:	f7ff f9aa 	bl	3d60 <send_spi_data.constprop.50>
    4a0c:	2002      	movs	r0, #2
    4a0e:	f7ff fd35 	bl	447c <wait_spi_busy_timeout.lto_priv.72>
    4a12:	2202      	movs	r2, #2
    4a14:	2301      	movs	r3, #1
    4a16:	0010      	movs	r0, r2
    4a18:	a901      	add	r1, sp, #4
    4a1a:	7023      	strb	r3, [r4, #0]
    4a1c:	7065      	strb	r5, [r4, #1]
    4a1e:	f7ff f99f 	bl	3d60 <send_spi_data.constprop.50>
    4a22:	2002      	movs	r0, #2
    4a24:	f7ff fd2a 	bl	447c <wait_spi_busy_timeout.lto_priv.72>
    4a28:	bd37      	pop	{r0, r1, r2, r4, r5, pc}
    4a2a:	46c0      	nop			; (mov r8, r8)
    4a2c:	10000534 	.word	0x10000534

00004a30 <UpdateOffLineDataReadAddress>:
    4a30:	b510      	push	{r4, lr}
    4a32:	2000      	movs	r0, #0
    4a34:	f7ff ffde 	bl	49f4 <SST25_WriteSR>
    4a38:	22ec      	movs	r2, #236	; 0xec
    4a3a:	4c06      	ldr	r4, [pc, #24]	; (4a54 <UpdateOffLineDataReadAddress+0x24>)
    4a3c:	0312      	lsls	r2, r2, #12
    4a3e:	2104      	movs	r1, #4
    4a40:	1d20      	adds	r0, r4, #4
    4a42:	f7ff ff97 	bl	4974 <SST25_WriteArray>
    4a46:	6863      	ldr	r3, [r4, #4]
    4a48:	2008      	movs	r0, #8
    4a4a:	60a3      	str	r3, [r4, #8]
    4a4c:	f7ff ffd2 	bl	49f4 <SST25_WriteSR>
    4a50:	bd10      	pop	{r4, pc}
    4a52:	46c0      	nop			; (mov r8, r8)
    4a54:	10000c44 	.word	0x10000c44

00004a58 <FlushOffLineDataBuffer>:
    4a58:	b573      	push	{r0, r1, r4, r5, r6, lr}
    4a5a:	4c2f      	ldr	r4, [pc, #188]	; (4b18 <FlushOffLineDataBuffer+0xc0>)
    4a5c:	4b2f      	ldr	r3, [pc, #188]	; (4b1c <FlushOffLineDataBuffer+0xc4>)
    4a5e:	6825      	ldr	r5, [r4, #0]
    4a60:	89a6      	ldrh	r6, [r4, #12]
    4a62:	19a9      	adds	r1, r5, r6
    4a64:	4299      	cmp	r1, r3
    4a66:	d804      	bhi.n	4a72 <FlushOffLineDataBuffer+0x1a>
    4a68:	0b0b      	lsrs	r3, r1, #12
    4a6a:	b29a      	uxth	r2, r3
    4a6c:	2b00      	cmp	r3, #0
    4a6e:	d112      	bne.n	4a96 <FlushOffLineDataBuffer+0x3e>
    4a70:	e001      	b.n	4a76 <FlushOffLineDataBuffer+0x1e>
    4a72:	2300      	movs	r3, #0
    4a74:	001a      	movs	r2, r3
    4a76:	0b29      	lsrs	r1, r5, #12
    4a78:	b289      	uxth	r1, r1
    4a7a:	29e0      	cmp	r1, #224	; 0xe0
    4a7c:	d116      	bne.n	4aac <FlushOffLineDataBuffer+0x54>
    4a7e:	6023      	str	r3, [r4, #0]
    4a80:	6863      	ldr	r3, [r4, #4]
    4a82:	0b1b      	lsrs	r3, r3, #12
    4a84:	b29b      	uxth	r3, r3
    4a86:	2b00      	cmp	r3, #0
    4a88:	d121      	bne.n	4ace <FlushOffLineDataBuffer+0x76>
    4a8a:	2380      	movs	r3, #128	; 0x80
    4a8c:	015b      	lsls	r3, r3, #5
    4a8e:	6063      	str	r3, [r4, #4]
    4a90:	f7ff ffce 	bl	4a30 <UpdateOffLineDataReadAddress>
    4a94:	e01b      	b.n	4ace <FlushOffLineDataBuffer+0x76>
    4a96:	2be0      	cmp	r3, #224	; 0xe0
    4a98:	d108      	bne.n	4aac <FlushOffLineDataBuffer+0x54>
    4a9a:	6863      	ldr	r3, [r4, #4]
    4a9c:	0b1b      	lsrs	r3, r3, #12
    4a9e:	b29b      	uxth	r3, r3
    4aa0:	2be0      	cmp	r3, #224	; 0xe0
    4aa2:	d103      	bne.n	4aac <FlushOffLineDataBuffer+0x54>
    4aa4:	2300      	movs	r3, #0
    4aa6:	000e      	movs	r6, r1
    4aa8:	6063      	str	r3, [r4, #4]
    4aaa:	e010      	b.n	4ace <FlushOffLineDataBuffer+0x76>
    4aac:	0b2b      	lsrs	r3, r5, #12
    4aae:	b29b      	uxth	r3, r3
    4ab0:	4293      	cmp	r3, r2
    4ab2:	d20a      	bcs.n	4aca <FlushOffLineDataBuffer+0x72>
    4ab4:	6863      	ldr	r3, [r4, #4]
    4ab6:	0b1b      	lsrs	r3, r3, #12
    4ab8:	b299      	uxth	r1, r3
    4aba:	4291      	cmp	r1, r2
    4abc:	d105      	bne.n	4aca <FlushOffLineDataBuffer+0x72>
    4abe:	000b      	movs	r3, r1
    4ac0:	3301      	adds	r3, #1
    4ac2:	031b      	lsls	r3, r3, #12
    4ac4:	6063      	str	r3, [r4, #4]
    4ac6:	f7ff ffb3 	bl	4a30 <UpdateOffLineDataReadAddress>
    4aca:	89a6      	ldrh	r6, [r4, #12]
    4acc:	1976      	adds	r6, r6, r5
    4ace:	0025      	movs	r5, r4
    4ad0:	350e      	adds	r5, #14
    4ad2:	89a1      	ldrh	r1, [r4, #12]
    4ad4:	6822      	ldr	r2, [r4, #0]
    4ad6:	0028      	movs	r0, r5
    4ad8:	f7ff ff4c 	bl	4974 <SST25_WriteArray>
    4adc:	2000      	movs	r0, #0
    4ade:	9601      	str	r6, [sp, #4]
    4ae0:	f7ff ff88 	bl	49f4 <SST25_WriteSR>
    4ae4:	22eb      	movs	r2, #235	; 0xeb
    4ae6:	2104      	movs	r1, #4
    4ae8:	0312      	lsls	r2, r2, #12
    4aea:	a801      	add	r0, sp, #4
    4aec:	f7ff ff42 	bl	4974 <SST25_WriteArray>
    4af0:	2008      	movs	r0, #8
    4af2:	f7ff ff7f 	bl	49f4 <SST25_WriteSR>
    4af6:	6861      	ldr	r1, [r4, #4]
    4af8:	4809      	ldr	r0, [pc, #36]	; (4b20 <FlushOffLineDataBuffer+0xc8>)
    4afa:	6026      	str	r6, [r4, #0]
    4afc:	f7ff fb2a 	bl	4154 <Print_Val>
    4b00:	6821      	ldr	r1, [r4, #0]
    4b02:	4808      	ldr	r0, [pc, #32]	; (4b24 <FlushOffLineDataBuffer+0xcc>)
    4b04:	f7ff fb26 	bl	4154 <Print_Val>
    4b08:	2280      	movs	r2, #128	; 0x80
    4b0a:	2100      	movs	r1, #0
    4b0c:	0028      	movs	r0, r5
    4b0e:	00d2      	lsls	r2, r2, #3
    4b10:	81a1      	strh	r1, [r4, #12]
    4b12:	f001 fa95 	bl	6040 <memset>
    4b16:	bd73      	pop	{r0, r1, r4, r5, r6, pc}
    4b18:	10000c44 	.word	0x10000c44
    4b1c:	000e0fff 	.word	0x000e0fff
    4b20:	00004e22 	.word	0x00004e22
    4b24:	00004e37 	.word	0x00004e37

00004b28 <AddOffLineRecord>:
    4b28:	2280      	movs	r2, #128	; 0x80
    4b2a:	b5f0      	push	{r4, r5, r6, r7, lr}
    4b2c:	4b22      	ldr	r3, [pc, #136]	; (4bb8 <AddOffLineRecord+0x90>)
    4b2e:	b085      	sub	sp, #20
    4b30:	899b      	ldrh	r3, [r3, #12]
    4b32:	0007      	movs	r7, r0
    4b34:	3306      	adds	r3, #6
    4b36:	185b      	adds	r3, r3, r1
    4b38:	000c      	movs	r4, r1
    4b3a:	00d2      	lsls	r2, r2, #3
    4b3c:	4293      	cmp	r3, r2
    4b3e:	d901      	bls.n	4b44 <AddOffLineRecord+0x1c>
    4b40:	f7ff ff8a 	bl	4a58 <FlushOffLineDataBuffer>
    4b44:	2208      	movs	r2, #8
    4b46:	2100      	movs	r1, #0
    4b48:	a802      	add	r0, sp, #8
    4b4a:	f001 fa79 	bl	6040 <memset>
    4b4e:	4e1a      	ldr	r6, [pc, #104]	; (4bb8 <AddOffLineRecord+0x90>)
    4b50:	b2a1      	uxth	r1, r4
    4b52:	89b3      	ldrh	r3, [r6, #12]
    4b54:	0038      	movs	r0, r7
    4b56:	001d      	movs	r5, r3
    4b58:	3508      	adds	r5, #8
    4b5a:	1975      	adds	r5, r6, r5
    4b5c:	1daa      	adds	r2, r5, #6
    4b5e:	9200      	str	r2, [sp, #0]
    4b60:	2202      	movs	r2, #2
    4b62:	18f3      	adds	r3, r6, r3
    4b64:	739a      	strb	r2, [r3, #14]
    4b66:	f7ff fa61 	bl	402c <crc16>
    4b6a:	3507      	adds	r5, #7
    4b6c:	b2a4      	uxth	r4, r4
    4b6e:	0022      	movs	r2, r4
    4b70:	9001      	str	r0, [sp, #4]
    4b72:	0039      	movs	r1, r7
    4b74:	0028      	movs	r0, r5
    4b76:	f001 fa5f 	bl	6038 <memcpy>
    4b7a:	192c      	adds	r4, r5, r4
    4b7c:	9901      	ldr	r1, [sp, #4]
    4b7e:	a802      	add	r0, sp, #8
    4b80:	f7ff fad2 	bl	4128 <Hex2Str>
    4b84:	2204      	movs	r2, #4
    4b86:	a903      	add	r1, sp, #12
    4b88:	0020      	movs	r0, r4
    4b8a:	f001 fa55 	bl	6038 <memcpy>
    4b8e:	2303      	movs	r3, #3
    4b90:	7123      	strb	r3, [r4, #4]
    4b92:	2300      	movs	r3, #0
    4b94:	9800      	ldr	r0, [sp, #0]
    4b96:	7163      	strb	r3, [r4, #5]
    4b98:	f7ff fa88 	bl	40ac <PRINT_K>
    4b9c:	9b00      	ldr	r3, [sp, #0]
    4b9e:	3405      	adds	r4, #5
    4ba0:	1ae4      	subs	r4, r4, r3
    4ba2:	0020      	movs	r0, r4
    4ba4:	f7ff fa6c 	bl	4080 <PRINT_INT>
    4ba8:	4804      	ldr	r0, [pc, #16]	; (4bbc <AddOffLineRecord+0x94>)
    4baa:	f7ff fa7f 	bl	40ac <PRINT_K>
    4bae:	89b5      	ldrh	r5, [r6, #12]
    4bb0:	192c      	adds	r4, r5, r4
    4bb2:	81b4      	strh	r4, [r6, #12]
    4bb4:	b005      	add	sp, #20
    4bb6:	bdf0      	pop	{r4, r5, r6, r7, pc}
    4bb8:	10000c44 	.word	0x10000c44
    4bbc:	00004e4d 	.word	0x00004e4d

00004bc0 <Trio_SPITask>:
    4bc0:	b5f0      	push	{r4, r5, r6, r7, lr}
    4bc2:	b0cf      	sub	sp, #316	; 0x13c
    4bc4:	ac06      	add	r4, sp, #24
    4bc6:	0020      	movs	r0, r4
    4bc8:	ad01      	add	r5, sp, #4
    4bca:	f000 fb53 	bl	5274 <Get_GGAInfo>
    4bce:	0028      	movs	r0, r5
    4bd0:	f000 fb5e 	bl	5290 <Get_GSAInfo>
    4bd4:	4e2d      	ldr	r6, [pc, #180]	; (4c8c <Trio_SPITask+0xcc>)
    4bd6:	0030      	movs	r0, r6
    4bd8:	3030      	adds	r0, #48	; 0x30
    4bda:	f7ff fae3 	bl	41a4 <mn_timer_expired>
    4bde:	2800      	cmp	r0, #0
    4be0:	d00b      	beq.n	4bfa <Trio_SPITask+0x3a>
    4be2:	4b2b      	ldr	r3, [pc, #172]	; (4c90 <Trio_SPITask+0xd0>)
    4be4:	689a      	ldr	r2, [r3, #8]
    4be6:	685b      	ldr	r3, [r3, #4]
    4be8:	429a      	cmp	r2, r3
    4bea:	d001      	beq.n	4bf0 <Trio_SPITask+0x30>
    4bec:	f7ff ff20 	bl	4a30 <UpdateOffLineDataReadAddress>
    4bf0:	0030      	movs	r0, r6
    4bf2:	4928      	ldr	r1, [pc, #160]	; (4c94 <Trio_SPITask+0xd4>)
    4bf4:	3030      	adds	r0, #48	; 0x30
    4bf6:	f7ff faf3 	bl	41e0 <Set_Timer>
    4bfa:	4b27      	ldr	r3, [pc, #156]	; (4c98 <Trio_SPITask+0xd8>)
    4bfc:	33a8      	adds	r3, #168	; 0xa8
    4bfe:	781f      	ldrb	r7, [r3, #0]
    4c00:	2f00      	cmp	r7, #0
    4c02:	d13b      	bne.n	4c7c <Trio_SPITask+0xbc>
    4c04:	4e25      	ldr	r6, [pc, #148]	; (4c9c <Trio_SPITask+0xdc>)
    4c06:	0030      	movs	r0, r6
    4c08:	301c      	adds	r0, #28
    4c0a:	f7ff facb 	bl	41a4 <mn_timer_expired>
    4c0e:	2800      	cmp	r0, #0
    4c10:	d01d      	beq.n	4c4e <Trio_SPITask+0x8e>
    4c12:	786b      	ldrb	r3, [r5, #1]
    4c14:	2b03      	cmp	r3, #3
    4c16:	d113      	bne.n	4c40 <Trio_SPITask+0x80>
    4c18:	7f23      	ldrb	r3, [r4, #28]
    4c1a:	2b00      	cmp	r3, #0
    4c1c:	d010      	beq.n	4c40 <Trio_SPITask+0x80>
    4c1e:	4820      	ldr	r0, [pc, #128]	; (4ca0 <Trio_SPITask+0xe0>)
    4c20:	f7ff fa44 	bl	40ac <PRINT_K>
    4c24:	2280      	movs	r2, #128	; 0x80
    4c26:	0039      	movs	r1, r7
    4c28:	0052      	lsls	r2, r2, #1
    4c2a:	a80e      	add	r0, sp, #56	; 0x38
    4c2c:	f001 fa08 	bl	6040 <memset>
    4c30:	0039      	movs	r1, r7
    4c32:	a80e      	add	r0, sp, #56	; 0x38
    4c34:	f7fd fd63 	bl	26fe <Trio_PrepareTMessage>
    4c38:	0001      	movs	r1, r0
    4c3a:	a80e      	add	r0, sp, #56	; 0x38
    4c3c:	f7ff ff74 	bl	4b28 <AddOffLineRecord>
    4c40:	f7ff fc38 	bl	44b4 <Get_LogPeriod>
    4c44:	0001      	movs	r1, r0
    4c46:	0030      	movs	r0, r6
    4c48:	301c      	adds	r0, #28
    4c4a:	f7ff fac9 	bl	41e0 <Set_Timer>
    4c4e:	4668      	mov	r0, sp
    4c50:	f7ff fbec 	bl	442c <Get_EventStatus>
    4c54:	2800      	cmp	r0, #0
    4c56:	d017      	beq.n	4c88 <Trio_SPITask+0xc8>
    4c58:	4812      	ldr	r0, [pc, #72]	; (4ca4 <Trio_SPITask+0xe4>)
    4c5a:	f7ff fa27 	bl	40ac <PRINT_K>
    4c5e:	2280      	movs	r2, #128	; 0x80
    4c60:	2100      	movs	r1, #0
    4c62:	0052      	lsls	r2, r2, #1
    4c64:	a80e      	add	r0, sp, #56	; 0x38
    4c66:	f001 f9eb 	bl	6040 <memset>
    4c6a:	2100      	movs	r1, #0
    4c6c:	a80e      	add	r0, sp, #56	; 0x38
    4c6e:	f7fd fd46 	bl	26fe <Trio_PrepareTMessage>
    4c72:	0001      	movs	r1, r0
    4c74:	a80e      	add	r0, sp, #56	; 0x38
    4c76:	f7ff ff57 	bl	4b28 <AddOffLineRecord>
    4c7a:	e005      	b.n	4c88 <Trio_SPITask+0xc8>
    4c7c:	4b04      	ldr	r3, [pc, #16]	; (4c90 <Trio_SPITask+0xd0>)
    4c7e:	899b      	ldrh	r3, [r3, #12]
    4c80:	2b00      	cmp	r3, #0
    4c82:	d001      	beq.n	4c88 <Trio_SPITask+0xc8>
    4c84:	f7ff fee8 	bl	4a58 <FlushOffLineDataBuffer>
    4c88:	b04f      	add	sp, #316	; 0x13c
    4c8a:	bdf0      	pop	{r4, r5, r6, r7, pc}
    4c8c:	10000890 	.word	0x10000890
    4c90:	10000c44 	.word	0x10000c44
    4c94:	00057e40 	.word	0x00057e40
    4c98:	10000810 	.word	0x10000810
    4c9c:	10000710 	.word	0x10000710
    4ca0:	00004e5e 	.word	0x00004e5e
    4ca4:	00004e70 	.word	0x00004e70

00004ca8 <SST25_Read>:
    4ca8:	b533      	push	{r0, r1, r4, r5, lr}
    4caa:	0015      	movs	r5, r2
    4cac:	2203      	movs	r2, #3
    4cae:	4b0e      	ldr	r3, [pc, #56]	; (4ce8 <SST25_Read+0x40>)
    4cb0:	b0ff      	sub	sp, #508	; 0x1fc
    4cb2:	701a      	strb	r2, [r3, #0]
    4cb4:	0c02      	lsrs	r2, r0, #16
    4cb6:	705a      	strb	r2, [r3, #1]
    4cb8:	70d8      	strb	r0, [r3, #3]
    4cba:	0a02      	lsrs	r2, r0, #8
    4cbc:	1d08      	adds	r0, r1, #4
    4cbe:	b280      	uxth	r0, r0
    4cc0:	709a      	strb	r2, [r3, #2]
    4cc2:	000c      	movs	r4, r1
    4cc4:	0002      	movs	r2, r0
    4cc6:	4669      	mov	r1, sp
    4cc8:	f7ff f84a 	bl	3d60 <send_spi_data.constprop.50>
    4ccc:	2304      	movs	r3, #4
    4cce:	3403      	adds	r4, #3
    4cd0:	42a3      	cmp	r3, r4
    4cd2:	dc05      	bgt.n	4ce0 <SST25_Read+0x38>
    4cd4:	4669      	mov	r1, sp
    4cd6:	5cc9      	ldrb	r1, [r1, r3]
    4cd8:	1f1a      	subs	r2, r3, #4
    4cda:	54a9      	strb	r1, [r5, r2]
    4cdc:	3301      	adds	r3, #1
    4cde:	e7f7      	b.n	4cd0 <SST25_Read+0x28>
    4ce0:	2000      	movs	r0, #0
    4ce2:	b07f      	add	sp, #508	; 0x1fc
    4ce4:	bd36      	pop	{r1, r2, r4, r5, pc}
    4ce6:	46c0      	nop			; (mov r8, r8)
    4ce8:	10000534 	.word	0x10000534

00004cec <I2C0_IRQHandler>:
    4cec:	b510      	push	{r4, lr}
    4cee:	f7fb fe97 	bl	a20 <IntDefaultHandler>
    4cf2:	bd10      	pop	{r4, pc}
    4cf4:	434f4c42 	.word	0x434f4c42
    4cf8:	4547414b 	.word	0x4547414b
    4cfc:	54434120 	.word	0x54434120
    4d00:	54415649 	.word	0x54415649
    4d04:	000a4445 	.word	0x000a4445
    4d08:	434f4c42 	.word	0x434f4c42
    4d0c:	4547414b 	.word	0x4547414b
    4d10:	4d455220 	.word	0x4d455220
    4d14:	4445564f 	.word	0x4445564f
    4d18:	400a000a 	.word	0x400a000a
    4d1c:	2e404040 	.word	0x2e404040
    4d20:	2e2e2e2e 	.word	0x2e2e2e2e
    4d24:	5f4d4953 	.word	0x5f4d4953
    4d28:	45534e49 	.word	0x45534e49
    4d2c:	44455452 	.word	0x44455452
    4d30:	402e2e2e 	.word	0x402e2e2e
    4d34:	40404040 	.word	0x40404040
    4d38:	400a000a 	.word	0x400a000a
    4d3c:	2e404040 	.word	0x2e404040
    4d40:	2e2e2e2e 	.word	0x2e2e2e2e
    4d44:	4d49532e 	.word	0x4d49532e
    4d48:	4d45525f 	.word	0x4d45525f
    4d4c:	4445564f 	.word	0x4445564f
    4d50:	2e2e2e2e 	.word	0x2e2e2e2e
    4d54:	4040402e 	.word	0x4040402e
    4d58:	000a4040 	.word	0x000a4040
    4d5c:	4e47490a 	.word	0x4e47490a
    4d60:	44455449 	.word	0x44455449
    4d64:	4e0a000a 	.word	0x4e0a000a
    4d68:	495f544f 	.word	0x495f544f
    4d6c:	54494e47 	.word	0x54494e47
    4d70:	000a4445 	.word	0x000a4445
    4d74:	2074754f 	.word	0x2074754f
    4d78:	4920666f 	.word	0x4920666f
    4d7c:	20454c44 	.word	0x20454c44
    4d80:	74617473 	.word	0x74617473
    4d84:	54000a65 	.word	0x54000a65
    4d88:	6f656d69 	.word	0x6f656d69
    4d8c:	62207475 	.word	0x62207475
    4d90:	656c6b65 	.word	0x656c6b65
    4d94:	6e656b72 	.word	0x6e656b72
    4d98:	72616820 	.word	0x72616820
    4d9c:	74656b65 	.word	0x74656b65
    4da0:	69646520 	.word	0x69646520
    4da4:	0a69646c 	.word	0x0a69646c
    4da8:	6c644900 	.word	0x6c644900
    4dac:	69542065 	.word	0x69542065
    4db0:	756f656d 	.word	0x756f656d
    4db4:	6c612074 	.word	0x6c612074
    4db8:	696d7261 	.word	0x696d7261
    4dbc:	756c6f20 	.word	0x756c6f20
    4dc0:	0a757473 	.word	0x0a757473
    4dc4:	69615700 	.word	0x69615700
    4dc8:	676e6974 	.word	0x676e6974
    4dcc:	6c644920 	.word	0x6c644920
    4dd0:	69542065 	.word	0x69542065
    4dd4:	756f656d 	.word	0x756f656d
    4dd8:	48000a74 	.word	0x48000a74
    4ddc:	6c207a69 	.word	0x6c207a69
    4de0:	74696d69 	.word	0x74696d69
    4de4:	73612069 	.word	0x73612069
    4de8:	69646c69 	.word	0x69646c69
    4dec:	48000a0d 	.word	0x48000a0d
    4df0:	6c207a69 	.word	0x6c207a69
    4df4:	74696d69 	.word	0x74696d69
    4df8:	69742069 	.word	0x69742069
    4dfc:	756f656d 	.word	0x756f656d
    4e00:	000a0d74 	.word	0x000a0d74
    4e04:	45574f50 	.word	0x45574f50
    4e08:	50415f52 	.word	0x50415f52
    4e0c:	45494c50 	.word	0x45494c50
    4e10:	50000a44 	.word	0x50000a44
    4e14:	5245574f 	.word	0x5245574f
    4e18:	4d45525f 	.word	0x4d45525f
    4e1c:	4445564f 	.word	0x4445564f
    4e20:	4c0a000a 	.word	0x4c0a000a
    4e24:	5220676f 	.word	0x5220676f
    4e28:	20646165 	.word	0x20646165
    4e2c:	72646441 	.word	0x72646441
    4e30:	20737365 	.word	0x20737365
    4e34:	0a007830 	.word	0x0a007830
    4e38:	20676f4c 	.word	0x20676f4c
    4e3c:	74697257 	.word	0x74697257
    4e40:	64412065 	.word	0x64412065
    4e44:	73657264 	.word	0x73657264
    4e48:	78302073 	.word	0x78302073
    4e4c:	79622000 	.word	0x79622000
    4e50:	20736574 	.word	0x20736574
    4e54:	66667562 	.word	0x66667562
    4e58:	64657265 	.word	0x64657265
    4e5c:	4c0a000a 	.word	0x4c0a000a
    4e60:	4e49474f 	.word	0x4e49474f
    4e64:	50472047 	.word	0x50472047
    4e68:	41442053 	.word	0x41442053
    4e6c:	000a4154 	.word	0x000a4154
    4e70:	474f4c0a 	.word	0x474f4c0a
    4e74:	20474e49 	.word	0x20474e49
    4e78:	4e455645 	.word	0x4e455645
    4e7c:	ff000a54 	.word	0xff000a54

00004e80 <nmea_parse_int>:
    4e80:	b5f0      	push	{r4, r5, r6, r7, lr}
    4e82:	240a      	movs	r4, #10
    4e84:	2300      	movs	r3, #0
    4e86:	2720      	movs	r7, #32
    4e88:	46a4      	mov	ip, r4
    4e8a:	b2c9      	uxtb	r1, r1
    4e8c:	6804      	ldr	r4, [r0, #0]
    4e8e:	4e0c      	ldr	r6, [pc, #48]	; (4ec0 <nmea_parse_int+0x40>)
    4e90:	7825      	ldrb	r5, [r4, #0]
    4e92:	1976      	adds	r6, r6, r5
    4e94:	3680      	adds	r6, #128	; 0x80
    4e96:	7836      	ldrb	r6, [r6, #0]
    4e98:	423e      	tst	r6, r7
    4e9a:	d00d      	beq.n	4eb8 <nmea_parse_int+0x38>
    4e9c:	2900      	cmp	r1, #0
    4e9e:	d00b      	beq.n	4eb8 <nmea_parse_int+0x38>
    4ea0:	4666      	mov	r6, ip
    4ea2:	4373      	muls	r3, r6
    4ea4:	002e      	movs	r6, r5
    4ea6:	3e30      	subs	r6, #48	; 0x30
    4ea8:	18f3      	adds	r3, r6, r3
    4eaa:	2d00      	cmp	r5, #0
    4eac:	d001      	beq.n	4eb2 <nmea_parse_int+0x32>
    4eae:	3401      	adds	r4, #1
    4eb0:	6004      	str	r4, [r0, #0]
    4eb2:	3901      	subs	r1, #1
    4eb4:	b2c9      	uxtb	r1, r1
    4eb6:	e7e9      	b.n	4e8c <nmea_parse_int+0xc>
    4eb8:	2001      	movs	r0, #1
    4eba:	6013      	str	r3, [r2, #0]
    4ebc:	bdf0      	pop	{r4, r5, r6, r7, pc}
    4ebe:	46c0      	nop			; (mov r8, r8)
    4ec0:	000061c0 	.word	0x000061c0

00004ec4 <nmea_parse_fixed_point>:
    4ec4:	b5f0      	push	{r4, r5, r6, r7, lr}
    4ec6:	b085      	sub	sp, #20
    4ec8:	9100      	str	r1, [sp, #0]
    4eca:	2101      	movs	r1, #1
    4ecc:	2400      	movs	r4, #0
    4ece:	9201      	str	r2, [sp, #4]
    4ed0:	4249      	negs	r1, r1
    4ed2:	aa03      	add	r2, sp, #12
    4ed4:	0005      	movs	r5, r0
    4ed6:	9403      	str	r4, [sp, #12]
    4ed8:	f7ff ffd2 	bl	4e80 <nmea_parse_int>
    4edc:	0006      	movs	r6, r0
    4ede:	42a0      	cmp	r0, r4
    4ee0:	d031      	beq.n	4f46 <nmea_parse_fixed_point+0x82>
    4ee2:	682b      	ldr	r3, [r5, #0]
    4ee4:	781a      	ldrb	r2, [r3, #0]
    4ee6:	2a2e      	cmp	r2, #46	; 0x2e
    4ee8:	d12c      	bne.n	4f44 <nmea_parse_fixed_point+0x80>
    4eea:	3301      	adds	r3, #1
    4eec:	602b      	str	r3, [r5, #0]
    4eee:	2305      	movs	r3, #5
    4ef0:	0020      	movs	r0, r4
    4ef2:	469c      	mov	ip, r3
    4ef4:	18db      	adds	r3, r3, r3
    4ef6:	2720      	movs	r7, #32
    4ef8:	682a      	ldr	r2, [r5, #0]
    4efa:	4c14      	ldr	r4, [pc, #80]	; (4f4c <nmea_parse_fixed_point+0x88>)
    4efc:	7811      	ldrb	r1, [r2, #0]
    4efe:	1864      	adds	r4, r4, r1
    4f00:	3480      	adds	r4, #128	; 0x80
    4f02:	7824      	ldrb	r4, [r4, #0]
    4f04:	423c      	tst	r4, r7
    4f06:	d010      	beq.n	4f2a <nmea_parse_fixed_point+0x66>
    4f08:	240a      	movs	r4, #10
    4f0a:	4360      	muls	r0, r4
    4f0c:	000c      	movs	r4, r1
    4f0e:	3c30      	subs	r4, #48	; 0x30
    4f10:	1820      	adds	r0, r4, r0
    4f12:	2900      	cmp	r1, #0
    4f14:	d001      	beq.n	4f1a <nmea_parse_fixed_point+0x56>
    4f16:	3201      	adds	r2, #1
    4f18:	602a      	str	r2, [r5, #0]
    4f1a:	220a      	movs	r2, #10
    4f1c:	4353      	muls	r3, r2
    4f1e:	3a0b      	subs	r2, #11
    4f20:	4494      	add	ip, r2
    4f22:	4662      	mov	r2, ip
    4f24:	2a00      	cmp	r2, #0
    4f26:	d1e6      	bne.n	4ef6 <nmea_parse_fixed_point+0x32>
    4f28:	e006      	b.n	4f38 <nmea_parse_fixed_point+0x74>
    4f2a:	22fa      	movs	r2, #250	; 0xfa
    4f2c:	0092      	lsls	r2, r2, #2
    4f2e:	4293      	cmp	r3, r2
    4f30:	d102      	bne.n	4f38 <nmea_parse_fixed_point+0x74>
    4f32:	210a      	movs	r1, #10
    4f34:	f7fb f8c4 	bl	c0 <__aeabi_idiv>
    4f38:	9b03      	ldr	r3, [sp, #12]
    4f3a:	9a00      	ldr	r2, [sp, #0]
    4f3c:	6013      	str	r3, [r2, #0]
    4f3e:	9b01      	ldr	r3, [sp, #4]
    4f40:	6018      	str	r0, [r3, #0]
    4f42:	e000      	b.n	4f46 <nmea_parse_fixed_point+0x82>
    4f44:	0026      	movs	r6, r4
    4f46:	0030      	movs	r0, r6
    4f48:	b005      	add	sp, #20
    4f4a:	bdf0      	pop	{r4, r5, r6, r7, pc}
    4f4c:	000061c0 	.word	0x000061c0

00004f50 <nmea_parse_gpgga.lto_priv.79>:
    4f50:	2302      	movs	r3, #2
    4f52:	b530      	push	{r4, r5, lr}
    4f54:	b085      	sub	sp, #20
    4f56:	700b      	strb	r3, [r1, #0]
    4f58:	9001      	str	r0, [sp, #4]
    4f5a:	a801      	add	r0, sp, #4
    4f5c:	000d      	movs	r5, r1
    4f5e:	f7fe ff8d 	bl	3e7c <nmea_parse_next_field.constprop.0>
    4f62:	a801      	add	r0, sp, #4
    4f64:	f7fe ff8a 	bl	3e7c <nmea_parse_next_field.constprop.0>
    4f68:	a801      	add	r0, sp, #4
    4f6a:	f7fe ff87 	bl	3e7c <nmea_parse_next_field.constprop.0>
    4f6e:	a801      	add	r0, sp, #4
    4f70:	f7fe ff84 	bl	3e7c <nmea_parse_next_field.constprop.0>
    4f74:	a801      	add	r0, sp, #4
    4f76:	f7fe ff81 	bl	3e7c <nmea_parse_next_field.constprop.0>
    4f7a:	a801      	add	r0, sp, #4
    4f7c:	f7fe ff7e 	bl	3e7c <nmea_parse_next_field.constprop.0>
    4f80:	2101      	movs	r1, #1
    4f82:	aa03      	add	r2, sp, #12
    4f84:	4249      	negs	r1, r1
    4f86:	a801      	add	r0, sp, #4
    4f88:	f7ff ff7a 	bl	4e80 <nmea_parse_int>
    4f8c:	1e04      	subs	r4, r0, #0
    4f8e:	d003      	beq.n	4f98 <nmea_parse_gpgga.lto_priv.79+0x48>
    4f90:	002b      	movs	r3, r5
    4f92:	9a03      	ldr	r2, [sp, #12]
    4f94:	3348      	adds	r3, #72	; 0x48
    4f96:	701a      	strb	r2, [r3, #0]
    4f98:	a801      	add	r0, sp, #4
    4f9a:	f7fe ff6f 	bl	3e7c <nmea_parse_next_field.constprop.0>
    4f9e:	2101      	movs	r1, #1
    4fa0:	aa03      	add	r2, sp, #12
    4fa2:	4249      	negs	r1, r1
    4fa4:	a801      	add	r0, sp, #4
    4fa6:	f7ff ff6b 	bl	4e80 <nmea_parse_int>
    4faa:	4004      	ands	r4, r0
    4fac:	b2e0      	uxtb	r0, r4
    4fae:	2800      	cmp	r0, #0
    4fb0:	d002      	beq.n	4fb8 <nmea_parse_gpgga.lto_priv.79+0x68>
    4fb2:	9b03      	ldr	r3, [sp, #12]
    4fb4:	3549      	adds	r5, #73	; 0x49
    4fb6:	702b      	strb	r3, [r5, #0]
    4fb8:	b005      	add	sp, #20
    4fba:	bd30      	pop	{r4, r5, pc}

00004fbc <nmea_parse_gprmc.lto_priv.78>:
    4fbc:	b57f      	push	{r0, r1, r2, r3, r4, r5, r6, lr}
    4fbe:	2301      	movs	r3, #1
    4fc0:	9001      	str	r0, [sp, #4]
    4fc2:	700b      	strb	r3, [r1, #0]
    4fc4:	a801      	add	r0, sp, #4
    4fc6:	000c      	movs	r4, r1
    4fc8:	f7fe ff58 	bl	3e7c <nmea_parse_next_field.constprop.0>
    4fcc:	aa03      	add	r2, sp, #12
    4fce:	2102      	movs	r1, #2
    4fd0:	a801      	add	r0, sp, #4
    4fd2:	f7ff ff55 	bl	4e80 <nmea_parse_int>
    4fd6:	2800      	cmp	r0, #0
    4fd8:	d001      	beq.n	4fde <nmea_parse_gprmc.lto_priv.78+0x22>
    4fda:	9b03      	ldr	r3, [sp, #12]
    4fdc:	7123      	strb	r3, [r4, #4]
    4fde:	aa03      	add	r2, sp, #12
    4fe0:	2102      	movs	r1, #2
    4fe2:	a801      	add	r0, sp, #4
    4fe4:	f7ff ff4c 	bl	4e80 <nmea_parse_int>
    4fe8:	2800      	cmp	r0, #0
    4fea:	d001      	beq.n	4ff0 <nmea_parse_gprmc.lto_priv.78+0x34>
    4fec:	9b03      	ldr	r3, [sp, #12]
    4fee:	7163      	strb	r3, [r4, #5]
    4ff0:	aa03      	add	r2, sp, #12
    4ff2:	2102      	movs	r1, #2
    4ff4:	a801      	add	r0, sp, #4
    4ff6:	f7ff ff43 	bl	4e80 <nmea_parse_int>
    4ffa:	2800      	cmp	r0, #0
    4ffc:	d001      	beq.n	5002 <nmea_parse_gprmc.lto_priv.78+0x46>
    4ffe:	9b03      	ldr	r3, [sp, #12]
    5000:	71a3      	strb	r3, [r4, #6]
    5002:	a801      	add	r0, sp, #4
    5004:	f7fe ff3a 	bl	3e7c <nmea_parse_next_field.constprop.0>
    5008:	9b01      	ldr	r3, [sp, #4]
    500a:	4d49      	ldr	r5, [pc, #292]	; (5130 <nmea_parse_gprmc.lto_priv.78+0x174>)
    500c:	781a      	ldrb	r2, [r3, #0]
    500e:	18ab      	adds	r3, r5, r2
    5010:	3380      	adds	r3, #128	; 0x80
    5012:	781b      	ldrb	r3, [r3, #0]
    5014:	06db      	lsls	r3, r3, #27
    5016:	d500      	bpl.n	501a <nmea_parse_gprmc.lto_priv.78+0x5e>
    5018:	e081      	b.n	511e <nmea_parse_gprmc.lto_priv.78+0x162>
    501a:	a801      	add	r0, sp, #4
    501c:	f7fe ff2e 	bl	3e7c <nmea_parse_next_field.constprop.0>
    5020:	aa02      	add	r2, sp, #8
    5022:	a903      	add	r1, sp, #12
    5024:	a801      	add	r0, sp, #4
    5026:	f7ff ff4d 	bl	4ec4 <nmea_parse_fixed_point>
    502a:	2800      	cmp	r0, #0
    502c:	d00c      	beq.n	5048 <nmea_parse_gprmc.lto_priv.78+0x8c>
    502e:	9e03      	ldr	r6, [sp, #12]
    5030:	2164      	movs	r1, #100	; 0x64
    5032:	0030      	movs	r0, r6
    5034:	f7fb f844 	bl	c0 <__aeabi_idiv>
    5038:	2164      	movs	r1, #100	; 0x64
    503a:	8160      	strh	r0, [r4, #10]
    503c:	0030      	movs	r0, r6
    503e:	f7fb f83f 	bl	c0 <__aeabi_idiv>
    5042:	9b02      	ldr	r3, [sp, #8]
    5044:	81a1      	strh	r1, [r4, #12]
    5046:	6123      	str	r3, [r4, #16]
    5048:	a801      	add	r0, sp, #4
    504a:	f7fe ff17 	bl	3e7c <nmea_parse_next_field.constprop.0>
    504e:	9b01      	ldr	r3, [sp, #4]
    5050:	781a      	ldrb	r2, [r3, #0]
    5052:	18ab      	adds	r3, r5, r2
    5054:	3380      	adds	r3, #128	; 0x80
    5056:	781b      	ldrb	r3, [r3, #0]
    5058:	06db      	lsls	r3, r3, #27
    505a:	d462      	bmi.n	5122 <nmea_parse_gprmc.lto_priv.78+0x166>
    505c:	a801      	add	r0, sp, #4
    505e:	f7fe ff0d 	bl	3e7c <nmea_parse_next_field.constprop.0>
    5062:	aa02      	add	r2, sp, #8
    5064:	a903      	add	r1, sp, #12
    5066:	a801      	add	r0, sp, #4
    5068:	f7ff ff2c 	bl	4ec4 <nmea_parse_fixed_point>
    506c:	2800      	cmp	r0, #0
    506e:	d00c      	beq.n	508a <nmea_parse_gprmc.lto_priv.78+0xce>
    5070:	9e03      	ldr	r6, [sp, #12]
    5072:	2164      	movs	r1, #100	; 0x64
    5074:	0030      	movs	r0, r6
    5076:	f7fb f823 	bl	c0 <__aeabi_idiv>
    507a:	2164      	movs	r1, #100	; 0x64
    507c:	82e0      	strh	r0, [r4, #22]
    507e:	0030      	movs	r0, r6
    5080:	f7fb f81e 	bl	c0 <__aeabi_idiv>
    5084:	9b02      	ldr	r3, [sp, #8]
    5086:	8321      	strh	r1, [r4, #24]
    5088:	61e3      	str	r3, [r4, #28]
    508a:	a801      	add	r0, sp, #4
    508c:	f7fe fef6 	bl	3e7c <nmea_parse_next_field.constprop.0>
    5090:	9b01      	ldr	r3, [sp, #4]
    5092:	781b      	ldrb	r3, [r3, #0]
    5094:	18ed      	adds	r5, r5, r3
    5096:	3580      	adds	r5, #128	; 0x80
    5098:	782a      	ldrb	r2, [r5, #0]
    509a:	06d2      	lsls	r2, r2, #27
    509c:	d443      	bmi.n	5126 <nmea_parse_gprmc.lto_priv.78+0x16a>
    509e:	a801      	add	r0, sp, #4
    50a0:	f7fe feec 	bl	3e7c <nmea_parse_next_field.constprop.0>
    50a4:	aa02      	add	r2, sp, #8
    50a6:	a903      	add	r1, sp, #12
    50a8:	a801      	add	r0, sp, #4
    50aa:	f7ff ff0b 	bl	4ec4 <nmea_parse_fixed_point>
    50ae:	2800      	cmp	r0, #0
    50b0:	d003      	beq.n	50ba <nmea_parse_gprmc.lto_priv.78+0xfe>
    50b2:	9b03      	ldr	r3, [sp, #12]
    50b4:	8423      	strh	r3, [r4, #32]
    50b6:	9b02      	ldr	r3, [sp, #8]
    50b8:	8463      	strh	r3, [r4, #34]	; 0x22
    50ba:	a801      	add	r0, sp, #4
    50bc:	f7fe fede 	bl	3e7c <nmea_parse_next_field.constprop.0>
    50c0:	aa02      	add	r2, sp, #8
    50c2:	a903      	add	r1, sp, #12
    50c4:	a801      	add	r0, sp, #4
    50c6:	f7ff fefd 	bl	4ec4 <nmea_parse_fixed_point>
    50ca:	2800      	cmp	r0, #0
    50cc:	d003      	beq.n	50d6 <nmea_parse_gprmc.lto_priv.78+0x11a>
    50ce:	9b03      	ldr	r3, [sp, #12]
    50d0:	84a3      	strh	r3, [r4, #36]	; 0x24
    50d2:	9b02      	ldr	r3, [sp, #8]
    50d4:	84e3      	strh	r3, [r4, #38]	; 0x26
    50d6:	a801      	add	r0, sp, #4
    50d8:	f7fe fed0 	bl	3e7c <nmea_parse_next_field.constprop.0>
    50dc:	aa03      	add	r2, sp, #12
    50de:	2102      	movs	r1, #2
    50e0:	a801      	add	r0, sp, #4
    50e2:	f7ff fecd 	bl	4e80 <nmea_parse_int>
    50e6:	2800      	cmp	r0, #0
    50e8:	d003      	beq.n	50f2 <nmea_parse_gprmc.lto_priv.78+0x136>
    50ea:	0023      	movs	r3, r4
    50ec:	9a03      	ldr	r2, [sp, #12]
    50ee:	3328      	adds	r3, #40	; 0x28
    50f0:	701a      	strb	r2, [r3, #0]
    50f2:	aa03      	add	r2, sp, #12
    50f4:	2102      	movs	r1, #2
    50f6:	a801      	add	r0, sp, #4
    50f8:	f7ff fec2 	bl	4e80 <nmea_parse_int>
    50fc:	2800      	cmp	r0, #0
    50fe:	d003      	beq.n	5108 <nmea_parse_gprmc.lto_priv.78+0x14c>
    5100:	0023      	movs	r3, r4
    5102:	9a03      	ldr	r2, [sp, #12]
    5104:	3329      	adds	r3, #41	; 0x29
    5106:	701a      	strb	r2, [r3, #0]
    5108:	aa03      	add	r2, sp, #12
    510a:	2102      	movs	r1, #2
    510c:	a801      	add	r0, sp, #4
    510e:	f7ff feb7 	bl	4e80 <nmea_parse_int>
    5112:	2800      	cmp	r0, #0
    5114:	d009      	beq.n	512a <nmea_parse_gprmc.lto_priv.78+0x16e>
    5116:	9b03      	ldr	r3, [sp, #12]
    5118:	342a      	adds	r4, #42	; 0x2a
    511a:	7023      	strb	r3, [r4, #0]
    511c:	e005      	b.n	512a <nmea_parse_gprmc.lto_priv.78+0x16e>
    511e:	71e2      	strb	r2, [r4, #7]
    5120:	e77b      	b.n	501a <nmea_parse_gprmc.lto_priv.78+0x5e>
    5122:	7222      	strb	r2, [r4, #8]
    5124:	e79a      	b.n	505c <nmea_parse_gprmc.lto_priv.78+0xa0>
    5126:	7523      	strb	r3, [r4, #20]
    5128:	e7b9      	b.n	509e <nmea_parse_gprmc.lto_priv.78+0xe2>
    512a:	b004      	add	sp, #16
    512c:	bd70      	pop	{r4, r5, r6, pc}
    512e:	46c0      	nop			; (mov r8, r8)
    5130:	000061c0 	.word	0x000061c0

00005134 <nmea_parse_gpgsa.lto_priv.80>:
    5134:	2303      	movs	r3, #3
    5136:	b5f0      	push	{r4, r5, r6, r7, lr}
    5138:	b085      	sub	sp, #20
    513a:	9001      	str	r0, [sp, #4]
    513c:	700b      	strb	r3, [r1, #0]
    513e:	a801      	add	r0, sp, #4
    5140:	000c      	movs	r4, r1
    5142:	f7fe fe9b 	bl	3e7c <nmea_parse_next_field.constprop.0>
    5146:	9b01      	ldr	r3, [sp, #4]
    5148:	781a      	ldrb	r2, [r3, #0]
    514a:	4b31      	ldr	r3, [pc, #196]	; (5210 <nmea_parse_gpgsa.lto_priv.80+0xdc>)
    514c:	189b      	adds	r3, r3, r2
    514e:	3380      	adds	r3, #128	; 0x80
    5150:	781d      	ldrb	r5, [r3, #0]
    5152:	2310      	movs	r3, #16
    5154:	401d      	ands	r5, r3
    5156:	d001      	beq.n	515c <nmea_parse_gpgsa.lto_priv.80+0x28>
    5158:	2501      	movs	r5, #1
    515a:	e000      	b.n	515e <nmea_parse_gpgsa.lto_priv.80+0x2a>
    515c:	002a      	movs	r2, r5
    515e:	0023      	movs	r3, r4
    5160:	334c      	adds	r3, #76	; 0x4c
    5162:	701a      	strb	r2, [r3, #0]
    5164:	a801      	add	r0, sp, #4
    5166:	f7fe fe89 	bl	3e7c <nmea_parse_next_field.constprop.0>
    516a:	2101      	movs	r1, #1
    516c:	aa03      	add	r2, sp, #12
    516e:	4249      	negs	r1, r1
    5170:	a801      	add	r0, sp, #4
    5172:	f7ff fe85 	bl	4e80 <nmea_parse_int>
    5176:	0023      	movs	r3, r4
    5178:	9a03      	ldr	r2, [sp, #12]
    517a:	334d      	adds	r3, #77	; 0x4d
    517c:	4005      	ands	r5, r0
    517e:	701a      	strb	r2, [r3, #0]
    5180:	a801      	add	r0, sp, #4
    5182:	0026      	movs	r6, r4
    5184:	0027      	movs	r7, r4
    5186:	f7fe fe79 	bl	3e7c <nmea_parse_next_field.constprop.0>
    518a:	364e      	adds	r6, #78	; 0x4e
    518c:	375a      	adds	r7, #90	; 0x5a
    518e:	2101      	movs	r1, #1
    5190:	aa03      	add	r2, sp, #12
    5192:	4249      	negs	r1, r1
    5194:	a801      	add	r0, sp, #4
    5196:	f7ff fe73 	bl	4e80 <nmea_parse_int>
    519a:	9b03      	ldr	r3, [sp, #12]
    519c:	4005      	ands	r5, r0
    519e:	7033      	strb	r3, [r6, #0]
    51a0:	a801      	add	r0, sp, #4
    51a2:	3601      	adds	r6, #1
    51a4:	f7fe fe6a 	bl	3e7c <nmea_parse_next_field.constprop.0>
    51a8:	42be      	cmp	r6, r7
    51aa:	d1f0      	bne.n	518e <nmea_parse_gpgsa.lto_priv.80+0x5a>
    51ac:	aa02      	add	r2, sp, #8
    51ae:	a903      	add	r1, sp, #12
    51b0:	a801      	add	r0, sp, #4
    51b2:	f7ff fe87 	bl	4ec4 <nmea_parse_fixed_point>
    51b6:	4028      	ands	r0, r5
    51b8:	b2c5      	uxtb	r5, r0
    51ba:	2d00      	cmp	r5, #0
    51bc:	d005      	beq.n	51ca <nmea_parse_gpgsa.lto_priv.80+0x96>
    51be:	0023      	movs	r3, r4
    51c0:	9a03      	ldr	r2, [sp, #12]
    51c2:	335a      	adds	r3, #90	; 0x5a
    51c4:	701a      	strb	r2, [r3, #0]
    51c6:	9a02      	ldr	r2, [sp, #8]
    51c8:	705a      	strb	r2, [r3, #1]
    51ca:	a801      	add	r0, sp, #4
    51cc:	f7fe fe56 	bl	3e7c <nmea_parse_next_field.constprop.0>
    51d0:	a903      	add	r1, sp, #12
    51d2:	aa02      	add	r2, sp, #8
    51d4:	a801      	add	r0, sp, #4
    51d6:	f7ff fe75 	bl	4ec4 <nmea_parse_fixed_point>
    51da:	0023      	movs	r3, r4
    51dc:	9a03      	ldr	r2, [sp, #12]
    51de:	335c      	adds	r3, #92	; 0x5c
    51e0:	701a      	strb	r2, [r3, #0]
    51e2:	9a02      	ldr	r2, [sp, #8]
    51e4:	0006      	movs	r6, r0
    51e6:	705a      	strb	r2, [r3, #1]
    51e8:	a801      	add	r0, sp, #4
    51ea:	f7fe fe47 	bl	3e7c <nmea_parse_next_field.constprop.0>
    51ee:	aa02      	add	r2, sp, #8
    51f0:	a903      	add	r1, sp, #12
    51f2:	a801      	add	r0, sp, #4
    51f4:	f7ff fe66 	bl	4ec4 <nmea_parse_fixed_point>
    51f8:	0023      	movs	r3, r4
    51fa:	9a03      	ldr	r2, [sp, #12]
    51fc:	335e      	adds	r3, #94	; 0x5e
    51fe:	701a      	strb	r2, [r3, #0]
    5200:	4030      	ands	r0, r6
    5202:	9b02      	ldr	r3, [sp, #8]
    5204:	345f      	adds	r4, #95	; 0x5f
    5206:	4028      	ands	r0, r5
    5208:	7023      	strb	r3, [r4, #0]
    520a:	b005      	add	sp, #20
    520c:	bdf0      	pop	{r4, r5, r6, r7, pc}
    520e:	46c0      	nop			; (mov r8, r8)
    5210:	000061c0 	.word	0x000061c0

00005214 <UART1_IRQHandler>:
    5214:	b510      	push	{r4, lr}
    5216:	4a03      	ldr	r2, [pc, #12]	; (5224 <UART1_IRQHandler+0x10>)
    5218:	4903      	ldr	r1, [pc, #12]	; (5228 <UART1_IRQHandler+0x14>)
    521a:	4804      	ldr	r0, [pc, #16]	; (522c <UART1_IRQHandler+0x18>)
    521c:	f7fe fe62 	bl	3ee4 <Chip_UART_IRQRBHandler>
    5220:	bd10      	pop	{r4, pc}
    5222:	46c0      	nop			; (mov r8, r8)
    5224:	10000af4 	.word	0x10000af4
    5228:	100008e0 	.word	0x100008e0
    522c:	40068000 	.word	0x40068000

00005230 <IsMoving>:
    5230:	4b09      	ldr	r3, [pc, #36]	; (5258 <IsMoving+0x28>)
    5232:	4a0a      	ldr	r2, [pc, #40]	; (525c <IsMoving+0x2c>)
    5234:	8c19      	ldrh	r1, [r3, #32]
    5236:	2000      	movs	r0, #0
    5238:	434a      	muls	r2, r1
    523a:	4909      	ldr	r1, [pc, #36]	; (5260 <IsMoving+0x30>)
    523c:	428a      	cmp	r2, r1
    523e:	dd0a      	ble.n	5256 <IsMoving+0x26>
    5240:	001a      	movs	r2, r3
    5242:	3248      	adds	r2, #72	; 0x48
    5244:	7812      	ldrb	r2, [r2, #0]
    5246:	4282      	cmp	r2, r0
    5248:	d005      	beq.n	5256 <IsMoving+0x26>
    524a:	3349      	adds	r3, #73	; 0x49
    524c:	7818      	ldrb	r0, [r3, #0]
    524e:	2304      	movs	r3, #4
    5250:	4283      	cmp	r3, r0
    5252:	4180      	sbcs	r0, r0
    5254:	4240      	negs	r0, r0
    5256:	4770      	bx	lr
    5258:	10000ba4 	.word	0x10000ba4
    525c:	0000073c 	.word	0x0000073c
    5260:	00002af7 	.word	0x00002af7

00005264 <Get_PositionInfo>:
    5264:	b510      	push	{r4, lr}
    5266:	2218      	movs	r2, #24
    5268:	4901      	ldr	r1, [pc, #4]	; (5270 <Get_PositionInfo+0xc>)
    526a:	f000 fee5 	bl	6038 <memcpy>
    526e:	bd10      	pop	{r4, pc}
    5270:	10000c08 	.word	0x10000c08

00005274 <Get_GGAInfo>:
    5274:	0002      	movs	r2, r0
    5276:	b510      	push	{r4, lr}
    5278:	4b04      	ldr	r3, [pc, #16]	; (528c <Get_GGAInfo+0x18>)
    527a:	332c      	adds	r3, #44	; 0x2c
    527c:	cb13      	ldmia	r3!, {r0, r1, r4}
    527e:	c213      	stmia	r2!, {r0, r1, r4}
    5280:	cb13      	ldmia	r3!, {r0, r1, r4}
    5282:	c213      	stmia	r2!, {r0, r1, r4}
    5284:	cb03      	ldmia	r3!, {r0, r1}
    5286:	c203      	stmia	r2!, {r0, r1}
    5288:	bd10      	pop	{r4, pc}
    528a:	46c0      	nop			; (mov r8, r8)
    528c:	10000ba4 	.word	0x10000ba4

00005290 <Get_GSAInfo>:
    5290:	0002      	movs	r2, r0
    5292:	b510      	push	{r4, lr}
    5294:	4b03      	ldr	r3, [pc, #12]	; (52a4 <Get_GSAInfo+0x14>)
    5296:	334c      	adds	r3, #76	; 0x4c
    5298:	cb13      	ldmia	r3!, {r0, r1, r4}
    529a:	c213      	stmia	r2!, {r0, r1, r4}
    529c:	cb03      	ldmia	r3!, {r0, r1}
    529e:	c203      	stmia	r2!, {r0, r1}
    52a0:	bd10      	pop	{r4, pc}
    52a2:	46c0      	nop			; (mov r8, r8)
    52a4:	10000ba4 	.word	0x10000ba4

000052a8 <Get_RMCInfo>:
    52a8:	0002      	movs	r2, r0
    52aa:	b510      	push	{r4, lr}
    52ac:	4b05      	ldr	r3, [pc, #20]	; (52c4 <Get_RMCInfo+0x1c>)
    52ae:	3304      	adds	r3, #4
    52b0:	cb13      	ldmia	r3!, {r0, r1, r4}
    52b2:	c213      	stmia	r2!, {r0, r1, r4}
    52b4:	cb13      	ldmia	r3!, {r0, r1, r4}
    52b6:	c213      	stmia	r2!, {r0, r1, r4}
    52b8:	cb13      	ldmia	r3!, {r0, r1, r4}
    52ba:	c213      	stmia	r2!, {r0, r1, r4}
    52bc:	681b      	ldr	r3, [r3, #0]
    52be:	6013      	str	r3, [r2, #0]
    52c0:	bd10      	pop	{r4, pc}
    52c2:	46c0      	nop			; (mov r8, r8)
    52c4:	10000ba4 	.word	0x10000ba4

000052c8 <UART2_IRQHandler>:
    52c8:	b510      	push	{r4, lr}
    52ca:	4a03      	ldr	r2, [pc, #12]	; (52d8 <UART2_IRQHandler+0x10>)
    52cc:	4903      	ldr	r1, [pc, #12]	; (52dc <UART2_IRQHandler+0x14>)
    52ce:	4804      	ldr	r0, [pc, #16]	; (52e0 <UART2_IRQHandler+0x18>)
    52d0:	f7fe fe08 	bl	3ee4 <Chip_UART_IRQRBHandler>
    52d4:	bd10      	pop	{r4, pc}
    52d6:	46c0      	nop			; (mov r8, r8)
    52d8:	10001054 	.word	0x10001054
    52dc:	10000b90 	.word	0x10000b90
    52e0:	4006c000 	.word	0x4006c000

000052e4 <Trio_Init_GPS_UART>:
    52e4:	b5f0      	push	{r4, r5, r6, r7, lr}
    52e6:	2600      	movs	r6, #0
    52e8:	b0cb      	sub	sp, #300	; 0x12c
    52ea:	4b4d      	ldr	r3, [pc, #308]	; (5420 <Trio_Init_GPS_UART+0x13c>)
    52ec:	aa07      	add	r2, sp, #28
    52ee:	cb13      	ldmia	r3!, {r0, r1, r4}
    52f0:	c213      	stmia	r2!, {r0, r1, r4}
    52f2:	681b      	ldr	r3, [r3, #0]
    52f4:	4c4b      	ldr	r4, [pc, #300]	; (5424 <Trio_Init_GPS_UART+0x140>)
    52f6:	6013      	str	r3, [r2, #0]
    52f8:	6823      	ldr	r3, [r4, #0]
    52fa:	4a4b      	ldr	r2, [pc, #300]	; (5428 <Trio_Init_GPS_UART+0x144>)
    52fc:	4f4b      	ldr	r7, [pc, #300]	; (542c <Trio_Init_GPS_UART+0x148>)
    52fe:	4013      	ands	r3, r2
    5300:	703e      	strb	r6, [r7, #0]
    5302:	2010      	movs	r0, #16
    5304:	6023      	str	r3, [r4, #0]
    5306:	f7fe fdc6 	bl	3e96 <Chip_Clock_EnablePeriphClock.lto_priv.60.lto_priv.95>
    530a:	2005      	movs	r0, #5
    530c:	f7fe fe32 	bl	3f74 <Chip_SYSCTL_PeriphReset.lto_priv.65.lto_priv.94>
    5310:	6822      	ldr	r2, [r4, #0]
    5312:	4b47      	ldr	r3, [pc, #284]	; (5430 <Trio_Init_GPS_UART+0x14c>)
    5314:	2501      	movs	r5, #1
    5316:	4013      	ands	r3, r2
    5318:	4a46      	ldr	r2, [pc, #280]	; (5434 <Trio_Init_GPS_UART+0x150>)
    531a:	a80b      	add	r0, sp, #44	; 0x2c
    531c:	4313      	orrs	r3, r2
    531e:	6023      	str	r3, [r4, #0]
    5320:	4b45      	ldr	r3, [pc, #276]	; (5438 <Trio_Init_GPS_UART+0x154>)
    5322:	4a46      	ldr	r2, [pc, #280]	; (543c <Trio_Init_GPS_UART+0x158>)
    5324:	0019      	movs	r1, r3
    5326:	3114      	adds	r1, #20
    5328:	6011      	str	r1, [r2, #0]
    532a:	2180      	movs	r1, #128	; 0x80
    532c:	0089      	lsls	r1, r1, #2
    532e:	6051      	str	r1, [r2, #4]
    5330:	6095      	str	r5, [r2, #8]
    5332:	6116      	str	r6, [r2, #16]
    5334:	60d6      	str	r6, [r2, #12]
    5336:	4a42      	ldr	r2, [pc, #264]	; (5440 <Trio_Init_GPS_UART+0x15c>)
    5338:	609d      	str	r5, [r3, #8]
    533a:	3214      	adds	r2, #20
    533c:	601a      	str	r2, [r3, #0]
    533e:	2264      	movs	r2, #100	; 0x64
    5340:	611e      	str	r6, [r3, #16]
    5342:	605a      	str	r2, [r3, #4]
    5344:	60de      	str	r6, [r3, #12]
    5346:	f000 fa2b 	bl	57a0 <Get_UserSettings>
    534a:	9948      	ldr	r1, [sp, #288]	; 0x120
    534c:	9701      	str	r7, [sp, #4]
    534e:	9500      	str	r5, [sp, #0]
    5350:	0027      	movs	r7, r4
    5352:	1c4b      	adds	r3, r1, #1
    5354:	d01b      	beq.n	538e <Trio_Init_GPS_UART+0xaa>
    5356:	0020      	movs	r0, r4
    5358:	f7fe fe4c 	bl	3ff4 <Chip_UART_SetBaud>
    535c:	6823      	ldr	r3, [r4, #0]
    535e:	4a32      	ldr	r2, [pc, #200]	; (5428 <Trio_Init_GPS_UART+0x144>)
    5360:	4938      	ldr	r1, [pc, #224]	; (5444 <Trio_Init_GPS_UART+0x160>)
    5362:	4013      	ands	r3, r2
    5364:	432b      	orrs	r3, r5
    5366:	6023      	str	r3, [r4, #0]
    5368:	6863      	ldr	r3, [r4, #4]
    536a:	4a37      	ldr	r2, [pc, #220]	; (5448 <Trio_Init_GPS_UART+0x164>)
    536c:	4837      	ldr	r0, [pc, #220]	; (544c <Trio_Init_GPS_UART+0x168>)
    536e:	4013      	ands	r3, r2
    5370:	22c1      	movs	r2, #193	; 0xc1
    5372:	6063      	str	r3, [r4, #4]
    5374:	4b36      	ldr	r3, [pc, #216]	; (5450 <Trio_Init_GPS_UART+0x16c>)
    5376:	60e5      	str	r5, [r4, #12]
    5378:	0092      	lsls	r2, r2, #2
    537a:	589b      	ldr	r3, [r3, r2]
    537c:	400b      	ands	r3, r1
    537e:	2180      	movs	r1, #128	; 0x80
    5380:	01c9      	lsls	r1, r1, #7
    5382:	430b      	orrs	r3, r1
    5384:	4932      	ldr	r1, [pc, #200]	; (5450 <Trio_Init_GPS_UART+0x16c>)
    5386:	508b      	str	r3, [r1, r2]
    5388:	2320      	movs	r3, #32
    538a:	600b      	str	r3, [r1, #0]
    538c:	e03b      	b.n	5406 <Trio_Init_GPS_UART+0x122>
    538e:	2214      	movs	r2, #20
    5390:	ab02      	add	r3, sp, #8
    5392:	189b      	adds	r3, r3, r2
    5394:	599c      	ldr	r4, [r3, r6]
    5396:	4823      	ldr	r0, [pc, #140]	; (5424 <Trio_Init_GPS_UART+0x140>)
    5398:	0021      	movs	r1, r4
    539a:	f7fe fe2b 	bl	3ff4 <Chip_UART_SetBaud>
    539e:	683b      	ldr	r3, [r7, #0]
    53a0:	4a21      	ldr	r2, [pc, #132]	; (5428 <Trio_Init_GPS_UART+0x144>)
    53a2:	4928      	ldr	r1, [pc, #160]	; (5444 <Trio_Init_GPS_UART+0x160>)
    53a4:	4013      	ands	r3, r2
    53a6:	9a00      	ldr	r2, [sp, #0]
    53a8:	2096      	movs	r0, #150	; 0x96
    53aa:	4313      	orrs	r3, r2
    53ac:	603b      	str	r3, [r7, #0]
    53ae:	687b      	ldr	r3, [r7, #4]
    53b0:	4a25      	ldr	r2, [pc, #148]	; (5448 <Trio_Init_GPS_UART+0x164>)
    53b2:	0040      	lsls	r0, r0, #1
    53b4:	4013      	ands	r3, r2
    53b6:	22c1      	movs	r2, #193	; 0xc1
    53b8:	607b      	str	r3, [r7, #4]
    53ba:	9b00      	ldr	r3, [sp, #0]
    53bc:	0092      	lsls	r2, r2, #2
    53be:	60fb      	str	r3, [r7, #12]
    53c0:	4b23      	ldr	r3, [pc, #140]	; (5450 <Trio_Init_GPS_UART+0x16c>)
    53c2:	3604      	adds	r6, #4
    53c4:	589b      	ldr	r3, [r3, r2]
    53c6:	400b      	ands	r3, r1
    53c8:	2180      	movs	r1, #128	; 0x80
    53ca:	01c9      	lsls	r1, r1, #7
    53cc:	430b      	orrs	r3, r1
    53ce:	4920      	ldr	r1, [pc, #128]	; (5450 <Trio_Init_GPS_UART+0x16c>)
    53d0:	508b      	str	r3, [r1, r2]
    53d2:	2320      	movs	r3, #32
    53d4:	600b      	str	r3, [r1, #0]
    53d6:	491f      	ldr	r1, [pc, #124]	; (5454 <Trio_Init_GPS_UART+0x170>)
    53d8:	f7fd fc78 	bl	2ccc <Delay>
    53dc:	9b01      	ldr	r3, [sp, #4]
    53de:	781d      	ldrb	r5, [r3, #0]
    53e0:	2d00      	cmp	r5, #0
    53e2:	d013      	beq.n	540c <Trio_Init_GPS_UART+0x128>
    53e4:	4b1c      	ldr	r3, [pc, #112]	; (5458 <Trio_Init_GPS_UART+0x174>)
    53e6:	33f4      	adds	r3, #244	; 0xf4
    53e8:	601c      	str	r4, [r3, #0]
    53ea:	f000 fb89 	bl	5b00 <Update_Settings>
    53ee:	481b      	ldr	r0, [pc, #108]	; (545c <Trio_Init_GPS_UART+0x178>)
    53f0:	f7fe fe5c 	bl	40ac <PRINT_K>
    53f4:	220a      	movs	r2, #10
    53f6:	a903      	add	r1, sp, #12
    53f8:	0020      	movs	r0, r4
    53fa:	f000 ffd7 	bl	63ac <itoa>
    53fe:	a803      	add	r0, sp, #12
    5400:	f7fe fe54 	bl	40ac <PRINT_K>
    5404:	4816      	ldr	r0, [pc, #88]	; (5460 <Trio_Init_GPS_UART+0x17c>)
    5406:	f7fe fe51 	bl	40ac <PRINT_K>
    540a:	e006      	b.n	541a <Trio_Init_GPS_UART+0x136>
    540c:	2e10      	cmp	r6, #16
    540e:	d1be      	bne.n	538e <Trio_Init_GPS_UART+0xaa>
    5410:	21fa      	movs	r1, #250	; 0xfa
    5412:	4814      	ldr	r0, [pc, #80]	; (5464 <Trio_Init_GPS_UART+0x180>)
    5414:	0049      	lsls	r1, r1, #1
    5416:	f7fe fee3 	bl	41e0 <Set_Timer>
    541a:	0028      	movs	r0, r5
    541c:	b04b      	add	sp, #300	; 0x12c
    541e:	bdf0      	pop	{r4, r5, r6, r7, pc}
    5420:	00005468 	.word	0x00005468
    5424:	4006c000 	.word	0x4006c000
    5428:	00fcda7c 	.word	0x00fcda7c
    542c:	100004f8 	.word	0x100004f8
    5430:	00fcda01 	.word	0x00fcda01
    5434:	00400004 	.word	0x00400004
    5438:	10001054 	.word	0x10001054
    543c:	10000b90 	.word	0x10000b90
    5440:	10001254 	.word	0x10001254
    5444:	ffff00ff 	.word	0xffff00ff
    5448:	00010306 	.word	0x00010306
    544c:	00005478 	.word	0x00005478
    5450:	e000e100 	.word	0xe000e100
    5454:	000022dd 	.word	0x000022dd
    5458:	10000738 	.word	0x10000738
    545c:	00005493 	.word	0x00005493
    5460:	00004ded 	.word	0x00004ded
    5464:	100008d0 	.word	0x100008d0
    5468:	000012c0 	.word	0x000012c0
    546c:	00002580 	.word	0x00002580
    5470:	00004b00 	.word	0x00004b00
    5474:	0001c200 	.word	0x0001c200
    5478:	696c6156 	.word	0x696c6156
    547c:	70672064 	.word	0x70672064
    5480:	61622073 	.word	0x61622073
    5484:	72206475 	.word	0x72206475
    5488:	20657461 	.word	0x20657461
    548c:	6e756f66 	.word	0x6e756f66
    5490:	44000a64 	.word	0x44000a64
    5494:	63657465 	.word	0x63657465
    5498:	20646574 	.word	0x20646574
    549c:	64756162 	.word	0x64756162
    54a0:	74617220 	.word	0x74617220
    54a4:	ff003a65 	.word	0xff003a65

000054a8 <SPIFlash_MasterDone.lto_priv.106>:
    54a8:	2201      	movs	r2, #1
    54aa:	4b01      	ldr	r3, [pc, #4]	; (54b0 <SPIFlash_MasterDone.lto_priv.106+0x8>)
    54ac:	701a      	strb	r2, [r3, #0]
    54ae:	4770      	bx	lr
    54b0:	10000544 	.word	0x10000544

000054b4 <SPIFlash_MasterAssert.lto_priv.102>:
    54b4:	4770      	bx	lr

000054b6 <SPIFlash_MasterDeAssert.lto_priv.105>:
    54b6:	4770      	bx	lr

000054b8 <SPIFlash_MasterRecvData.lto_priv.104>:
    54b8:	4770      	bx	lr

000054ba <SPIFlash_MasterSendData.lto_priv.103>:
    54ba:	4770      	bx	lr

000054bc <update_firmware>:
    54bc:	b530      	push	{r4, r5, lr}
    54be:	0004      	movs	r4, r0
    54c0:	b0a3      	sub	sp, #140	; 0x8c
    54c2:	480e      	ldr	r0, [pc, #56]	; (54fc <update_firmware+0x40>)
    54c4:	f7fe fdf2 	bl	40ac <PRINT_K>
    54c8:	4d0d      	ldr	r5, [pc, #52]	; (5500 <update_firmware+0x44>)
    54ca:	a902      	add	r1, sp, #8
    54cc:	002a      	movs	r2, r5
    54ce:	0020      	movs	r0, r4
    54d0:	f7fd fe02 	bl	30d8 <Get_ConfigurationParameter>
    54d4:	002a      	movs	r2, r5
    54d6:	4669      	mov	r1, sp
    54d8:	0020      	movs	r0, r4
    54da:	f7fd fdfd 	bl	30d8 <Get_ConfigurationParameter>
    54de:	a902      	add	r1, sp, #8
    54e0:	4808      	ldr	r0, [pc, #32]	; (5504 <update_firmware+0x48>)
    54e2:	f001 f969 	bl	67b8 <strcpy>
    54e6:	4669      	mov	r1, sp
    54e8:	4807      	ldr	r0, [pc, #28]	; (5508 <update_firmware+0x4c>)
    54ea:	f001 f965 	bl	67b8 <strcpy>
    54ee:	2201      	movs	r2, #1
    54f0:	2002      	movs	r0, #2
    54f2:	4b06      	ldr	r3, [pc, #24]	; (550c <update_firmware+0x50>)
    54f4:	701a      	strb	r2, [r3, #0]
    54f6:	b023      	add	sp, #140	; 0x8c
    54f8:	bd30      	pop	{r4, r5, pc}
    54fa:	46c0      	nop			; (mov r8, r8)
    54fc:	00005e28 	.word	0x00005e28
    5500:	000020b6 	.word	0x000020b6
    5504:	10000545 	.word	0x10000545
    5508:	100005c5 	.word	0x100005c5
    550c:	100008dc 	.word	0x100008dc

00005510 <location_request>:
    5510:	b510      	push	{r4, lr}
    5512:	000c      	movs	r4, r1
    5514:	4805      	ldr	r0, [pc, #20]	; (552c <location_request+0x1c>)
    5516:	f7fe fdc9 	bl	40ac <PRINT_K>
    551a:	2101      	movs	r1, #1
    551c:	0020      	movs	r0, r4
    551e:	f7fd f8ee 	bl	26fe <Trio_PrepareTMessage>
    5522:	2300      	movs	r3, #0
    5524:	34ff      	adds	r4, #255	; 0xff
    5526:	2001      	movs	r0, #1
    5528:	7063      	strb	r3, [r4, #1]
    552a:	bd10      	pop	{r4, pc}
    552c:	00005e36 	.word	0x00005e36

00005530 <request_device_status>:
    5530:	b530      	push	{r4, r5, lr}
    5532:	0005      	movs	r5, r0
    5534:	b091      	sub	sp, #68	; 0x44
    5536:	a802      	add	r0, sp, #8
    5538:	000c      	movs	r4, r1
    553a:	f000 fd2f 	bl	5f9c <Get_GsmInfo>
    553e:	0028      	movs	r0, r5
    5540:	4a0a      	ldr	r2, [pc, #40]	; (556c <request_device_status+0x3c>)
    5542:	a901      	add	r1, sp, #4
    5544:	f7fd fdc8 	bl	30d8 <Get_ConfigurationParameter>
    5548:	4909      	ldr	r1, [pc, #36]	; (5570 <request_device_status+0x40>)
    554a:	a801      	add	r0, sp, #4
    554c:	f001 f912 	bl	6774 <strcmp>
    5550:	2500      	movs	r5, #0
    5552:	42a8      	cmp	r0, r5
    5554:	d107      	bne.n	5566 <request_device_status+0x36>
    5556:	2116      	movs	r1, #22
    5558:	0020      	movs	r0, r4
    555a:	4469      	add	r1, sp
    555c:	34ff      	adds	r4, #255	; 0xff
    555e:	f7fd f9f5 	bl	294c <Trio_PreparePingMessage>
    5562:	7065      	strb	r5, [r4, #1]
    5564:	3501      	adds	r5, #1
    5566:	0028      	movs	r0, r5
    5568:	b011      	add	sp, #68	; 0x44
    556a:	bd30      	pop	{r4, r5, pc}
    556c:	000020b6 	.word	0x000020b6
    5570:	00002219 	.word	0x00002219

00005574 <SST25_WriteEnable>:
    5574:	b507      	push	{r0, r1, r2, lr}
    5576:	2206      	movs	r2, #6
    5578:	4b05      	ldr	r3, [pc, #20]	; (5590 <SST25_WriteEnable+0x1c>)
    557a:	a901      	add	r1, sp, #4
    557c:	701a      	strb	r2, [r3, #0]
    557e:	3a05      	subs	r2, #5
    5580:	0010      	movs	r0, r2
    5582:	f7fe fbed 	bl	3d60 <send_spi_data.constprop.50>
    5586:	2002      	movs	r0, #2
    5588:	f7fe ff78 	bl	447c <wait_spi_busy_timeout.lto_priv.72>
    558c:	bd07      	pop	{r0, r1, r2, pc}
    558e:	46c0      	nop			; (mov r8, r8)
    5590:	10000534 	.word	0x10000534

00005594 <SST25_Jedec_ID_Read>:
    5594:	229f      	movs	r2, #159	; 0x9f
    5596:	b513      	push	{r0, r1, r4, lr}
    5598:	4b0a      	ldr	r3, [pc, #40]	; (55c4 <SST25_Jedec_ID_Read+0x30>)
    559a:	ac01      	add	r4, sp, #4
    559c:	701a      	strb	r2, [r3, #0]
    559e:	3a9b      	subs	r2, #155	; 0x9b
    55a0:	0010      	movs	r0, r2
    55a2:	0021      	movs	r1, r4
    55a4:	f7fe fbdc 	bl	3d60 <send_spi_data.constprop.50>
    55a8:	7863      	ldrb	r3, [r4, #1]
    55aa:	2000      	movs	r0, #0
    55ac:	2b01      	cmp	r3, #1
    55ae:	d107      	bne.n	55c0 <SST25_Jedec_ID_Read+0x2c>
    55b0:	78a3      	ldrb	r3, [r4, #2]
    55b2:	2b40      	cmp	r3, #64	; 0x40
    55b4:	d104      	bne.n	55c0 <SST25_Jedec_ID_Read+0x2c>
    55b6:	78e0      	ldrb	r0, [r4, #3]
    55b8:	3814      	subs	r0, #20
    55ba:	4243      	negs	r3, r0
    55bc:	4158      	adcs	r0, r3
    55be:	b2c0      	uxtb	r0, r0
    55c0:	bd16      	pop	{r1, r2, r4, pc}
    55c2:	46c0      	nop			; (mov r8, r8)
    55c4:	10000534 	.word	0x10000534

000055c8 <SPI0_IRQHandler>:
    55c8:	4b04      	ldr	r3, [pc, #16]	; (55dc <SPI0_IRQHandler+0x14>)
    55ca:	b510      	push	{r4, lr}
    55cc:	6a9a      	ldr	r2, [r3, #40]	; 0x28
    55ce:	233d      	movs	r3, #61	; 0x3d
    55d0:	421a      	tst	r2, r3
    55d2:	d002      	beq.n	55da <SPI0_IRQHandler+0x12>
    55d4:	4802      	ldr	r0, [pc, #8]	; (55e0 <SPI0_IRQHandler+0x18>)
    55d6:	f7fe fb46 	bl	3c66 <Chip_SPIM_XferHandler.constprop.55>
    55da:	bd10      	pop	{r4, pc}
    55dc:	40058000 	.word	0x40058000
    55e0:	10000508 	.word	0x10000508

000055e4 <write_default_settings>:
    55e4:	b537      	push	{r0, r1, r2, r4, r5, lr}
    55e6:	2400      	movs	r4, #0
    55e8:	4819      	ldr	r0, [pc, #100]	; (5650 <write_default_settings+0x6c>)
    55ea:	9401      	str	r4, [sp, #4]
    55ec:	f7fe fd5e 	bl	40ac <PRINT_K>
    55f0:	0020      	movs	r0, r4
    55f2:	f7ff f9ff 	bl	49f4 <SST25_WriteSR>
    55f6:	22ed      	movs	r2, #237	; 0xed
    55f8:	2104      	movs	r1, #4
    55fa:	0312      	lsls	r2, r2, #12
    55fc:	a801      	add	r0, sp, #4
    55fe:	f7ff f9b9 	bl	4974 <SST25_WriteArray>
    5602:	22eb      	movs	r2, #235	; 0xeb
    5604:	2104      	movs	r1, #4
    5606:	0312      	lsls	r2, r2, #12
    5608:	a801      	add	r0, sp, #4
    560a:	f7ff f9b3 	bl	4974 <SST25_WriteArray>
    560e:	22ec      	movs	r2, #236	; 0xec
    5610:	2104      	movs	r1, #4
    5612:	0312      	lsls	r2, r2, #12
    5614:	a801      	add	r0, sp, #4
    5616:	f7ff f9ad 	bl	4974 <SST25_WriteArray>
    561a:	4d0e      	ldr	r5, [pc, #56]	; (5654 <write_default_settings+0x70>)
    561c:	22fc      	movs	r2, #252	; 0xfc
    561e:	490e      	ldr	r1, [pc, #56]	; (5658 <write_default_settings+0x74>)
    5620:	0028      	movs	r0, r5
    5622:	f000 fd09 	bl	6038 <memcpy>
    5626:	0023      	movs	r3, r4
    5628:	0022      	movs	r2, r4
    562a:	0028      	movs	r0, r5
    562c:	5cc1      	ldrb	r1, [r0, r3]
    562e:	3301      	adds	r3, #1
    5630:	1852      	adds	r2, r2, r1
    5632:	2bf8      	cmp	r3, #248	; 0xf8
    5634:	d1fa      	bne.n	562c <write_default_settings+0x48>
    5636:	0003      	movs	r3, r0
    5638:	33f8      	adds	r3, #248	; 0xf8
    563a:	601a      	str	r2, [r3, #0]
    563c:	22ee      	movs	r2, #238	; 0xee
    563e:	21fc      	movs	r1, #252	; 0xfc
    5640:	0312      	lsls	r2, r2, #12
    5642:	f7ff f997 	bl	4974 <SST25_WriteArray>
    5646:	2008      	movs	r0, #8
    5648:	f7ff f9d4 	bl	49f4 <SST25_WriteSR>
    564c:	bd37      	pop	{r0, r1, r2, r4, r5, pc}
    564e:	46c0      	nop			; (mov r8, r8)
    5650:	00005e48 	.word	0x00005e48
    5654:	10000738 	.word	0x10000738
    5658:	00005ca4 	.word	0x00005ca4

0000565c <ProcessReceivedData>:
    565c:	b5f0      	push	{r4, r5, r6, r7, lr}
    565e:	000e      	movs	r6, r1
    5660:	b085      	sub	sp, #20
    5662:	493a      	ldr	r1, [pc, #232]	; (574c <ProcessReceivedData+0xf0>)
    5664:	0005      	movs	r5, r0
    5666:	0017      	movs	r7, r2
    5668:	f001 f91e 	bl	68a8 <strstr>
    566c:	1e04      	subs	r4, r0, #0
    566e:	d04b      	beq.n	5708 <ProcessReceivedData+0xac>
    5670:	210d      	movs	r1, #13
    5672:	f001 f874 	bl	675e <strchr>
    5676:	2800      	cmp	r0, #0
    5678:	d001      	beq.n	567e <ProcessReceivedData+0x22>
    567a:	2300      	movs	r3, #0
    567c:	7003      	strb	r3, [r0, #0]
    567e:	213a      	movs	r1, #58	; 0x3a
    5680:	0020      	movs	r0, r4
    5682:	f001 f86c 	bl	675e <strchr>
    5686:	4d32      	ldr	r5, [pc, #200]	; (5750 <ProcessReceivedData+0xf4>)
    5688:	2800      	cmp	r0, #0
    568a:	d016      	beq.n	56ba <ProcessReceivedData+0x5e>
    568c:	4931      	ldr	r1, [pc, #196]	; (5754 <ProcessReceivedData+0xf8>)
    568e:	f001 f91d 	bl	68cc <strtok>
    5692:	220c      	movs	r2, #12
    5694:	1c41      	adds	r1, r0, #1
    5696:	0004      	movs	r4, r0
    5698:	4668      	mov	r0, sp
    569a:	f000 fccd 	bl	6038 <memcpy>
    569e:	0029      	movs	r1, r5
    56a0:	4668      	mov	r0, sp
    56a2:	f001 f867 	bl	6774 <strcmp>
    56a6:	2800      	cmp	r0, #0
    56a8:	d047      	beq.n	573a <ProcessReceivedData+0xde>
    56aa:	492b      	ldr	r1, [pc, #172]	; (5758 <ProcessReceivedData+0xfc>)
    56ac:	4668      	mov	r0, sp
    56ae:	f001 f861 	bl	6774 <strcmp>
    56b2:	2800      	cmp	r0, #0
    56b4:	d041      	beq.n	573a <ProcessReceivedData+0xde>
    56b6:	2000      	movs	r0, #0
    56b8:	e045      	b.n	5746 <ProcessReceivedData+0xea>
    56ba:	0028      	movs	r0, r5
    56bc:	f001 f89e 	bl	67fc <strlen>
    56c0:	2800      	cmp	r0, #0
    56c2:	d1f8      	bne.n	56b6 <ProcessReceivedData+0x5a>
    56c4:	3405      	adds	r4, #5
    56c6:	4923      	ldr	r1, [pc, #140]	; (5754 <ProcessReceivedData+0xf8>)
    56c8:	0020      	movs	r0, r4
    56ca:	f001 f8ff 	bl	68cc <strtok>
    56ce:	1e05      	subs	r5, r0, #0
    56d0:	d003      	beq.n	56da <ProcessReceivedData+0x7e>
    56d2:	0020      	movs	r0, r4
    56d4:	f000 ff6e 	bl	65b4 <atoi>
    56d8:	b285      	uxth	r5, r0
    56da:	2300      	movs	r3, #0
    56dc:	4a1f      	ldr	r2, [pc, #124]	; (575c <ProcessReceivedData+0x100>)
    56de:	0010      	movs	r0, r2
    56e0:	00d9      	lsls	r1, r3, #3
    56e2:	307c      	adds	r0, #124	; 0x7c
    56e4:	5a08      	ldrh	r0, [r1, r0]
    56e6:	42a8      	cmp	r0, r5
    56e8:	d10a      	bne.n	5700 <ProcessReceivedData+0xa4>
    56ea:	3204      	adds	r2, #4
    56ec:	1852      	adds	r2, r2, r1
    56ee:	6fd3      	ldr	r3, [r2, #124]	; 0x7c
    56f0:	0031      	movs	r1, r6
    56f2:	0020      	movs	r0, r4
    56f4:	4798      	blx	r3
    56f6:	2d08      	cmp	r5, #8
    56f8:	d125      	bne.n	5746 <ProcessReceivedData+0xea>
    56fa:	4b19      	ldr	r3, [pc, #100]	; (5760 <ProcessReceivedData+0x104>)
    56fc:	701f      	strb	r7, [r3, #0]
    56fe:	e022      	b.n	5746 <ProcessReceivedData+0xea>
    5700:	3301      	adds	r3, #1
    5702:	2b11      	cmp	r3, #17
    5704:	d1eb      	bne.n	56de <ProcessReceivedData+0x82>
    5706:	e7d6      	b.n	56b6 <ProcessReceivedData+0x5a>
    5708:	4916      	ldr	r1, [pc, #88]	; (5764 <ProcessReceivedData+0x108>)
    570a:	0028      	movs	r0, r5
    570c:	f001 f8cc 	bl	68a8 <strstr>
    5710:	2800      	cmp	r0, #0
    5712:	d0d0      	beq.n	56b6 <ProcessReceivedData+0x5a>
    5714:	002c      	movs	r4, r5
    5716:	340a      	adds	r4, #10
    5718:	490e      	ldr	r1, [pc, #56]	; (5754 <ProcessReceivedData+0xf8>)
    571a:	0020      	movs	r0, r4
    571c:	f001 f8d6 	bl	68cc <strtok>
    5720:	2800      	cmp	r0, #0
    5722:	d005      	beq.n	5730 <ProcessReceivedData+0xd4>
    5724:	0020      	movs	r0, r4
    5726:	f000 ff45 	bl	65b4 <atoi>
    572a:	b2c0      	uxtb	r0, r0
    572c:	2800      	cmp	r0, #0
    572e:	d1c2      	bne.n	56b6 <ProcessReceivedData+0x5a>
    5730:	0031      	movs	r1, r6
    5732:	0020      	movs	r0, r4
    5734:	f7fd fc5a 	bl	2fec <get_healt_status>
    5738:	e005      	b.n	5746 <ProcessReceivedData+0xea>
    573a:	4668      	mov	r0, sp
    573c:	f001 f85e 	bl	67fc <strlen>
    5740:	3002      	adds	r0, #2
    5742:	1824      	adds	r4, r4, r0
    5744:	e7bf      	b.n	56c6 <ProcessReceivedData+0x6a>
    5746:	b005      	add	sp, #20
    5748:	bdf0      	pop	{r4, r5, r6, r7, pc}
    574a:	46c0      	nop			; (mov r8, r8)
    574c:	00002fcf 	.word	0x00002fcf
    5750:	100007fe 	.word	0x100007fe
    5754:	000020b6 	.word	0x000020b6
    5758:	00005e5b 	.word	0x00005e5b
    575c:	00005d24 	.word	0x00005d24
    5760:	1000067c 	.word	0x1000067c
    5764:	00005e61 	.word	0x00005e61

00005768 <UpdateKmCounter>:
    5768:	b51f      	push	{r0, r1, r2, r3, r4, lr}
    576a:	24ed      	movs	r4, #237	; 0xed
    576c:	9001      	str	r0, [sp, #4]
    576e:	0324      	lsls	r4, r4, #12
    5770:	2000      	movs	r0, #0
    5772:	f7ff f93f 	bl	49f4 <SST25_WriteSR>
    5776:	0022      	movs	r2, r4
    5778:	2104      	movs	r1, #4
    577a:	a801      	add	r0, sp, #4
    577c:	f7ff f8fa 	bl	4974 <SST25_WriteArray>
    5780:	2008      	movs	r0, #8
    5782:	f7ff f937 	bl	49f4 <SST25_WriteSR>
    5786:	aa03      	add	r2, sp, #12
    5788:	2104      	movs	r1, #4
    578a:	0020      	movs	r0, r4
    578c:	f7ff fa8c 	bl	4ca8 <SST25_Read>
    5790:	9b03      	ldr	r3, [sp, #12]
    5792:	9a01      	ldr	r2, [sp, #4]
    5794:	1a98      	subs	r0, r3, r2
    5796:	4243      	negs	r3, r0
    5798:	4158      	adcs	r0, r3
    579a:	b2c0      	uxtb	r0, r0
    579c:	b004      	add	sp, #16
    579e:	bd10      	pop	{r4, pc}

000057a0 <Get_UserSettings>:
    57a0:	b510      	push	{r4, lr}
    57a2:	22fc      	movs	r2, #252	; 0xfc
    57a4:	4901      	ldr	r1, [pc, #4]	; (57ac <Get_UserSettings+0xc>)
    57a6:	f000 fc47 	bl	6038 <memcpy>
    57aa:	bd10      	pop	{r4, pc}
    57ac:	10000738 	.word	0x10000738

000057b0 <AddStringToEchoPacket>:
    57b0:	b570      	push	{r4, r5, r6, lr}
    57b2:	000d      	movs	r5, r1
    57b4:	0004      	movs	r4, r0
    57b6:	4904      	ldr	r1, [pc, #16]	; (57c8 <AddStringToEchoPacket+0x18>)
    57b8:	f000 ffc4 	bl	6744 <strcat>
    57bc:	0029      	movs	r1, r5
    57be:	0020      	movs	r0, r4
    57c0:	f000 ffc0 	bl	6744 <strcat>
    57c4:	bd70      	pop	{r4, r5, r6, pc}
    57c6:	46c0      	nop			; (mov r8, r8)
    57c8:	000020b6 	.word	0x000020b6

000057cc <CloseEchoPacket>:
    57cc:	b510      	push	{r4, lr}
    57ce:	4902      	ldr	r1, [pc, #8]	; (57d8 <CloseEchoPacket+0xc>)
    57d0:	f000 ffb8 	bl	6744 <strcat>
    57d4:	bd10      	pop	{r4, pc}
    57d6:	46c0      	nop			; (mov r8, r8)
    57d8:	00003abe 	.word	0x00003abe

000057dc <BeginEchoPacket>:
    57dc:	b530      	push	{r4, r5, lr}
    57de:	0004      	movs	r4, r0
    57e0:	b091      	sub	sp, #68	; 0x44
    57e2:	a802      	add	r0, sp, #8
    57e4:	000d      	movs	r5, r1
    57e6:	f000 fbd9 	bl	5f9c <Get_GsmInfo>
    57ea:	490c      	ldr	r1, [pc, #48]	; (581c <BeginEchoPacket+0x40>)
    57ec:	0020      	movs	r0, r4
    57ee:	f000 ffe3 	bl	67b8 <strcpy>
    57f2:	2116      	movs	r1, #22
    57f4:	0020      	movs	r0, r4
    57f6:	4469      	add	r1, sp
    57f8:	f000 ffa4 	bl	6744 <strcat>
    57fc:	4908      	ldr	r1, [pc, #32]	; (5820 <BeginEchoPacket+0x44>)
    57fe:	0020      	movs	r0, r4
    5800:	f000 ffa0 	bl	6744 <strcat>
    5804:	220a      	movs	r2, #10
    5806:	a901      	add	r1, sp, #4
    5808:	0028      	movs	r0, r5
    580a:	f000 fdcf 	bl	63ac <itoa>
    580e:	a901      	add	r1, sp, #4
    5810:	0020      	movs	r0, r4
    5812:	f000 ff97 	bl	6744 <strcat>
    5816:	b011      	add	sp, #68	; 0x44
    5818:	bd30      	pop	{r4, r5, pc}
    581a:	46c0      	nop			; (mov r8, r8)
    581c:	00005e6b 	.word	0x00005e6b
    5820:	000020b6 	.word	0x000020b6

00005824 <PrepareBlockageEchoPacket>:
    5824:	b510      	push	{r4, lr}
    5826:	0004      	movs	r4, r0
    5828:	b086      	sub	sp, #24
    582a:	2212      	movs	r2, #18
    582c:	490c      	ldr	r1, [pc, #48]	; (5860 <PrepareBlockageEchoPacket+0x3c>)
    582e:	a801      	add	r0, sp, #4
    5830:	f000 fc02 	bl	6038 <memcpy>
    5834:	0020      	movs	r0, r4
    5836:	2108      	movs	r1, #8
    5838:	f7ff ffd0 	bl	57dc <BeginEchoPacket>
    583c:	0020      	movs	r0, r4
    583e:	4909      	ldr	r1, [pc, #36]	; (5864 <PrepareBlockageEchoPacket+0x40>)
    5840:	f7ff ffb6 	bl	57b0 <AddStringToEchoPacket>
    5844:	466b      	mov	r3, sp
    5846:	0020      	movs	r0, r4
    5848:	1d99      	adds	r1, r3, #6
    584a:	f7ff ffb1 	bl	57b0 <AddStringToEchoPacket>
    584e:	0020      	movs	r0, r4
    5850:	f7ff ffbc 	bl	57cc <CloseEchoPacket>
    5854:	0020      	movs	r0, r4
    5856:	f000 ffd1 	bl	67fc <strlen>
    585a:	b006      	add	sp, #24
    585c:	bd10      	pop	{r4, pc}
    585e:	46c0      	nop			; (mov r8, r8)
    5860:	1000067c 	.word	0x1000067c
    5864:	00002232 	.word	0x00002232

00005868 <erase_external_flash>:
    5868:	b530      	push	{r4, r5, lr}
    586a:	0005      	movs	r5, r0
    586c:	b085      	sub	sp, #20
    586e:	2000      	movs	r0, #0
    5870:	000c      	movs	r4, r1
    5872:	f7ff f8bf 	bl	49f4 <SST25_WriteSR>
    5876:	f7ff fe7d 	bl	5574 <SST25_WriteEnable>
    587a:	4813      	ldr	r0, [pc, #76]	; (58c8 <erase_external_flash+0x60>)
    587c:	f7fe fc16 	bl	40ac <PRINT_K>
    5880:	22c7      	movs	r2, #199	; 0xc7
    5882:	4b12      	ldr	r3, [pc, #72]	; (58cc <erase_external_flash+0x64>)
    5884:	4669      	mov	r1, sp
    5886:	701a      	strb	r2, [r3, #0]
    5888:	3ac6      	subs	r2, #198	; 0xc6
    588a:	0010      	movs	r0, r2
    588c:	f7fe fa68 	bl	3d60 <send_spi_data.constprop.50>
    5890:	480f      	ldr	r0, [pc, #60]	; (58d0 <erase_external_flash+0x68>)
    5892:	f7fe fdf3 	bl	447c <wait_spi_busy_timeout.lto_priv.72>
    5896:	480f      	ldr	r0, [pc, #60]	; (58d4 <erase_external_flash+0x6c>)
    5898:	f7fe fc08 	bl	40ac <PRINT_K>
    589c:	4a0e      	ldr	r2, [pc, #56]	; (58d8 <erase_external_flash+0x70>)
    589e:	4669      	mov	r1, sp
    58a0:	0028      	movs	r0, r5
    58a2:	f7fd fc19 	bl	30d8 <Get_ConfigurationParameter>
    58a6:	0020      	movs	r0, r4
    58a8:	490c      	ldr	r1, [pc, #48]	; (58dc <erase_external_flash+0x74>)
    58aa:	f7ff ff97 	bl	57dc <BeginEchoPacket>
    58ae:	4669      	mov	r1, sp
    58b0:	0020      	movs	r0, r4
    58b2:	f7ff ff7d 	bl	57b0 <AddStringToEchoPacket>
    58b6:	0020      	movs	r0, r4
    58b8:	f7ff ff88 	bl	57cc <CloseEchoPacket>
    58bc:	2001      	movs	r0, #1
    58be:	34ff      	adds	r4, #255	; 0xff
    58c0:	7060      	strb	r0, [r4, #1]
    58c2:	b005      	add	sp, #20
    58c4:	bd30      	pop	{r4, r5, pc}
    58c6:	46c0      	nop			; (mov r8, r8)
    58c8:	00005e71 	.word	0x00005e71
    58cc:	10000534 	.word	0x10000534
    58d0:	000005dc 	.word	0x000005dc
    58d4:	00005e7d 	.word	0x00005e7d
    58d8:	00003abe 	.word	0x00003abe
    58dc:	000003e9 	.word	0x000003e9

000058e0 <send_sms_command>:
    58e0:	b570      	push	{r4, r5, r6, lr}
    58e2:	0004      	movs	r4, r0
    58e4:	000d      	movs	r5, r1
    58e6:	4e1a      	ldr	r6, [pc, #104]	; (5950 <send_sms_command+0x70>)
    58e8:	b0b2      	sub	sp, #200	; 0xc8
    58ea:	0032      	movs	r2, r6
    58ec:	a904      	add	r1, sp, #16
    58ee:	f7fd fbf3 	bl	30d8 <Get_ConfigurationParameter>
    58f2:	0020      	movs	r0, r4
    58f4:	0032      	movs	r2, r6
    58f6:	a90a      	add	r1, sp, #40	; 0x28
    58f8:	f7fd fbee 	bl	30d8 <Get_ConfigurationParameter>
    58fc:	4a15      	ldr	r2, [pc, #84]	; (5954 <send_sms_command+0x74>)
    58fe:	4669      	mov	r1, sp
    5900:	0020      	movs	r0, r4
    5902:	f7fd fbe9 	bl	30d8 <Get_ConfigurationParameter>
    5906:	002b      	movs	r3, r5
    5908:	2400      	movs	r4, #0
    590a:	33ff      	adds	r3, #255	; 0xff
    590c:	4812      	ldr	r0, [pc, #72]	; (5958 <send_sms_command+0x78>)
    590e:	705c      	strb	r4, [r3, #1]
    5910:	f7fe fbcc 	bl	40ac <PRINT_K>
    5914:	0022      	movs	r2, r4
    5916:	a90a      	add	r1, sp, #40	; 0x28
    5918:	a804      	add	r0, sp, #16
    591a:	f7fd f8cb 	bl	2ab4 <Send_SMS>
    591e:	42a0      	cmp	r0, r4
    5920:	d013      	beq.n	594a <send_sms_command+0x6a>
    5922:	210e      	movs	r1, #14
    5924:	0028      	movs	r0, r5
    5926:	f7ff ff59 	bl	57dc <BeginEchoPacket>
    592a:	a904      	add	r1, sp, #16
    592c:	0028      	movs	r0, r5
    592e:	f7ff ff3f 	bl	57b0 <AddStringToEchoPacket>
    5932:	a90a      	add	r1, sp, #40	; 0x28
    5934:	0028      	movs	r0, r5
    5936:	f7ff ff3b 	bl	57b0 <AddStringToEchoPacket>
    593a:	4669      	mov	r1, sp
    593c:	0028      	movs	r0, r5
    593e:	f7ff ff37 	bl	57b0 <AddStringToEchoPacket>
    5942:	0028      	movs	r0, r5
    5944:	f7ff ff42 	bl	57cc <CloseEchoPacket>
    5948:	3401      	adds	r4, #1
    594a:	0020      	movs	r0, r4
    594c:	b032      	add	sp, #200	; 0xc8
    594e:	bd70      	pop	{r4, r5, r6, pc}
    5950:	000020b6 	.word	0x000020b6
    5954:	00003abe 	.word	0x00003abe
    5958:	00005e86 	.word	0x00005e86

0000595c <Load_UserSettings>:
    595c:	20ee      	movs	r0, #238	; 0xee
    595e:	b570      	push	{r4, r5, r6, lr}
    5960:	4c5b      	ldr	r4, [pc, #364]	; (5ad0 <Load_UserSettings+0x174>)
    5962:	21fc      	movs	r1, #252	; 0xfc
    5964:	0022      	movs	r2, r4
    5966:	0300      	lsls	r0, r0, #12
    5968:	f7ff f99e 	bl	4ca8 <SST25_Read>
    596c:	2300      	movs	r3, #0
    596e:	001a      	movs	r2, r3
    5970:	5ce1      	ldrb	r1, [r4, r3]
    5972:	3301      	adds	r3, #1
    5974:	1852      	adds	r2, r2, r1
    5976:	2bf8      	cmp	r3, #248	; 0xf8
    5978:	d1fa      	bne.n	5970 <Load_UserSettings+0x14>
    597a:	0023      	movs	r3, r4
    597c:	33f8      	adds	r3, #248	; 0xf8
    597e:	681b      	ldr	r3, [r3, #0]
    5980:	4293      	cmp	r3, r2
    5982:	d005      	beq.n	5990 <Load_UserSettings+0x34>
    5984:	4853      	ldr	r0, [pc, #332]	; (5ad4 <Load_UserSettings+0x178>)
    5986:	f7fe fb91 	bl	40ac <PRINT_K>
    598a:	f7ff fe2b 	bl	55e4 <write_default_settings>
    598e:	e018      	b.n	59c2 <Load_UserSettings+0x66>
    5990:	4a51      	ldr	r2, [pc, #324]	; (5ad8 <Load_UserSettings+0x17c>)
    5992:	7823      	ldrb	r3, [r4, #0]
    5994:	18d3      	adds	r3, r2, r3
    5996:	2238      	movs	r2, #56	; 0x38
    5998:	3380      	adds	r3, #128	; 0x80
    599a:	7819      	ldrb	r1, [r3, #0]
    599c:	2300      	movs	r3, #0
    599e:	4211      	tst	r1, r2
    59a0:	d100      	bne.n	59a4 <Load_UserSettings+0x48>
    59a2:	e08f      	b.n	5ac4 <Load_UserSettings+0x168>
    59a4:	001a      	movs	r2, r3
    59a6:	3230      	adds	r2, #48	; 0x30
    59a8:	5ca2      	ldrb	r2, [r4, r2]
    59aa:	2a2e      	cmp	r2, #46	; 0x2e
    59ac:	d003      	beq.n	59b6 <Load_UserSettings+0x5a>
    59ae:	3301      	adds	r3, #1
    59b0:	2b80      	cmp	r3, #128	; 0x80
    59b2:	d1f7      	bne.n	59a4 <Load_UserSettings+0x48>
    59b4:	e086      	b.n	5ac4 <Load_UserSettings+0x168>
    59b6:	4849      	ldr	r0, [pc, #292]	; (5adc <Load_UserSettings+0x180>)
    59b8:	f000 fdfc 	bl	65b4 <atoi>
    59bc:	2800      	cmp	r0, #0
    59be:	d100      	bne.n	59c2 <Load_UserSettings+0x66>
    59c0:	e080      	b.n	5ac4 <Load_UserSettings+0x168>
    59c2:	0020      	movs	r0, r4
    59c4:	f7fe fba4 	bl	4110 <PRINT_LN>
    59c8:	4845      	ldr	r0, [pc, #276]	; (5ae0 <Load_UserSettings+0x184>)
    59ca:	f7fe fba1 	bl	4110 <PRINT_LN>
    59ce:	4845      	ldr	r0, [pc, #276]	; (5ae4 <Load_UserSettings+0x188>)
    59d0:	f7fe fb9e 	bl	4110 <PRINT_LN>
    59d4:	4844      	ldr	r0, [pc, #272]	; (5ae8 <Load_UserSettings+0x18c>)
    59d6:	f7fe fb9b 	bl	4110 <PRINT_LN>
    59da:	4844      	ldr	r0, [pc, #272]	; (5aec <Load_UserSettings+0x190>)
    59dc:	f7fe fb98 	bl	4110 <PRINT_LN>
    59e0:	483e      	ldr	r0, [pc, #248]	; (5adc <Load_UserSettings+0x180>)
    59e2:	f7fe fb95 	bl	4110 <PRINT_LN>
    59e6:	4842      	ldr	r0, [pc, #264]	; (5af0 <Load_UserSettings+0x194>)
    59e8:	f7fe fb92 	bl	4110 <PRINT_LN>
    59ec:	0023      	movs	r3, r4
    59ee:	33d3      	adds	r3, #211	; 0xd3
    59f0:	7818      	ldrb	r0, [r3, #0]
    59f2:	f7fe fb45 	bl	4080 <PRINT_INT>
    59f6:	4d3f      	ldr	r5, [pc, #252]	; (5af4 <Load_UserSettings+0x198>)
    59f8:	0028      	movs	r0, r5
    59fa:	f7fe fb57 	bl	40ac <PRINT_K>
    59fe:	0023      	movs	r3, r4
    5a00:	33d4      	adds	r3, #212	; 0xd4
    5a02:	7818      	ldrb	r0, [r3, #0]
    5a04:	f7fe fb3c 	bl	4080 <PRINT_INT>
    5a08:	0028      	movs	r0, r5
    5a0a:	f7fe fb4f 	bl	40ac <PRINT_K>
    5a0e:	0023      	movs	r3, r4
    5a10:	33d5      	adds	r3, #213	; 0xd5
    5a12:	7818      	ldrb	r0, [r3, #0]
    5a14:	f7fe fb34 	bl	4080 <PRINT_INT>
    5a18:	0028      	movs	r0, r5
    5a1a:	f7fe fb47 	bl	40ac <PRINT_K>
    5a1e:	0023      	movs	r3, r4
    5a20:	33d6      	adds	r3, #214	; 0xd6
    5a22:	7818      	ldrb	r0, [r3, #0]
    5a24:	f7fe fb2c 	bl	4080 <PRINT_INT>
    5a28:	0028      	movs	r0, r5
    5a2a:	f7fe fb3f 	bl	40ac <PRINT_K>
    5a2e:	0023      	movs	r3, r4
    5a30:	33e8      	adds	r3, #232	; 0xe8
    5a32:	8818      	ldrh	r0, [r3, #0]
    5a34:	f7fe fb24 	bl	4080 <PRINT_INT>
    5a38:	0028      	movs	r0, r5
    5a3a:	f7fe fb37 	bl	40ac <PRINT_K>
    5a3e:	0023      	movs	r3, r4
    5a40:	33ea      	adds	r3, #234	; 0xea
    5a42:	8818      	ldrh	r0, [r3, #0]
    5a44:	f7fe fb1c 	bl	4080 <PRINT_INT>
    5a48:	0028      	movs	r0, r5
    5a4a:	f7fe fb2f 	bl	40ac <PRINT_K>
    5a4e:	0023      	movs	r3, r4
    5a50:	33ec      	adds	r3, #236	; 0xec
    5a52:	6818      	ldr	r0, [r3, #0]
    5a54:	f7fe fb14 	bl	4080 <PRINT_INT>
    5a58:	0028      	movs	r0, r5
    5a5a:	f7fe fb27 	bl	40ac <PRINT_K>
    5a5e:	0023      	movs	r3, r4
    5a60:	33e0      	adds	r3, #224	; 0xe0
    5a62:	6818      	ldr	r0, [r3, #0]
    5a64:	f7fe fb0c 	bl	4080 <PRINT_INT>
    5a68:	0028      	movs	r0, r5
    5a6a:	f7fe fb1f 	bl	40ac <PRINT_K>
    5a6e:	0023      	movs	r3, r4
    5a70:	33e4      	adds	r3, #228	; 0xe4
    5a72:	6818      	ldr	r0, [r3, #0]
    5a74:	f7fe fb04 	bl	4080 <PRINT_INT>
    5a78:	0028      	movs	r0, r5
    5a7a:	f7fe fb17 	bl	40ac <PRINT_K>
    5a7e:	0023      	movs	r3, r4
    5a80:	33d8      	adds	r3, #216	; 0xd8
    5a82:	6818      	ldr	r0, [r3, #0]
    5a84:	f7fe fafc 	bl	4080 <PRINT_INT>
    5a88:	0028      	movs	r0, r5
    5a8a:	f7fe fb0f 	bl	40ac <PRINT_K>
    5a8e:	0023      	movs	r3, r4
    5a90:	33dc      	adds	r3, #220	; 0xdc
    5a92:	6818      	ldr	r0, [r3, #0]
    5a94:	f7fe faf4 	bl	4080 <PRINT_INT>
    5a98:	0028      	movs	r0, r5
    5a9a:	f7fe fb07 	bl	40ac <PRINT_K>
    5a9e:	0023      	movs	r3, r4
    5aa0:	33f0      	adds	r3, #240	; 0xf0
    5aa2:	6818      	ldr	r0, [r3, #0]
    5aa4:	f7fe faec 	bl	4080 <PRINT_INT>
    5aa8:	0028      	movs	r0, r5
    5aaa:	f7fe faff 	bl	40ac <PRINT_K>
    5aae:	0023      	movs	r3, r4
    5ab0:	33f4      	adds	r3, #244	; 0xf4
    5ab2:	6818      	ldr	r0, [r3, #0]
    5ab4:	34f8      	adds	r4, #248	; 0xf8
    5ab6:	f7fe fae3 	bl	4080 <PRINT_INT>
    5aba:	6821      	ldr	r1, [r4, #0]
    5abc:	480e      	ldr	r0, [pc, #56]	; (5af8 <Load_UserSettings+0x19c>)
    5abe:	f7fe fb49 	bl	4154 <Print_Val>
    5ac2:	bd70      	pop	{r4, r5, r6, pc}
    5ac4:	22fc      	movs	r2, #252	; 0xfc
    5ac6:	490d      	ldr	r1, [pc, #52]	; (5afc <Load_UserSettings+0x1a0>)
    5ac8:	0020      	movs	r0, r4
    5aca:	f000 fab5 	bl	6038 <memcpy>
    5ace:	e778      	b.n	59c2 <Load_UserSettings+0x66>
    5ad0:	10000738 	.word	0x10000738
    5ad4:	00005e92 	.word	0x00005e92
    5ad8:	000061c0 	.word	0x000061c0
    5adc:	100007e8 	.word	0x100007e8
    5ae0:	1000075c 	.word	0x1000075c
    5ae4:	10000750 	.word	0x10000750
    5ae8:	100007ee 	.word	0x100007ee
    5aec:	10000768 	.word	0x10000768
    5af0:	100007fe 	.word	0x100007fe
    5af4:	00004dec 	.word	0x00004dec
    5af8:	00005ea5 	.word	0x00005ea5
    5afc:	00005ca4 	.word	0x00005ca4

00005b00 <Update_Settings>:
    5b00:	2300      	movs	r3, #0
    5b02:	001a      	movs	r2, r3
    5b04:	b510      	push	{r4, lr}
    5b06:	4c0d      	ldr	r4, [pc, #52]	; (5b3c <Update_Settings+0x3c>)
    5b08:	5ce1      	ldrb	r1, [r4, r3]
    5b0a:	3301      	adds	r3, #1
    5b0c:	1852      	adds	r2, r2, r1
    5b0e:	2bf8      	cmp	r3, #248	; 0xf8
    5b10:	d1fa      	bne.n	5b08 <Update_Settings+0x8>
    5b12:	0023      	movs	r3, r4
    5b14:	2000      	movs	r0, #0
    5b16:	33f8      	adds	r3, #248	; 0xf8
    5b18:	601a      	str	r2, [r3, #0]
    5b1a:	f7fe ff6b 	bl	49f4 <SST25_WriteSR>
    5b1e:	22ee      	movs	r2, #238	; 0xee
    5b20:	21fc      	movs	r1, #252	; 0xfc
    5b22:	0312      	lsls	r2, r2, #12
    5b24:	0020      	movs	r0, r4
    5b26:	f7fe ff25 	bl	4974 <SST25_WriteArray>
    5b2a:	2008      	movs	r0, #8
    5b2c:	f7fe ff62 	bl	49f4 <SST25_WriteSR>
    5b30:	f7ff ff14 	bl	595c <Load_UserSettings>
    5b34:	4802      	ldr	r0, [pc, #8]	; (5b40 <Update_Settings+0x40>)
    5b36:	f7fe fab9 	bl	40ac <PRINT_K>
    5b3a:	bd10      	pop	{r4, pc}
    5b3c:	10000738 	.word	0x10000738
    5b40:	00005eb0 	.word	0x00005eb0

00005b44 <update_gps_baudrate_setting>:
    5b44:	b530      	push	{r4, r5, lr}
    5b46:	0005      	movs	r5, r0
    5b48:	b089      	sub	sp, #36	; 0x24
    5b4a:	000c      	movs	r4, r1
    5b4c:	4a16      	ldr	r2, [pc, #88]	; (5ba8 <update_gps_baudrate_setting+0x64>)
    5b4e:	4669      	mov	r1, sp
    5b50:	f7fd fac2 	bl	30d8 <Get_ConfigurationParameter>
    5b54:	4a15      	ldr	r2, [pc, #84]	; (5bac <update_gps_baudrate_setting+0x68>)
    5b56:	a904      	add	r1, sp, #16
    5b58:	0028      	movs	r0, r5
    5b5a:	f7fd fabd 	bl	30d8 <Get_ConfigurationParameter>
    5b5e:	4668      	mov	r0, sp
    5b60:	f000 fd28 	bl	65b4 <atoi>
    5b64:	4d12      	ldr	r5, [pc, #72]	; (5bb0 <update_gps_baudrate_setting+0x6c>)
    5b66:	35f4      	adds	r5, #244	; 0xf4
    5b68:	6028      	str	r0, [r5, #0]
    5b6a:	f7ff ffc9 	bl	5b00 <Update_Settings>
    5b6e:	0020      	movs	r0, r4
    5b70:	2128      	movs	r1, #40	; 0x28
    5b72:	f7ff fe33 	bl	57dc <BeginEchoPacket>
    5b76:	220a      	movs	r2, #10
    5b78:	4669      	mov	r1, sp
    5b7a:	6828      	ldr	r0, [r5, #0]
    5b7c:	f000 fc16 	bl	63ac <itoa>
    5b80:	4669      	mov	r1, sp
    5b82:	0020      	movs	r0, r4
    5b84:	f7ff fe14 	bl	57b0 <AddStringToEchoPacket>
    5b88:	a904      	add	r1, sp, #16
    5b8a:	0020      	movs	r0, r4
    5b8c:	f7ff fe10 	bl	57b0 <AddStringToEchoPacket>
    5b90:	0020      	movs	r0, r4
    5b92:	f7ff fe1b 	bl	57cc <CloseEchoPacket>
    5b96:	f7ff fba5 	bl	52e4 <Trio_Init_GPS_UART>
    5b9a:	2300      	movs	r3, #0
    5b9c:	2001      	movs	r0, #1
    5b9e:	34ff      	adds	r4, #255	; 0xff
    5ba0:	7063      	strb	r3, [r4, #1]
    5ba2:	b009      	add	sp, #36	; 0x24
    5ba4:	bd30      	pop	{r4, r5, pc}
    5ba6:	46c0      	nop			; (mov r8, r8)
    5ba8:	000020b6 	.word	0x000020b6
    5bac:	00003abe 	.word	0x00003abe
    5bb0:	10000738 	.word	0x10000738

00005bb4 <update_password>:
    5bb4:	b5f0      	push	{r4, r5, r6, r7, lr}
    5bb6:	b089      	sub	sp, #36	; 0x24
    5bb8:	4a16      	ldr	r2, [pc, #88]	; (5c14 <update_password+0x60>)
    5bba:	000c      	movs	r4, r1
    5bbc:	4669      	mov	r1, sp
    5bbe:	0007      	movs	r7, r0
    5bc0:	f7fd fa8a 	bl	30d8 <Get_ConfigurationParameter>
    5bc4:	4668      	mov	r0, sp
    5bc6:	f000 fe19 	bl	67fc <strlen>
    5bca:	2500      	movs	r5, #0
    5bcc:	280c      	cmp	r0, #12
    5bce:	d81d      	bhi.n	5c0c <update_password+0x58>
    5bd0:	4e11      	ldr	r6, [pc, #68]	; (5c18 <update_password+0x64>)
    5bd2:	4669      	mov	r1, sp
    5bd4:	0030      	movs	r0, r6
    5bd6:	f000 fdef 	bl	67b8 <strcpy>
    5bda:	4a10      	ldr	r2, [pc, #64]	; (5c1c <update_password+0x68>)
    5bdc:	a904      	add	r1, sp, #16
    5bde:	0038      	movs	r0, r7
    5be0:	f7fd fa7a 	bl	30d8 <Get_ConfigurationParameter>
    5be4:	f7ff ff8c 	bl	5b00 <Update_Settings>
    5be8:	0020      	movs	r0, r4
    5bea:	2120      	movs	r1, #32
    5bec:	f7ff fdf6 	bl	57dc <BeginEchoPacket>
    5bf0:	0020      	movs	r0, r4
    5bf2:	0031      	movs	r1, r6
    5bf4:	f7ff fddc 	bl	57b0 <AddStringToEchoPacket>
    5bf8:	0020      	movs	r0, r4
    5bfa:	a904      	add	r1, sp, #16
    5bfc:	f7ff fdd8 	bl	57b0 <AddStringToEchoPacket>
    5c00:	0020      	movs	r0, r4
    5c02:	34ff      	adds	r4, #255	; 0xff
    5c04:	f7ff fde2 	bl	57cc <CloseEchoPacket>
    5c08:	7065      	strb	r5, [r4, #1]
    5c0a:	3501      	adds	r5, #1
    5c0c:	0028      	movs	r0, r5
    5c0e:	b009      	add	sp, #36	; 0x24
    5c10:	bdf0      	pop	{r4, r5, r6, r7, pc}
    5c12:	46c0      	nop			; (mov r8, r8)
    5c14:	000020b6 	.word	0x000020b6
    5c18:	100007fe 	.word	0x100007fe
    5c1c:	00003abe 	.word	0x00003abe

00005c20 <update_apn_setting>:
    5c20:	b5f0      	push	{r4, r5, r6, r7, lr}
    5c22:	0005      	movs	r5, r0
    5c24:	000c      	movs	r4, r1
    5c26:	4e1a      	ldr	r6, [pc, #104]	; (5c90 <update_apn_setting+0x70>)
    5c28:	4f1a      	ldr	r7, [pc, #104]	; (5c94 <update_apn_setting+0x74>)
    5c2a:	b085      	sub	sp, #20
    5c2c:	0032      	movs	r2, r6
    5c2e:	0039      	movs	r1, r7
    5c30:	f7fd fa52 	bl	30d8 <Get_ConfigurationParameter>
    5c34:	0032      	movs	r2, r6
    5c36:	0028      	movs	r0, r5
    5c38:	4917      	ldr	r1, [pc, #92]	; (5c98 <update_apn_setting+0x78>)
    5c3a:	f7fd fa4d 	bl	30d8 <Get_ConfigurationParameter>
    5c3e:	0032      	movs	r2, r6
    5c40:	0028      	movs	r0, r5
    5c42:	4916      	ldr	r1, [pc, #88]	; (5c9c <update_apn_setting+0x7c>)
    5c44:	f7fd fa48 	bl	30d8 <Get_ConfigurationParameter>
    5c48:	4a15      	ldr	r2, [pc, #84]	; (5ca0 <update_apn_setting+0x80>)
    5c4a:	4669      	mov	r1, sp
    5c4c:	0028      	movs	r0, r5
    5c4e:	f7fd fa43 	bl	30d8 <Get_ConfigurationParameter>
    5c52:	f7ff ff55 	bl	5b00 <Update_Settings>
    5c56:	0020      	movs	r0, r4
    5c58:	2119      	movs	r1, #25
    5c5a:	f7ff fdbf 	bl	57dc <BeginEchoPacket>
    5c5e:	0039      	movs	r1, r7
    5c60:	0020      	movs	r0, r4
    5c62:	f7ff fda5 	bl	57b0 <AddStringToEchoPacket>
    5c66:	0020      	movs	r0, r4
    5c68:	490b      	ldr	r1, [pc, #44]	; (5c98 <update_apn_setting+0x78>)
    5c6a:	f7ff fda1 	bl	57b0 <AddStringToEchoPacket>
    5c6e:	0020      	movs	r0, r4
    5c70:	490a      	ldr	r1, [pc, #40]	; (5c9c <update_apn_setting+0x7c>)
    5c72:	f7ff fd9d 	bl	57b0 <AddStringToEchoPacket>
    5c76:	4669      	mov	r1, sp
    5c78:	0020      	movs	r0, r4
    5c7a:	f7ff fd99 	bl	57b0 <AddStringToEchoPacket>
    5c7e:	0020      	movs	r0, r4
    5c80:	f7ff fda4 	bl	57cc <CloseEchoPacket>
    5c84:	2001      	movs	r0, #1
    5c86:	34ff      	adds	r4, #255	; 0xff
    5c88:	7060      	strb	r0, [r4, #1]
    5c8a:	b005      	add	sp, #20
    5c8c:	bdf0      	pop	{r4, r5, r6, r7, pc}
    5c8e:	46c0      	nop			; (mov r8, r8)
    5c90:	000020b6 	.word	0x000020b6
    5c94:	10000738 	.word	0x10000738
    5c98:	10000750 	.word	0x10000750
    5c9c:	1000075c 	.word	0x1000075c
    5ca0:	00003abe 	.word	0x00003abe

00005ca4 <default_settings>:
    5ca4:	6f697274 69626f6d 70615f6c 0000006e     triomobil_apn...
	...
    5cbc:	756e7061 6e726573 00656d61 706e7061     apnusername.apnp
    5ccc:	77737361 0064726f 72646f62 742e6d75     assword.bodrum.t
    5cdc:	6d6f6972 6c69626f 6d6f632e 00000000     riomobil.com....
	...
    5d54:	31383036 32310000 36353433 30393837     6081..1234567890
    5d64:	44434241 54410045 00333352 00000000     ABCDE.ATR33.....
    5d74:	01000000 00000101 0000003c 00000e10     ........<.......
    5d84:	00000005 00000e10 000a0078 00000258     ........x...X...
    5d94:	0000005a ffffffff 00000000              Z...........

00005da0 <settings_info>:
    5da0:	00000001 00003575 00000004 0000347d     ....u5......}4..
    5db0:	00000005 0000340d 00000258 00003309     .....4..X....3..
    5dc0:	00000007 00003375 00000008 00003221     ....u3......!2..
    5dd0:	0000000b 00003195 0000000c 0000316d     .....1......m1..
    5de0:	0000000e 000058e1 0000000f 000030ef     .....X.......0..
    5df0:	00000013 00005531 00000017 00005511     ....1U.......U..
    5e00:	00000019 00005c21 00000020 00005bb5     ....!\.. ....[..
    5e10:	000001f7 000054bd 000003e9 00005869     .....T......iX..
    5e20:	00000028 00005b45 72617453 70552074     (...E[..Start Up
    5e30:	65746164 6f4c000a 69746163 72206e6f     date..Location r
    5e40:	65757165 000a7473 6972570a 676e6974     equest...Writing
    5e50:	66656420 746c7561 31000a73 54505237      defaults..17RPT
    5e60:	45472300 4e493b54 40004f46 3b544553     .#GET;INFO.@SET;
    5e70:	72450a00 6e697361 2e2e2e67 6e6f4400     ..Erasing....Don
    5e80:	2e2e2e65 4d53000a 6f432053 6769666e     e.....SMS Config
    5e90:	490a000a 6c61766e 53206469 69747465     ...Invalid Setti
    5ea0:	0a73676e 68430a00 736b6365 003a6d75     ngs...Checksum:.
    5eb0:	5445530a 474e4954 50552053 45544144     .SETTINGS UPDATE
    5ec0:	ff000a44                                D...

00005ec4 <Get_DataSendPeriod>:
    5ec4:	b500      	push	{lr}
    5ec6:	b0c1      	sub	sp, #260	; 0x104
    5ec8:	a801      	add	r0, sp, #4
    5eca:	f7ff fc69 	bl	57a0 <Get_UserSettings>
    5ece:	f7fe fa25 	bl	431c <Get_IgnitionPinStatus>
    5ed2:	2800      	cmp	r0, #0
    5ed4:	d005      	beq.n	5ee2 <Get_DataSendPeriod+0x1e>
    5ed6:	4b1d      	ldr	r3, [pc, #116]	; (5f4c <Get_DataSendPeriod+0x88>)
    5ed8:	2064      	movs	r0, #100	; 0x64
    5eda:	332f      	adds	r3, #47	; 0x2f
    5edc:	781b      	ldrb	r3, [r3, #0]
    5ede:	2b00      	cmp	r3, #0
    5ee0:	d00e      	beq.n	5f00 <Get_DataSendPeriod+0x3c>
    5ee2:	f7fe fa1b 	bl	431c <Get_IgnitionPinStatus>
    5ee6:	2800      	cmp	r0, #0
    5ee8:	d10e      	bne.n	5f08 <Get_DataSendPeriod+0x44>
    5eea:	4b18      	ldr	r3, [pc, #96]	; (5f4c <Get_DataSendPeriod+0x88>)
    5eec:	332f      	adds	r3, #47	; 0x2f
    5eee:	781b      	ldrb	r3, [r3, #0]
    5ef0:	2b00      	cmp	r3, #0
    5ef2:	d109      	bne.n	5f08 <Get_DataSendPeriod+0x44>
    5ef4:	f7ff f99c 	bl	5230 <IsMoving>
    5ef8:	0003      	movs	r3, r0
    5efa:	2064      	movs	r0, #100	; 0x64
    5efc:	2b00      	cmp	r3, #0
    5efe:	d001      	beq.n	5f04 <Get_DataSendPeriod+0x40>
    5f00:	9b39      	ldr	r3, [sp, #228]	; 0xe4
    5f02:	e01d      	b.n	5f40 <Get_DataSendPeriod+0x7c>
    5f04:	9b3a      	ldr	r3, [sp, #232]	; 0xe8
    5f06:	e01b      	b.n	5f40 <Get_DataSendPeriod+0x7c>
    5f08:	f7fe fa08 	bl	431c <Get_IgnitionPinStatus>
    5f0c:	2800      	cmp	r0, #0
    5f0e:	d005      	beq.n	5f1c <Get_DataSendPeriod+0x58>
    5f10:	4b0e      	ldr	r3, [pc, #56]	; (5f4c <Get_DataSendPeriod+0x88>)
    5f12:	2064      	movs	r0, #100	; 0x64
    5f14:	332f      	adds	r3, #47	; 0x2f
    5f16:	781b      	ldrb	r3, [r3, #0]
    5f18:	2b00      	cmp	r3, #0
    5f1a:	d10e      	bne.n	5f3a <Get_DataSendPeriod+0x76>
    5f1c:	f7fe f9fe 	bl	431c <Get_IgnitionPinStatus>
    5f20:	2800      	cmp	r0, #0
    5f22:	d10f      	bne.n	5f44 <Get_DataSendPeriod+0x80>
    5f24:	4b09      	ldr	r3, [pc, #36]	; (5f4c <Get_DataSendPeriod+0x88>)
    5f26:	332f      	adds	r3, #47	; 0x2f
    5f28:	781b      	ldrb	r3, [r3, #0]
    5f2a:	2b00      	cmp	r3, #0
    5f2c:	d00a      	beq.n	5f44 <Get_DataSendPeriod+0x80>
    5f2e:	f7ff f97f 	bl	5230 <IsMoving>
    5f32:	0003      	movs	r3, r0
    5f34:	2064      	movs	r0, #100	; 0x64
    5f36:	2b00      	cmp	r3, #0
    5f38:	d001      	beq.n	5f3e <Get_DataSendPeriod+0x7a>
    5f3a:	9b37      	ldr	r3, [sp, #220]	; 0xdc
    5f3c:	e000      	b.n	5f40 <Get_DataSendPeriod+0x7c>
    5f3e:	9b38      	ldr	r3, [sp, #224]	; 0xe0
    5f40:	4358      	muls	r0, r3
    5f42:	e001      	b.n	5f48 <Get_DataSendPeriod+0x84>
    5f44:	20fa      	movs	r0, #250	; 0xfa
    5f46:	0040      	lsls	r0, r0, #1
    5f48:	b041      	add	sp, #260	; 0x104
    5f4a:	bd00      	pop	{pc}
    5f4c:	10000888 	.word	0x10000888

00005f50 <Send_ATCommand>:
    5f50:	b510      	push	{r4, lr}
    5f52:	0004      	movs	r4, r0
    5f54:	0008      	movs	r0, r1
    5f56:	f7fe f8a9 	bl	40ac <PRINT_K>
    5f5a:	0020      	movs	r0, r4
    5f5c:	f7fe f8a6 	bl	40ac <PRINT_K>
    5f60:	4b0b      	ldr	r3, [pc, #44]	; (5f90 <Send_ATCommand+0x40>)
    5f62:	0020      	movs	r0, r4
    5f64:	001a      	movs	r2, r3
    5f66:	3214      	adds	r2, #20
    5f68:	601a      	str	r2, [r3, #0]
    5f6a:	2280      	movs	r2, #128	; 0x80
    5f6c:	0092      	lsls	r2, r2, #2
    5f6e:	605a      	str	r2, [r3, #4]
    5f70:	2201      	movs	r2, #1
    5f72:	609a      	str	r2, [r3, #8]
    5f74:	2200      	movs	r2, #0
    5f76:	611a      	str	r2, [r3, #16]
    5f78:	60da      	str	r2, [r3, #12]
    5f7a:	f000 fc3f 	bl	67fc <strlen>
    5f7e:	4905      	ldr	r1, [pc, #20]	; (5f94 <Send_ATCommand+0x44>)
    5f80:	0003      	movs	r3, r0
    5f82:	0022      	movs	r2, r4
    5f84:	3114      	adds	r1, #20
    5f86:	4804      	ldr	r0, [pc, #16]	; (5f98 <Send_ATCommand+0x48>)
    5f88:	f7fd ffd9 	bl	3f3e <Chip_UART_SendRB>
    5f8c:	bd10      	pop	{r4, pc}
    5f8e:	46c0      	nop			; (mov r8, r8)
    5f90:	100008e0 	.word	0x100008e0
    5f94:	10000ae0 	.word	0x10000ae0
    5f98:	40068000 	.word	0x40068000

00005f9c <Get_GsmInfo>:
    5f9c:	b510      	push	{r4, lr}
    5f9e:	2238      	movs	r2, #56	; 0x38
    5fa0:	4901      	ldr	r1, [pc, #4]	; (5fa8 <Get_GsmInfo+0xc>)
    5fa2:	f000 f849 	bl	6038 <memcpy>
    5fa6:	bd10      	pop	{r4, pc}
    5fa8:	10000888 	.word	0x10000888

00005fac <ProcessATResponse>:
    5fac:	b5f0      	push	{r4, r5, r6, r7, lr}
    5fae:	0015      	movs	r5, r2
    5fb0:	b08b      	sub	sp, #44	; 0x2c
    5fb2:	000a      	movs	r2, r1
    5fb4:	000c      	movs	r4, r1
    5fb6:	2100      	movs	r1, #0
    5fb8:	9301      	str	r3, [sp, #4]
    5fba:	0006      	movs	r6, r0
    5fbc:	f000 f840 	bl	6040 <memset>
    5fc0:	0029      	movs	r1, r5
    5fc2:	a807      	add	r0, sp, #28
    5fc4:	f7fe f90c 	bl	41e0 <Set_Timer>
    5fc8:	2500      	movs	r5, #0
    5fca:	a807      	add	r0, sp, #28
    5fcc:	f7fe f8ea 	bl	41a4 <mn_timer_expired>
    5fd0:	2800      	cmp	r0, #0
    5fd2:	d121      	bne.n	6018 <ProcessATResponse+0x6c>
    5fd4:	ab02      	add	r3, sp, #8
    5fd6:	1ddf      	adds	r7, r3, #7
    5fd8:	0039      	movs	r1, r7
    5fda:	4811      	ldr	r0, [pc, #68]	; (6020 <ProcessATResponse+0x74>)
    5fdc:	f7fd fe08 	bl	3bf0 <RingBuffer_PopMult.constprop.58>
    5fe0:	2800      	cmp	r0, #0
    5fe2:	dd0a      	ble.n	5ffa <ProcessATResponse+0x4e>
    5fe4:	210a      	movs	r1, #10
    5fe6:	a804      	add	r0, sp, #16
    5fe8:	f7fe f8fa 	bl	41e0 <Set_Timer>
    5fec:	783a      	ldrb	r2, [r7, #0]
    5fee:	1c6b      	adds	r3, r5, #1
    5ff0:	5572      	strb	r2, [r6, r5]
    5ff2:	42a3      	cmp	r3, r4
    5ff4:	d10a      	bne.n	600c <ProcessATResponse+0x60>
    5ff6:	0020      	movs	r0, r4
    5ff8:	e00f      	b.n	601a <ProcessATResponse+0x6e>
    5ffa:	a804      	add	r0, sp, #16
    5ffc:	f7fe f8d2 	bl	41a4 <mn_timer_expired>
    6000:	2800      	cmp	r0, #0
    6002:	d004      	beq.n	600e <ProcessATResponse+0x62>
    6004:	2d00      	cmp	r5, #0
    6006:	dd02      	ble.n	600e <ProcessATResponse+0x62>
    6008:	b2a8      	uxth	r0, r5
    600a:	e006      	b.n	601a <ProcessATResponse+0x6e>
    600c:	001d      	movs	r5, r3
    600e:	9b01      	ldr	r3, [sp, #4]
    6010:	2b00      	cmp	r3, #0
    6012:	d0da      	beq.n	5fca <ProcessATResponse+0x1e>
    6014:	4798      	blx	r3
    6016:	e7d8      	b.n	5fca <ProcessATResponse+0x1e>
    6018:	2000      	movs	r0, #0
    601a:	b00b      	add	sp, #44	; 0x2c
    601c:	bdf0      	pop	{r4, r5, r6, r7, pc}
    601e:	46c0      	nop			; (mov r8, r8)
    6020:	100008e0 	.word	0x100008e0

00006024 <ReloadPeriodicDataSendTimer>:
    6024:	b510      	push	{r4, lr}
    6026:	f7ff ff4d 	bl	5ec4 <Get_DataSendPeriod>
    602a:	0001      	movs	r1, r0
    602c:	4801      	ldr	r0, [pc, #4]	; (6034 <ReloadPeriodicDataSendTimer+0x10>)
    602e:	f7fe f8d7 	bl	41e0 <Set_Timer>
    6032:	bd10      	pop	{r4, pc}
    6034:	100004dc 	.word	0x100004dc

00006038 <memcpy>:
    6038:	b510      	push	{r4, lr}
    603a:	f001 fb0e 	bl	765a <__aeabi_memcpy>
    603e:	bd10      	pop	{r4, pc}

00006040 <memset>:
    6040:	b510      	push	{r4, lr}
    6042:	f001 fb20 	bl	7686 <__aeabi_lowlevel_memset>
    6046:	bd10      	pop	{r4, pc}

00006048 <__weak_main>:
    6048:	b510      	push	{r4, lr}
    604a:	f7fa fcf1 	bl	a30 <main>
    604e:	bd10      	pop	{r4, pc}

00006050 <atan2>:
    6050:	b5f7      	push	{r0, r1, r2, r4, r5, r6, r7, lr}
    6052:	0016      	movs	r6, r2
    6054:	001f      	movs	r7, r3
    6056:	0004      	movs	r4, r0
    6058:	000d      	movs	r5, r1
    605a:	2200      	movs	r2, #0
    605c:	2300      	movs	r3, #0
    605e:	0030      	movs	r0, r6
    6060:	0039      	movs	r1, r7
    6062:	f001 fa11 	bl	7488 <__aeabi_dcmpeq>
    6066:	2800      	cmp	r0, #0
    6068:	d014      	beq.n	6094 <atan2+0x44>
    606a:	2200      	movs	r2, #0
    606c:	2300      	movs	r3, #0
    606e:	0020      	movs	r0, r4
    6070:	0029      	movs	r1, r5
    6072:	f001 fa09 	bl	7488 <__aeabi_dcmpeq>
    6076:	2800      	cmp	r0, #0
    6078:	d00c      	beq.n	6094 <atan2+0x44>
    607a:	2221      	movs	r2, #33	; 0x21
    607c:	4b31      	ldr	r3, [pc, #196]	; (6144 <atan2+0xf4>)
    607e:	601a      	str	r2, [r3, #0]
    6080:	2280      	movs	r2, #128	; 0x80
    6082:	0612      	lsls	r2, r2, #24
    6084:	4694      	mov	ip, r2
    6086:	4b30      	ldr	r3, [pc, #192]	; (6148 <atan2+0xf8>)
    6088:	6818      	ldr	r0, [r3, #0]
    608a:	685b      	ldr	r3, [r3, #4]
    608c:	9300      	str	r3, [sp, #0]
    608e:	4463      	add	r3, ip
    6090:	0019      	movs	r1, r3
    6092:	e055      	b.n	6140 <atan2+0xf0>
    6094:	0030      	movs	r0, r6
    6096:	0039      	movs	r1, r7
    6098:	f000 f952 	bl	6340 <fabs>
    609c:	9000      	str	r0, [sp, #0]
    609e:	9101      	str	r1, [sp, #4]
    60a0:	0020      	movs	r0, r4
    60a2:	0029      	movs	r1, r5
    60a4:	f000 f94c 	bl	6340 <fabs>
    60a8:	0002      	movs	r2, r0
    60aa:	000b      	movs	r3, r1
    60ac:	9800      	ldr	r0, [sp, #0]
    60ae:	9901      	ldr	r1, [sp, #4]
    60b0:	f001 fa02 	bl	74b8 <__aeabi_dcmplt>
    60b4:	2800      	cmp	r0, #0
    60b6:	d018      	beq.n	60ea <atan2+0x9a>
    60b8:	0022      	movs	r2, r4
    60ba:	002b      	movs	r3, r5
    60bc:	0030      	movs	r0, r6
    60be:	0039      	movs	r1, r7
    60c0:	f000 ff12 	bl	6ee8 <__aeabi_ddiv>
    60c4:	f000 f93c 	bl	6340 <fabs>
    60c8:	4a20      	ldr	r2, [pc, #128]	; (614c <atan2+0xfc>)
    60ca:	4b21      	ldr	r3, [pc, #132]	; (6150 <atan2+0x100>)
    60cc:	f001 f9f4 	bl	74b8 <__aeabi_dcmplt>
    60d0:	2800      	cmp	r0, #0
    60d2:	d00a      	beq.n	60ea <atan2+0x9a>
    60d4:	2200      	movs	r2, #0
    60d6:	2300      	movs	r3, #0
    60d8:	0020      	movs	r0, r4
    60da:	0029      	movs	r1, r5
    60dc:	f001 f9ec 	bl	74b8 <__aeabi_dcmplt>
    60e0:	2800      	cmp	r0, #0
    60e2:	d128      	bne.n	6136 <atan2+0xe6>
    60e4:	481b      	ldr	r0, [pc, #108]	; (6154 <atan2+0x104>)
    60e6:	491c      	ldr	r1, [pc, #112]	; (6158 <atan2+0x108>)
    60e8:	e02a      	b.n	6140 <atan2+0xf0>
    60ea:	0032      	movs	r2, r6
    60ec:	003b      	movs	r3, r7
    60ee:	0020      	movs	r0, r4
    60f0:	0029      	movs	r1, r5
    60f2:	f000 fef9 	bl	6ee8 <__aeabi_ddiv>
    60f6:	f000 fd03 	bl	6b00 <atan>
    60fa:	2200      	movs	r2, #0
    60fc:	0005      	movs	r5, r0
    60fe:	000c      	movs	r4, r1
    6100:	2300      	movs	r3, #0
    6102:	0030      	movs	r0, r6
    6104:	0039      	movs	r1, r7
    6106:	f001 f9d7 	bl	74b8 <__aeabi_dcmplt>
    610a:	2800      	cmp	r0, #0
    610c:	d016      	beq.n	613c <atan2+0xec>
    610e:	2200      	movs	r2, #0
    6110:	2300      	movs	r3, #0
    6112:	0028      	movs	r0, r5
    6114:	0021      	movs	r1, r4
    6116:	f001 f9fd 	bl	7514 <__aeabi_dcmpgt>
    611a:	4a0e      	ldr	r2, [pc, #56]	; (6154 <atan2+0x104>)
    611c:	4b0f      	ldr	r3, [pc, #60]	; (615c <atan2+0x10c>)
    611e:	2800      	cmp	r0, #0
    6120:	d004      	beq.n	612c <atan2+0xdc>
    6122:	0028      	movs	r0, r5
    6124:	0021      	movs	r1, r4
    6126:	f000 ff85 	bl	7034 <__aeabi_dsub>
    612a:	e009      	b.n	6140 <atan2+0xf0>
    612c:	0028      	movs	r0, r5
    612e:	0021      	movs	r1, r4
    6130:	f001 f864 	bl	71fc <__aeabi_dadd>
    6134:	e004      	b.n	6140 <atan2+0xf0>
    6136:	4807      	ldr	r0, [pc, #28]	; (6154 <atan2+0x104>)
    6138:	4909      	ldr	r1, [pc, #36]	; (6160 <atan2+0x110>)
    613a:	e001      	b.n	6140 <atan2+0xf0>
    613c:	0028      	movs	r0, r5
    613e:	0021      	movs	r1, r4
    6140:	b003      	add	sp, #12
    6142:	bdf0      	pop	{r4, r5, r6, r7, pc}
    6144:	10000b08 	.word	0x10000b08
    6148:	00006910 	.word	0x00006910
    614c:	0c924223 	.word	0x0c924223
    6150:	3bc79ca1 	.word	0x3bc79ca1
    6154:	54442d18 	.word	0x54442d18
    6158:	3ff921fb 	.word	0x3ff921fb
    615c:	400921fb 	.word	0x400921fb
    6160:	bff921fb 	.word	0xbff921fb

00006164 <cos>:
    6164:	b537      	push	{r0, r1, r2, r4, r5, lr}
    6166:	2300      	movs	r3, #0
    6168:	2200      	movs	r2, #0
    616a:	0005      	movs	r5, r0
    616c:	000c      	movs	r4, r1
    616e:	f001 f9a3 	bl	74b8 <__aeabi_dcmplt>
    6172:	2800      	cmp	r0, #0
    6174:	d00f      	beq.n	6196 <cos+0x32>
    6176:	002a      	movs	r2, r5
    6178:	0023      	movs	r3, r4
    617a:	480f      	ldr	r0, [pc, #60]	; (61b8 <cos+0x54>)
    617c:	490f      	ldr	r1, [pc, #60]	; (61bc <cos+0x58>)
    617e:	f000 ff59 	bl	7034 <__aeabi_dsub>
    6182:	0002      	movs	r2, r0
    6184:	0028      	movs	r0, r5
    6186:	2580      	movs	r5, #128	; 0x80
    6188:	2301      	movs	r3, #1
    618a:	062d      	lsls	r5, r5, #24
    618c:	9301      	str	r3, [sp, #4]
    618e:	9300      	str	r3, [sp, #0]
    6190:	000b      	movs	r3, r1
    6192:	1961      	adds	r1, r4, r5
    6194:	e00c      	b.n	61b0 <cos+0x4c>
    6196:	4a08      	ldr	r2, [pc, #32]	; (61b8 <cos+0x54>)
    6198:	4b08      	ldr	r3, [pc, #32]	; (61bc <cos+0x58>)
    619a:	0028      	movs	r0, r5
    619c:	0021      	movs	r1, r4
    619e:	f001 f82d 	bl	71fc <__aeabi_dadd>
    61a2:	2301      	movs	r3, #1
    61a4:	0002      	movs	r2, r0
    61a6:	9301      	str	r3, [sp, #4]
    61a8:	9300      	str	r3, [sp, #0]
    61aa:	0028      	movs	r0, r5
    61ac:	000b      	movs	r3, r1
    61ae:	0021      	movs	r1, r4
    61b0:	f000 fbb2 	bl	6918 <_sincos>
    61b4:	b003      	add	sp, #12
    61b6:	bd30      	pop	{r4, r5, pc}
    61b8:	54442d18 	.word	0x54442d18
    61bc:	3ff921fb 	.word	0x3ff921fb

000061c0 <__ctype>:
	...
    6240:	40404040 40404040 41414140 40404141     @@@@@@@@@AAAAA@@
    6250:	40404040 40404040 40404040 40404040     @@@@@@@@@@@@@@@@
    6260:	02020205 02020202 02020202 02020202     ................
    6270:	20202020 20202020 02022020 02020202               ......
    6280:	90909002 10909090 10101010 10101010     ................
    6290:	10101010 10101010 02101010 02020202     ................
    62a0:	88888802 08888888 08080808 08080808     ................
    62b0:	08080808 08080808 02080808 40020202     ...............@
	...

00006340 <fabs>:
    6340:	b570      	push	{r4, r5, r6, lr}
    6342:	000c      	movs	r4, r1
    6344:	0005      	movs	r5, r0
    6346:	2300      	movs	r3, #0
    6348:	2200      	movs	r2, #0
    634a:	0028      	movs	r0, r5
    634c:	0021      	movs	r1, r4
    634e:	f001 f8b3 	bl	74b8 <__aeabi_dcmplt>
    6352:	2380      	movs	r3, #128	; 0x80
    6354:	061b      	lsls	r3, r3, #24
    6356:	18e3      	adds	r3, r4, r3
    6358:	2800      	cmp	r0, #0
    635a:	d100      	bne.n	635e <fabs+0x1e>
    635c:	0023      	movs	r3, r4
    635e:	0028      	movs	r0, r5
    6360:	0019      	movs	r1, r3
    6362:	bd70      	pop	{r4, r5, r6, pc}

00006364 <uitoa>:
    6364:	b5f7      	push	{r0, r1, r2, r4, r5, r6, r7, lr}
    6366:	000b      	movs	r3, r1
    6368:	0006      	movs	r6, r0
    636a:	000f      	movs	r7, r1
    636c:	000d      	movs	r5, r1
    636e:	9201      	str	r2, [sp, #4]
    6370:	0030      	movs	r0, r6
    6372:	9901      	ldr	r1, [sp, #4]
    6374:	001c      	movs	r4, r3
    6376:	f7f9 feab 	bl	d0 <__aeabi_uidiv>
    637a:	9b01      	ldr	r3, [sp, #4]
    637c:	4343      	muls	r3, r0
    637e:	1af6      	subs	r6, r6, r3
    6380:	4b09      	ldr	r3, [pc, #36]	; (63a8 <uitoa+0x44>)
    6382:	5d9b      	ldrb	r3, [r3, r6]
    6384:	0006      	movs	r6, r0
    6386:	7023      	strb	r3, [r4, #0]
    6388:	1c63      	adds	r3, r4, #1
    638a:	2800      	cmp	r0, #0
    638c:	d1f0      	bne.n	6370 <uitoa+0xc>
    638e:	7060      	strb	r0, [r4, #1]
    6390:	42ac      	cmp	r4, r5
    6392:	d906      	bls.n	63a2 <uitoa+0x3e>
    6394:	7823      	ldrb	r3, [r4, #0]
    6396:	782a      	ldrb	r2, [r5, #0]
    6398:	3c01      	subs	r4, #1
    639a:	7062      	strb	r2, [r4, #1]
    639c:	702b      	strb	r3, [r5, #0]
    639e:	3501      	adds	r5, #1
    63a0:	e7f6      	b.n	6390 <uitoa+0x2c>
    63a2:	0038      	movs	r0, r7
    63a4:	bdfe      	pop	{r1, r2, r3, r4, r5, r6, r7, pc}
    63a6:	46c0      	nop			; (mov r8, r8)
    63a8:	00006414 	.word	0x00006414

000063ac <itoa>:
    63ac:	2300      	movs	r3, #0
    63ae:	b5f7      	push	{r0, r1, r2, r4, r5, r6, r7, lr}
    63b0:	000e      	movs	r6, r1
    63b2:	1e17      	subs	r7, r2, #0
    63b4:	9301      	str	r3, [sp, #4]
    63b6:	2f0a      	cmp	r7, #10
    63b8:	d101      	bne.n	63be <itoa+0x12>
    63ba:	4298      	cmp	r0, r3
    63bc:	db22      	blt.n	6404 <itoa+0x58>
    63be:	0034      	movs	r4, r6
    63c0:	0039      	movs	r1, r7
    63c2:	0005      	movs	r5, r0
    63c4:	f7f9 fe84 	bl	d0 <__aeabi_uidiv>
    63c8:	0002      	movs	r2, r0
    63ca:	437a      	muls	r2, r7
    63cc:	1aad      	subs	r5, r5, r2
    63ce:	4a10      	ldr	r2, [pc, #64]	; (6410 <itoa+0x64>)
    63d0:	1c63      	adds	r3, r4, #1
    63d2:	5d52      	ldrb	r2, [r2, r5]
    63d4:	7022      	strb	r2, [r4, #0]
    63d6:	2800      	cmp	r0, #0
    63d8:	d001      	beq.n	63de <itoa+0x32>
    63da:	001c      	movs	r4, r3
    63dc:	e7f0      	b.n	63c0 <itoa+0x14>
    63de:	9a01      	ldr	r2, [sp, #4]
    63e0:	2a00      	cmp	r2, #0
    63e2:	d002      	beq.n	63ea <itoa+0x3e>
    63e4:	222d      	movs	r2, #45	; 0x2d
    63e6:	1ca3      	adds	r3, r4, #2
    63e8:	7062      	strb	r2, [r4, #1]
    63ea:	2100      	movs	r1, #0
    63ec:	1e5a      	subs	r2, r3, #1
    63ee:	7019      	strb	r1, [r3, #0]
    63f0:	0033      	movs	r3, r6
    63f2:	429a      	cmp	r2, r3
    63f4:	d90a      	bls.n	640c <itoa+0x60>
    63f6:	7811      	ldrb	r1, [r2, #0]
    63f8:	7818      	ldrb	r0, [r3, #0]
    63fa:	3a01      	subs	r2, #1
    63fc:	7050      	strb	r0, [r2, #1]
    63fe:	7019      	strb	r1, [r3, #0]
    6400:	3301      	adds	r3, #1
    6402:	e7f6      	b.n	63f2 <itoa+0x46>
    6404:	2301      	movs	r3, #1
    6406:	4240      	negs	r0, r0
    6408:	9301      	str	r3, [sp, #4]
    640a:	e7d8      	b.n	63be <itoa+0x12>
    640c:	0030      	movs	r0, r6
    640e:	bdfe      	pop	{r1, r2, r3, r4, r5, r6, r7, pc}
    6410:	00006414 	.word	0x00006414

00006414 <digits>:
    6414:	33323130 37363534 62613938 66656463     0123456789abcdef
    6424:	ffffff00                                ....

00006428 <ch_val>:
    6428:	4b0a      	ldr	r3, [pc, #40]	; (6454 <ch_val+0x2c>)
    642a:	181b      	adds	r3, r3, r0
    642c:	3380      	adds	r3, #128	; 0x80
    642e:	781b      	ldrb	r3, [r3, #0]
    6430:	069a      	lsls	r2, r3, #26
    6432:	d501      	bpl.n	6438 <ch_val+0x10>
    6434:	3830      	subs	r0, #48	; 0x30
    6436:	e008      	b.n	644a <ch_val+0x22>
    6438:	071a      	lsls	r2, r3, #28
    643a:	d501      	bpl.n	6440 <ch_val+0x18>
    643c:	3857      	subs	r0, #87	; 0x57
    643e:	e004      	b.n	644a <ch_val+0x22>
    6440:	3837      	subs	r0, #55	; 0x37
    6442:	06db      	lsls	r3, r3, #27
    6444:	d401      	bmi.n	644a <ch_val+0x22>
    6446:	2001      	movs	r0, #1
    6448:	4240      	negs	r0, r0
    644a:	4288      	cmp	r0, r1
    644c:	db01      	blt.n	6452 <ch_val+0x2a>
    644e:	2001      	movs	r0, #1
    6450:	4240      	negs	r0, r0
    6452:	4770      	bx	lr
    6454:	000061c0 	.word	0x000061c0

00006458 <_strtoul>:
    6458:	b5f0      	push	{r4, r5, r6, r7, lr}
    645a:	b085      	sub	sp, #20
    645c:	9103      	str	r1, [sp, #12]
    645e:	0015      	movs	r5, r2
    6460:	0003      	movs	r3, r0
    6462:	2101      	movs	r1, #1
    6464:	4c2e      	ldr	r4, [pc, #184]	; (6520 <_strtoul+0xc8>)
    6466:	9002      	str	r0, [sp, #8]
    6468:	7818      	ldrb	r0, [r3, #0]
    646a:	1c5e      	adds	r6, r3, #1
    646c:	2800      	cmp	r0, #0
    646e:	d020      	beq.n	64b2 <_strtoul+0x5a>
    6470:	1822      	adds	r2, r4, r0
    6472:	3280      	adds	r2, #128	; 0x80
    6474:	7812      	ldrb	r2, [r2, #0]
    6476:	420a      	tst	r2, r1
    6478:	d001      	beq.n	647e <_strtoul+0x26>
    647a:	0033      	movs	r3, r6
    647c:	e7f4      	b.n	6468 <_strtoul+0x10>
    647e:	2830      	cmp	r0, #48	; 0x30
    6480:	d117      	bne.n	64b2 <_strtoul+0x5a>
    6482:	7858      	ldrb	r0, [r3, #1]
    6484:	2220      	movs	r2, #32
    6486:	0001      	movs	r1, r0
    6488:	4391      	bics	r1, r2
    648a:	1c9e      	adds	r6, r3, #2
    648c:	1e0a      	subs	r2, r1, #0
    648e:	2a58      	cmp	r2, #88	; 0x58
    6490:	d10a      	bne.n	64a8 <_strtoul+0x50>
    6492:	0029      	movs	r1, r5
    6494:	3a48      	subs	r2, #72	; 0x48
    6496:	4391      	bics	r1, r2
    6498:	2701      	movs	r7, #1
    649a:	2900      	cmp	r1, #0
    649c:	d10e      	bne.n	64bc <_strtoul+0x64>
    649e:	1cde      	adds	r6, r3, #3
    64a0:	7898      	ldrb	r0, [r3, #2]
    64a2:	000f      	movs	r7, r1
    64a4:	0015      	movs	r5, r2
    64a6:	e009      	b.n	64bc <_strtoul+0x64>
    64a8:	2701      	movs	r7, #1
    64aa:	2d00      	cmp	r5, #0
    64ac:	d106      	bne.n	64bc <_strtoul+0x64>
    64ae:	3508      	adds	r5, #8
    64b0:	e004      	b.n	64bc <_strtoul+0x64>
    64b2:	2700      	movs	r7, #0
    64b4:	2d00      	cmp	r5, #0
    64b6:	d101      	bne.n	64bc <_strtoul+0x64>
    64b8:	002f      	movs	r7, r5
    64ba:	250a      	movs	r5, #10
    64bc:	2400      	movs	r4, #0
    64be:	9400      	str	r4, [sp, #0]
    64c0:	9401      	str	r4, [sp, #4]
    64c2:	0029      	movs	r1, r5
    64c4:	f7ff ffb0 	bl	6428 <ch_val>
    64c8:	2800      	cmp	r0, #0
    64ca:	db11      	blt.n	64f0 <_strtoul+0x98>
    64cc:	436c      	muls	r4, r5
    64ce:	1904      	adds	r4, r0, r4
    64d0:	9800      	ldr	r0, [sp, #0]
    64d2:	0c23      	lsrs	r3, r4, #16
    64d4:	4368      	muls	r0, r5
    64d6:	181b      	adds	r3, r3, r0
    64d8:	9300      	str	r3, [sp, #0]
    64da:	001a      	movs	r2, r3
    64dc:	4b11      	ldr	r3, [pc, #68]	; (6524 <_strtoul+0xcc>)
    64de:	b2a4      	uxth	r4, r4
    64e0:	429a      	cmp	r2, r3
    64e2:	d901      	bls.n	64e8 <_strtoul+0x90>
    64e4:	2301      	movs	r3, #1
    64e6:	9301      	str	r3, [sp, #4]
    64e8:	7830      	ldrb	r0, [r6, #0]
    64ea:	2701      	movs	r7, #1
    64ec:	3601      	adds	r6, #1
    64ee:	e7e8      	b.n	64c2 <_strtoul+0x6a>
    64f0:	9b03      	ldr	r3, [sp, #12]
    64f2:	2b00      	cmp	r3, #0
    64f4:	d005      	beq.n	6502 <_strtoul+0xaa>
    64f6:	9b02      	ldr	r3, [sp, #8]
    64f8:	2f00      	cmp	r7, #0
    64fa:	d000      	beq.n	64fe <_strtoul+0xa6>
    64fc:	1e73      	subs	r3, r6, #1
    64fe:	9a03      	ldr	r2, [sp, #12]
    6500:	6013      	str	r3, [r2, #0]
    6502:	9b01      	ldr	r3, [sp, #4]
    6504:	2b00      	cmp	r3, #0
    6506:	d005      	beq.n	6514 <_strtoul+0xbc>
    6508:	2222      	movs	r2, #34	; 0x22
    650a:	2001      	movs	r0, #1
    650c:	4b06      	ldr	r3, [pc, #24]	; (6528 <_strtoul+0xd0>)
    650e:	4240      	negs	r0, r0
    6510:	601a      	str	r2, [r3, #0]
    6512:	e002      	b.n	651a <_strtoul+0xc2>
    6514:	9b00      	ldr	r3, [sp, #0]
    6516:	0418      	lsls	r0, r3, #16
    6518:	4320      	orrs	r0, r4
    651a:	b005      	add	sp, #20
    651c:	bdf0      	pop	{r4, r5, r6, r7, pc}
    651e:	46c0      	nop			; (mov r8, r8)
    6520:	000061c0 	.word	0x000061c0
    6524:	0000ffff 	.word	0x0000ffff
    6528:	10000b08 	.word	0x10000b08

0000652c <strtol>:
    652c:	4b1e      	ldr	r3, [pc, #120]	; (65a8 <strtol+0x7c>)
    652e:	b5f7      	push	{r0, r1, r2, r4, r5, r6, r7, lr}
    6530:	469c      	mov	ip, r3
    6532:	0007      	movs	r7, r0
    6534:	0005      	movs	r5, r0
    6536:	000e      	movs	r6, r1
    6538:	2001      	movs	r0, #1
    653a:	782b      	ldrb	r3, [r5, #0]
    653c:	1c69      	adds	r1, r5, #1
    653e:	2b00      	cmp	r3, #0
    6540:	d00f      	beq.n	6562 <strtol+0x36>
    6542:	4664      	mov	r4, ip
    6544:	18e4      	adds	r4, r4, r3
    6546:	3480      	adds	r4, #128	; 0x80
    6548:	7824      	ldrb	r4, [r4, #0]
    654a:	4004      	ands	r4, r0
    654c:	d001      	beq.n	6552 <strtol+0x26>
    654e:	000d      	movs	r5, r1
    6550:	e7f3      	b.n	653a <strtol+0xe>
    6552:	2b2b      	cmp	r3, #43	; 0x2b
    6554:	d007      	beq.n	6566 <strtol+0x3a>
    6556:	2b2d      	cmp	r3, #45	; 0x2d
    6558:	d106      	bne.n	6568 <strtol+0x3c>
    655a:	2480      	movs	r4, #128	; 0x80
    655c:	000d      	movs	r5, r1
    655e:	00a4      	lsls	r4, r4, #2
    6560:	e002      	b.n	6568 <strtol+0x3c>
    6562:	001c      	movs	r4, r3
    6564:	e000      	b.n	6568 <strtol+0x3c>
    6566:	000d      	movs	r5, r1
    6568:	a901      	add	r1, sp, #4
    656a:	0028      	movs	r0, r5
    656c:	f7ff ff74 	bl	6458 <_strtoul>
    6570:	2e00      	cmp	r6, #0
    6572:	d004      	beq.n	657e <strtol+0x52>
    6574:	9b01      	ldr	r3, [sp, #4]
    6576:	429d      	cmp	r5, r3
    6578:	d100      	bne.n	657c <strtol+0x50>
    657a:	003b      	movs	r3, r7
    657c:	6033      	str	r3, [r6, #0]
    657e:	2380      	movs	r3, #128	; 0x80
    6580:	009b      	lsls	r3, r3, #2
    6582:	421c      	tst	r4, r3
    6584:	d008      	beq.n	6598 <strtol+0x6c>
    6586:	4240      	negs	r0, r0
    6588:	2800      	cmp	r0, #0
    658a:	dd0b      	ble.n	65a4 <strtol+0x78>
    658c:	2222      	movs	r2, #34	; 0x22
    658e:	2080      	movs	r0, #128	; 0x80
    6590:	4b06      	ldr	r3, [pc, #24]	; (65ac <strtol+0x80>)
    6592:	0600      	lsls	r0, r0, #24
    6594:	601a      	str	r2, [r3, #0]
    6596:	e005      	b.n	65a4 <strtol+0x78>
    6598:	2800      	cmp	r0, #0
    659a:	da03      	bge.n	65a4 <strtol+0x78>
    659c:	2222      	movs	r2, #34	; 0x22
    659e:	4b03      	ldr	r3, [pc, #12]	; (65ac <strtol+0x80>)
    65a0:	4803      	ldr	r0, [pc, #12]	; (65b0 <strtol+0x84>)
    65a2:	601a      	str	r2, [r3, #0]
    65a4:	bdfe      	pop	{r1, r2, r3, r4, r5, r6, r7, pc}
    65a6:	46c0      	nop			; (mov r8, r8)
    65a8:	000061c0 	.word	0x000061c0
    65ac:	10000b08 	.word	0x10000b08
    65b0:	7fffffff 	.word	0x7fffffff

000065b4 <atoi>:
    65b4:	b570      	push	{r4, r5, r6, lr}
    65b6:	4c04      	ldr	r4, [pc, #16]	; (65c8 <atoi+0x14>)
    65b8:	220a      	movs	r2, #10
    65ba:	6825      	ldr	r5, [r4, #0]
    65bc:	2100      	movs	r1, #0
    65be:	f7ff ffb5 	bl	652c <strtol>
    65c2:	6025      	str	r5, [r4, #0]
    65c4:	bd70      	pop	{r4, r5, r6, pc}
    65c6:	46c0      	nop			; (mov r8, r8)
    65c8:	10000b08 	.word	0x10000b08

000065cc <sin>:
    65cc:	b537      	push	{r0, r1, r2, r4, r5, lr}
    65ce:	2300      	movs	r3, #0
    65d0:	2200      	movs	r2, #0
    65d2:	0005      	movs	r5, r0
    65d4:	000c      	movs	r4, r1
    65d6:	f000 ff6f 	bl	74b8 <__aeabi_dcmplt>
    65da:	2800      	cmp	r0, #0
    65dc:	d006      	beq.n	65ec <sin+0x20>
    65de:	2380      	movs	r3, #128	; 0x80
    65e0:	061b      	lsls	r3, r3, #24
    65e2:	18e4      	adds	r4, r4, r3
    65e4:	2300      	movs	r3, #0
    65e6:	9301      	str	r3, [sp, #4]
    65e8:	3b01      	subs	r3, #1
    65ea:	e001      	b.n	65f0 <sin+0x24>
    65ec:	2301      	movs	r3, #1
    65ee:	9001      	str	r0, [sp, #4]
    65f0:	9300      	str	r3, [sp, #0]
    65f2:	002a      	movs	r2, r5
    65f4:	0023      	movs	r3, r4
    65f6:	0028      	movs	r0, r5
    65f8:	0021      	movs	r1, r4
    65fa:	f000 f98d 	bl	6918 <_sincos>
    65fe:	b003      	add	sp, #12
    6600:	bd30      	pop	{r4, r5, pc}
    6602:	Address 0x00006602 is out of bounds.


00006604 <sqrt>:
    6604:	b5f7      	push	{r0, r1, r2, r4, r5, r6, r7, lr}
    6606:	2300      	movs	r3, #0
    6608:	2200      	movs	r2, #0
    660a:	0006      	movs	r6, r0
    660c:	000f      	movs	r7, r1
    660e:	f000 ffaf 	bl	7570 <__aeabi_dcmple>
    6612:	2800      	cmp	r0, #0
    6614:	d015      	beq.n	6642 <sqrt+0x3e>
    6616:	2200      	movs	r2, #0
    6618:	2300      	movs	r3, #0
    661a:	0030      	movs	r0, r6
    661c:	0039      	movs	r1, r7
    661e:	f000 ff4b 	bl	74b8 <__aeabi_dcmplt>
    6622:	2800      	cmp	r0, #0
    6624:	d06f      	beq.n	6706 <sqrt+0x102>
    6626:	2180      	movs	r1, #128	; 0x80
    6628:	2221      	movs	r2, #33	; 0x21
    662a:	0609      	lsls	r1, r1, #24
    662c:	468c      	mov	ip, r1
    662e:	4b39      	ldr	r3, [pc, #228]	; (6714 <sqrt+0x110>)
    6630:	601a      	str	r2, [r3, #0]
    6632:	4b39      	ldr	r3, [pc, #228]	; (6718 <sqrt+0x114>)
    6634:	685a      	ldr	r2, [r3, #4]
    6636:	9200      	str	r2, [sp, #0]
    6638:	681a      	ldr	r2, [r3, #0]
    663a:	9b00      	ldr	r3, [sp, #0]
    663c:	4463      	add	r3, ip
    663e:	001d      	movs	r5, r3
    6640:	e063      	b.n	670a <sqrt+0x106>
    6642:	0079      	lsls	r1, r7, #1
    6644:	0d49      	lsrs	r1, r1, #21
    6646:	9101      	str	r1, [sp, #4]
    6648:	9801      	ldr	r0, [sp, #4]
    664a:	4934      	ldr	r1, [pc, #208]	; (671c <sqrt+0x118>)
    664c:	4684      	mov	ip, r0
    664e:	4461      	add	r1, ip
    6650:	9100      	str	r1, [sp, #0]
    6652:	4933      	ldr	r1, [pc, #204]	; (6720 <sqrt+0x11c>)
    6654:	4833      	ldr	r0, [pc, #204]	; (6724 <sqrt+0x120>)
    6656:	4039      	ands	r1, r7
    6658:	4308      	orrs	r0, r1
    665a:	0005      	movs	r5, r0
    665c:	4a32      	ldr	r2, [pc, #200]	; (6728 <sqrt+0x124>)
    665e:	4b33      	ldr	r3, [pc, #204]	; (672c <sqrt+0x128>)
    6660:	0030      	movs	r0, r6
    6662:	0029      	movs	r1, r5
    6664:	f000 fb82 	bl	6d6c <__aeabi_dmul>
    6668:	4a31      	ldr	r2, [pc, #196]	; (6730 <sqrt+0x12c>)
    666a:	4b32      	ldr	r3, [pc, #200]	; (6734 <sqrt+0x130>)
    666c:	f000 fdc6 	bl	71fc <__aeabi_dadd>
    6670:	0034      	movs	r4, r6
    6672:	000f      	movs	r7, r1
    6674:	0006      	movs	r6, r0
    6676:	0002      	movs	r2, r0
    6678:	000b      	movs	r3, r1
    667a:	0020      	movs	r0, r4
    667c:	0029      	movs	r1, r5
    667e:	f000 fc33 	bl	6ee8 <__aeabi_ddiv>
    6682:	0032      	movs	r2, r6
    6684:	003b      	movs	r3, r7
    6686:	f000 fdb9 	bl	71fc <__aeabi_dadd>
    668a:	2200      	movs	r2, #0
    668c:	4b25      	ldr	r3, [pc, #148]	; (6724 <sqrt+0x120>)
    668e:	f000 fb6d 	bl	6d6c <__aeabi_dmul>
    6692:	0006      	movs	r6, r0
    6694:	000f      	movs	r7, r1
    6696:	0002      	movs	r2, r0
    6698:	000b      	movs	r3, r1
    669a:	0020      	movs	r0, r4
    669c:	0029      	movs	r1, r5
    669e:	f000 fc23 	bl	6ee8 <__aeabi_ddiv>
    66a2:	0032      	movs	r2, r6
    66a4:	003b      	movs	r3, r7
    66a6:	f000 fda9 	bl	71fc <__aeabi_dadd>
    66aa:	2200      	movs	r2, #0
    66ac:	4b1d      	ldr	r3, [pc, #116]	; (6724 <sqrt+0x120>)
    66ae:	f000 fb5d 	bl	6d6c <__aeabi_dmul>
    66b2:	0006      	movs	r6, r0
    66b4:	000f      	movs	r7, r1
    66b6:	0002      	movs	r2, r0
    66b8:	000b      	movs	r3, r1
    66ba:	0020      	movs	r0, r4
    66bc:	0029      	movs	r1, r5
    66be:	f000 fc13 	bl	6ee8 <__aeabi_ddiv>
    66c2:	0032      	movs	r2, r6
    66c4:	003b      	movs	r3, r7
    66c6:	f000 fd99 	bl	71fc <__aeabi_dadd>
    66ca:	4b16      	ldr	r3, [pc, #88]	; (6724 <sqrt+0x120>)
    66cc:	2200      	movs	r2, #0
    66ce:	f000 fb4d 	bl	6d6c <__aeabi_dmul>
    66d2:	9b00      	ldr	r3, [sp, #0]
    66d4:	4d12      	ldr	r5, [pc, #72]	; (6720 <sqrt+0x11c>)
    66d6:	07db      	lsls	r3, r3, #31
    66d8:	d508      	bpl.n	66ec <sqrt+0xe8>
    66da:	4a17      	ldr	r2, [pc, #92]	; (6738 <sqrt+0x134>)
    66dc:	4b17      	ldr	r3, [pc, #92]	; (673c <sqrt+0x138>)
    66de:	f000 fb45 	bl	6d6c <__aeabi_dmul>
    66e2:	4a17      	ldr	r2, [pc, #92]	; (6740 <sqrt+0x13c>)
    66e4:	9b01      	ldr	r3, [sp, #4]
    66e6:	4694      	mov	ip, r2
    66e8:	4463      	add	r3, ip
    66ea:	9300      	str	r3, [sp, #0]
    66ec:	9c00      	ldr	r4, [sp, #0]
    66ee:	0002      	movs	r2, r0
    66f0:	0fe0      	lsrs	r0, r4, #31
    66f2:	004b      	lsls	r3, r1, #1
    66f4:	1904      	adds	r4, r0, r4
    66f6:	0d5b      	lsrs	r3, r3, #21
    66f8:	1064      	asrs	r4, r4, #1
    66fa:	18e4      	adds	r4, r4, r3
    66fc:	0564      	lsls	r4, r4, #21
    66fe:	0864      	lsrs	r4, r4, #1
    6700:	400d      	ands	r5, r1
    6702:	4325      	orrs	r5, r4
    6704:	e001      	b.n	670a <sqrt+0x106>
    6706:	0032      	movs	r2, r6
    6708:	003d      	movs	r5, r7
    670a:	0010      	movs	r0, r2
    670c:	0029      	movs	r1, r5
    670e:	b003      	add	sp, #12
    6710:	bdf0      	pop	{r4, r5, r6, r7, pc}
    6712:	46c0      	nop			; (mov r8, r8)
    6714:	10000b08 	.word	0x10000b08
    6718:	00006910 	.word	0x00006910
    671c:	fffffc02 	.word	0xfffffc02
    6720:	800fffff 	.word	0x800fffff
    6724:	3fe00000 	.word	0x3fe00000
    6728:	396d0918 	.word	0x396d0918
    672c:	3fe2e297 	.word	0x3fe2e297
    6730:	0092ccf7 	.word	0x0092ccf7
    6734:	3fdab535 	.word	0x3fdab535
    6738:	667f3bcd 	.word	0x667f3bcd
    673c:	3fe6a09e 	.word	0x3fe6a09e
    6740:	fffffc03 	.word	0xfffffc03

00006744 <strcat>:
    6744:	0002      	movs	r2, r0
    6746:	b510      	push	{r4, lr}
    6748:	7813      	ldrb	r3, [r2, #0]
    674a:	2b00      	cmp	r3, #0
    674c:	d001      	beq.n	6752 <strcat+0xe>
    674e:	3201      	adds	r2, #1
    6750:	e7fa      	b.n	6748 <strcat+0x4>
    6752:	5ccc      	ldrb	r4, [r1, r3]
    6754:	54d4      	strb	r4, [r2, r3]
    6756:	3301      	adds	r3, #1
    6758:	2c00      	cmp	r4, #0
    675a:	d1fa      	bne.n	6752 <strcat+0xe>
    675c:	bd10      	pop	{r4, pc}

0000675e <strchr>:
    675e:	b2c9      	uxtb	r1, r1
    6760:	7803      	ldrb	r3, [r0, #0]
    6762:	428b      	cmp	r3, r1
    6764:	d004      	beq.n	6770 <strchr+0x12>
    6766:	2b00      	cmp	r3, #0
    6768:	d001      	beq.n	676e <strchr+0x10>
    676a:	3001      	adds	r0, #1
    676c:	e7f8      	b.n	6760 <strchr+0x2>
    676e:	0018      	movs	r0, r3
    6770:	4770      	bx	lr
    6772:	Address 0x00006772 is out of bounds.


00006774 <strcmp>:
    6774:	0003      	movs	r3, r0
    6776:	430b      	orrs	r3, r1
    6778:	b510      	push	{r4, lr}
    677a:	079b      	lsls	r3, r3, #30
    677c:	d10c      	bne.n	6798 <strcmp+0x24>
    677e:	4c0c      	ldr	r4, [pc, #48]	; (67b0 <strcmp+0x3c>)
    6780:	6802      	ldr	r2, [r0, #0]
    6782:	680b      	ldr	r3, [r1, #0]
    6784:	429a      	cmp	r2, r3
    6786:	d107      	bne.n	6798 <strcmp+0x24>
    6788:	4b0a      	ldr	r3, [pc, #40]	; (67b4 <strcmp+0x40>)
    678a:	18d3      	adds	r3, r2, r3
    678c:	4393      	bics	r3, r2
    678e:	4223      	tst	r3, r4
    6790:	d102      	bne.n	6798 <strcmp+0x24>
    6792:	3004      	adds	r0, #4
    6794:	3104      	adds	r1, #4
    6796:	e7f3      	b.n	6780 <strcmp+0xc>
    6798:	2200      	movs	r2, #0
    679a:	5c83      	ldrb	r3, [r0, r2]
    679c:	5c8c      	ldrb	r4, [r1, r2]
    679e:	42a3      	cmp	r3, r4
    67a0:	d001      	beq.n	67a6 <strcmp+0x32>
    67a2:	1b18      	subs	r0, r3, r4
    67a4:	e003      	b.n	67ae <strcmp+0x3a>
    67a6:	3201      	adds	r2, #1
    67a8:	2b00      	cmp	r3, #0
    67aa:	d1f6      	bne.n	679a <strcmp+0x26>
    67ac:	0018      	movs	r0, r3
    67ae:	bd10      	pop	{r4, pc}
    67b0:	80808080 	.word	0x80808080
    67b4:	fefefeff 	.word	0xfefefeff

000067b8 <strcpy>:
    67b8:	0003      	movs	r3, r0
    67ba:	430b      	orrs	r3, r1
    67bc:	b530      	push	{r4, r5, lr}
    67be:	079b      	lsls	r3, r3, #30
    67c0:	d111      	bne.n	67e6 <strcpy+0x2e>
    67c2:	0003      	movs	r3, r0
    67c4:	4d0b      	ldr	r5, [pc, #44]	; (67f4 <strcpy+0x3c>)
    67c6:	680a      	ldr	r2, [r1, #0]
    67c8:	4c0b      	ldr	r4, [pc, #44]	; (67f8 <strcpy+0x40>)
    67ca:	1914      	adds	r4, r2, r4
    67cc:	4394      	bics	r4, r2
    67ce:	422c      	tst	r4, r5
    67d0:	d102      	bne.n	67d8 <strcpy+0x20>
    67d2:	c304      	stmia	r3!, {r2}
    67d4:	3104      	adds	r1, #4
    67d6:	e7f6      	b.n	67c6 <strcpy+0xe>
    67d8:	b2d1      	uxtb	r1, r2
    67da:	7019      	strb	r1, [r3, #0]
    67dc:	3301      	adds	r3, #1
    67de:	2900      	cmp	r1, #0
    67e0:	d007      	beq.n	67f2 <strcpy+0x3a>
    67e2:	1212      	asrs	r2, r2, #8
    67e4:	e7f8      	b.n	67d8 <strcpy+0x20>
    67e6:	2300      	movs	r3, #0
    67e8:	5cca      	ldrb	r2, [r1, r3]
    67ea:	54c2      	strb	r2, [r0, r3]
    67ec:	3301      	adds	r3, #1
    67ee:	2a00      	cmp	r2, #0
    67f0:	d1fa      	bne.n	67e8 <strcpy+0x30>
    67f2:	bd30      	pop	{r4, r5, pc}
    67f4:	80808080 	.word	0x80808080
    67f8:	fefefeff 	.word	0xfefefeff

000067fc <strlen>:
    67fc:	2203      	movs	r2, #3
    67fe:	b510      	push	{r4, lr}
    6800:	1c43      	adds	r3, r0, #1
    6802:	4210      	tst	r0, r2
    6804:	d006      	beq.n	6814 <strlen+0x18>
    6806:	3001      	adds	r0, #1
    6808:	1e41      	subs	r1, r0, #1
    680a:	7809      	ldrb	r1, [r1, #0]
    680c:	2900      	cmp	r1, #0
    680e:	d1f8      	bne.n	6802 <strlen+0x6>
    6810:	1ac0      	subs	r0, r0, r3
    6812:	e018      	b.n	6846 <strlen+0x4a>
    6814:	4c0c      	ldr	r4, [pc, #48]	; (6848 <strlen+0x4c>)
    6816:	6802      	ldr	r2, [r0, #0]
    6818:	490c      	ldr	r1, [pc, #48]	; (684c <strlen+0x50>)
    681a:	1851      	adds	r1, r2, r1
    681c:	4391      	bics	r1, r2
    681e:	4221      	tst	r1, r4
    6820:	d101      	bne.n	6826 <strlen+0x2a>
    6822:	3004      	adds	r0, #4
    6824:	e7f7      	b.n	6816 <strlen+0x1a>
    6826:	b2d4      	uxtb	r4, r2
    6828:	1c41      	adds	r1, r0, #1
    682a:	2c00      	cmp	r4, #0
    682c:	d00a      	beq.n	6844 <strlen+0x48>
    682e:	24ff      	movs	r4, #255	; 0xff
    6830:	0224      	lsls	r4, r4, #8
    6832:	1c81      	adds	r1, r0, #2
    6834:	4222      	tst	r2, r4
    6836:	d005      	beq.n	6844 <strlen+0x48>
    6838:	24ff      	movs	r4, #255	; 0xff
    683a:	0424      	lsls	r4, r4, #16
    683c:	1cc1      	adds	r1, r0, #3
    683e:	4222      	tst	r2, r4
    6840:	d000      	beq.n	6844 <strlen+0x48>
    6842:	1d01      	adds	r1, r0, #4
    6844:	1ac8      	subs	r0, r1, r3
    6846:	bd10      	pop	{r4, pc}
    6848:	80808080 	.word	0x80808080
    684c:	fefefeff 	.word	0xfefefeff

00006850 <strncpy>:
    6850:	b570      	push	{r4, r5, r6, lr}
    6852:	0004      	movs	r4, r0
    6854:	430c      	orrs	r4, r1
    6856:	0003      	movs	r3, r0
    6858:	07a4      	lsls	r4, r4, #30
    685a:	d10c      	bne.n	6876 <strncpy+0x26>
    685c:	4e10      	ldr	r6, [pc, #64]	; (68a0 <strncpy+0x50>)
    685e:	2a03      	cmp	r2, #3
    6860:	d909      	bls.n	6876 <strncpy+0x26>
    6862:	680d      	ldr	r5, [r1, #0]
    6864:	4c0f      	ldr	r4, [pc, #60]	; (68a4 <strncpy+0x54>)
    6866:	192c      	adds	r4, r5, r4
    6868:	43ac      	bics	r4, r5
    686a:	4234      	tst	r4, r6
    686c:	d103      	bne.n	6876 <strncpy+0x26>
    686e:	c320      	stmia	r3!, {r5}
    6870:	3104      	adds	r1, #4
    6872:	3a04      	subs	r2, #4
    6874:	e7f3      	b.n	685e <strncpy+0xe>
    6876:	3a01      	subs	r2, #1
    6878:	1c54      	adds	r4, r2, #1
    687a:	d00f      	beq.n	689c <strncpy+0x4c>
    687c:	780c      	ldrb	r4, [r1, #0]
    687e:	3301      	adds	r3, #1
    6880:	1e5d      	subs	r5, r3, #1
    6882:	702c      	strb	r4, [r5, #0]
    6884:	3101      	adds	r1, #1
    6886:	1e55      	subs	r5, r2, #1
    6888:	2c00      	cmp	r4, #0
    688a:	d105      	bne.n	6898 <strncpy+0x48>
    688c:	189a      	adds	r2, r3, r2
    688e:	4293      	cmp	r3, r2
    6890:	d004      	beq.n	689c <strncpy+0x4c>
    6892:	701c      	strb	r4, [r3, #0]
    6894:	3301      	adds	r3, #1
    6896:	e7fa      	b.n	688e <strncpy+0x3e>
    6898:	002a      	movs	r2, r5
    689a:	e7ed      	b.n	6878 <strncpy+0x28>
    689c:	bd70      	pop	{r4, r5, r6, pc}
    689e:	46c0      	nop			; (mov r8, r8)
    68a0:	80808080 	.word	0x80808080
    68a4:	fefefeff 	.word	0xfefefeff

000068a8 <strstr>:
    68a8:	b510      	push	{r4, lr}
    68aa:	2300      	movs	r3, #0
    68ac:	5cca      	ldrb	r2, [r1, r3]
    68ae:	2a00      	cmp	r2, #0
    68b0:	d00a      	beq.n	68c8 <strstr+0x20>
    68b2:	5cc4      	ldrb	r4, [r0, r3]
    68b4:	4294      	cmp	r4, r2
    68b6:	d101      	bne.n	68bc <strstr+0x14>
    68b8:	3301      	adds	r3, #1
    68ba:	e7f7      	b.n	68ac <strstr+0x4>
    68bc:	3001      	adds	r0, #1
    68be:	1e43      	subs	r3, r0, #1
    68c0:	781b      	ldrb	r3, [r3, #0]
    68c2:	2b00      	cmp	r3, #0
    68c4:	d1f1      	bne.n	68aa <strstr+0x2>
    68c6:	0018      	movs	r0, r3
    68c8:	bd10      	pop	{r4, pc}
    68ca:	Address 0x000068ca is out of bounds.


000068cc <strtok>:
    68cc:	b570      	push	{r4, r5, r6, lr}
    68ce:	0004      	movs	r4, r0
    68d0:	000e      	movs	r6, r1
    68d2:	4d0e      	ldr	r5, [pc, #56]	; (690c <strtok+0x40>)
    68d4:	2800      	cmp	r0, #0
    68d6:	d100      	bne.n	68da <strtok+0xe>
    68d8:	682c      	ldr	r4, [r5, #0]
    68da:	0020      	movs	r0, r4
    68dc:	0031      	movs	r1, r6
    68de:	f000 fa34 	bl	6d4a <strspn>
    68e2:	1824      	adds	r4, r4, r0
    68e4:	7823      	ldrb	r3, [r4, #0]
    68e6:	2b00      	cmp	r3, #0
    68e8:	d00b      	beq.n	6902 <strtok+0x36>
    68ea:	0031      	movs	r1, r6
    68ec:	0020      	movs	r0, r4
    68ee:	f000 fa1b 	bl	6d28 <strcspn>
    68f2:	1820      	adds	r0, r4, r0
    68f4:	7803      	ldrb	r3, [r0, #0]
    68f6:	2b00      	cmp	r3, #0
    68f8:	d005      	beq.n	6906 <strtok+0x3a>
    68fa:	2300      	movs	r3, #0
    68fc:	7003      	strb	r3, [r0, #0]
    68fe:	3001      	adds	r0, #1
    6900:	e001      	b.n	6906 <strtok+0x3a>
    6902:	0020      	movs	r0, r4
    6904:	001c      	movs	r4, r3
    6906:	6028      	str	r0, [r5, #0]
    6908:	0020      	movs	r0, r4
    690a:	bd70      	pop	{r4, r5, r6, pc}
    690c:	10000020 	.word	0x10000020

00006910 <__huge_val>:
    6910:	ffffffff 7fefffff                       ........

00006918 <_sincos>:
    6918:	b5f7      	push	{r0, r1, r2, r4, r5, r6, r7, lr}
    691a:	0014      	movs	r4, r2
    691c:	001d      	movs	r5, r3
    691e:	9000      	str	r0, [sp, #0]
    6920:	9101      	str	r1, [sp, #4]
    6922:	2200      	movs	r2, #0
    6924:	4b5a      	ldr	r3, [pc, #360]	; (6a90 <_sincos+0x178>)
    6926:	0020      	movs	r0, r4
    6928:	0029      	movs	r1, r5
    692a:	f000 fe4f 	bl	75cc <__aeabi_dcmpge>
    692e:	2800      	cmp	r0, #0
    6930:	d00c      	beq.n	694c <_sincos+0x34>
    6932:	2221      	movs	r2, #33	; 0x21
    6934:	4b57      	ldr	r3, [pc, #348]	; (6a94 <_sincos+0x17c>)
    6936:	601a      	str	r2, [r3, #0]
    6938:	2280      	movs	r2, #128	; 0x80
    693a:	0612      	lsls	r2, r2, #24
    693c:	4694      	mov	ip, r2
    693e:	4b56      	ldr	r3, [pc, #344]	; (6a98 <_sincos+0x180>)
    6940:	681d      	ldr	r5, [r3, #0]
    6942:	685b      	ldr	r3, [r3, #4]
    6944:	9300      	str	r3, [sp, #0]
    6946:	4463      	add	r3, ip
    6948:	001c      	movs	r4, r3
    694a:	e09c      	b.n	6a86 <_sincos+0x16e>
    694c:	4a53      	ldr	r2, [pc, #332]	; (6a9c <_sincos+0x184>)
    694e:	4b54      	ldr	r3, [pc, #336]	; (6aa0 <_sincos+0x188>)
    6950:	0020      	movs	r0, r4
    6952:	0029      	movs	r1, r5
    6954:	f000 fc52 	bl	71fc <__aeabi_dadd>
    6958:	4a50      	ldr	r2, [pc, #320]	; (6a9c <_sincos+0x184>)
    695a:	4b52      	ldr	r3, [pc, #328]	; (6aa4 <_sincos+0x18c>)
    695c:	f000 fac4 	bl	6ee8 <__aeabi_ddiv>
    6960:	f000 fd16 	bl	7390 <__aeabi_d2iz>
    6964:	0004      	movs	r4, r0
    6966:	f000 fd7e 	bl	7466 <__aeabi_i2d>
    696a:	0006      	movs	r6, r0
    696c:	000f      	movs	r7, r1
    696e:	07e3      	lsls	r3, r4, #31
    6970:	d502      	bpl.n	6978 <_sincos+0x60>
    6972:	9b08      	ldr	r3, [sp, #32]
    6974:	425b      	negs	r3, r3
    6976:	9308      	str	r3, [sp, #32]
    6978:	9b09      	ldr	r3, [sp, #36]	; 0x24
    697a:	2b00      	cmp	r3, #0
    697c:	d007      	beq.n	698e <_sincos+0x76>
    697e:	0030      	movs	r0, r6
    6980:	0039      	movs	r1, r7
    6982:	2200      	movs	r2, #0
    6984:	4b48      	ldr	r3, [pc, #288]	; (6aa8 <_sincos+0x190>)
    6986:	f000 fb55 	bl	7034 <__aeabi_dsub>
    698a:	0006      	movs	r6, r0
    698c:	000f      	movs	r7, r1
    698e:	2200      	movs	r2, #0
    6990:	4b46      	ldr	r3, [pc, #280]	; (6aac <_sincos+0x194>)
    6992:	0030      	movs	r0, r6
    6994:	0039      	movs	r1, r7
    6996:	f000 f9e9 	bl	6d6c <__aeabi_dmul>
    699a:	0002      	movs	r2, r0
    699c:	000b      	movs	r3, r1
    699e:	9800      	ldr	r0, [sp, #0]
    69a0:	9901      	ldr	r1, [sp, #4]
    69a2:	f000 fb47 	bl	7034 <__aeabi_dsub>
    69a6:	4a42      	ldr	r2, [pc, #264]	; (6ab0 <_sincos+0x198>)
    69a8:	0004      	movs	r4, r0
    69aa:	000d      	movs	r5, r1
    69ac:	4b41      	ldr	r3, [pc, #260]	; (6ab4 <_sincos+0x19c>)
    69ae:	0030      	movs	r0, r6
    69b0:	0039      	movs	r1, r7
    69b2:	f000 f9db 	bl	6d6c <__aeabi_dmul>
    69b6:	0002      	movs	r2, r0
    69b8:	000b      	movs	r3, r1
    69ba:	0020      	movs	r0, r4
    69bc:	0029      	movs	r1, r5
    69be:	f000 fc1d 	bl	71fc <__aeabi_dadd>
    69c2:	0005      	movs	r5, r0
    69c4:	000c      	movs	r4, r1
    69c6:	0028      	movs	r0, r5
    69c8:	0021      	movs	r1, r4
    69ca:	f7ff fcb9 	bl	6340 <fabs>
    69ce:	4a3a      	ldr	r2, [pc, #232]	; (6ab8 <_sincos+0x1a0>)
    69d0:	4b3a      	ldr	r3, [pc, #232]	; (6abc <_sincos+0x1a4>)
    69d2:	f000 fdfb 	bl	75cc <__aeabi_dcmpge>
    69d6:	2800      	cmp	r0, #0
    69d8:	d04f      	beq.n	6a7a <_sincos+0x162>
    69da:	002a      	movs	r2, r5
    69dc:	0023      	movs	r3, r4
    69de:	0028      	movs	r0, r5
    69e0:	0021      	movs	r1, r4
    69e2:	f000 f9c3 	bl	6d6c <__aeabi_dmul>
    69e6:	0006      	movs	r6, r0
    69e8:	000f      	movs	r7, r1
    69ea:	4a35      	ldr	r2, [pc, #212]	; (6ac0 <_sincos+0x1a8>)
    69ec:	4b35      	ldr	r3, [pc, #212]	; (6ac4 <_sincos+0x1ac>)
    69ee:	f000 f9bd 	bl	6d6c <__aeabi_dmul>
    69f2:	4a35      	ldr	r2, [pc, #212]	; (6ac8 <_sincos+0x1b0>)
    69f4:	4b35      	ldr	r3, [pc, #212]	; (6acc <_sincos+0x1b4>)
    69f6:	f000 fb1d 	bl	7034 <__aeabi_dsub>
    69fa:	0032      	movs	r2, r6
    69fc:	003b      	movs	r3, r7
    69fe:	f000 f9b5 	bl	6d6c <__aeabi_dmul>
    6a02:	4a33      	ldr	r2, [pc, #204]	; (6ad0 <_sincos+0x1b8>)
    6a04:	4b33      	ldr	r3, [pc, #204]	; (6ad4 <_sincos+0x1bc>)
    6a06:	f000 fbf9 	bl	71fc <__aeabi_dadd>
    6a0a:	0032      	movs	r2, r6
    6a0c:	003b      	movs	r3, r7
    6a0e:	f000 f9ad 	bl	6d6c <__aeabi_dmul>
    6a12:	4a31      	ldr	r2, [pc, #196]	; (6ad8 <_sincos+0x1c0>)
    6a14:	4b31      	ldr	r3, [pc, #196]	; (6adc <_sincos+0x1c4>)
    6a16:	f000 fb0d 	bl	7034 <__aeabi_dsub>
    6a1a:	0032      	movs	r2, r6
    6a1c:	003b      	movs	r3, r7
    6a1e:	f000 f9a5 	bl	6d6c <__aeabi_dmul>
    6a22:	4a2f      	ldr	r2, [pc, #188]	; (6ae0 <_sincos+0x1c8>)
    6a24:	4b2f      	ldr	r3, [pc, #188]	; (6ae4 <_sincos+0x1cc>)
    6a26:	f000 fbe9 	bl	71fc <__aeabi_dadd>
    6a2a:	0032      	movs	r2, r6
    6a2c:	003b      	movs	r3, r7
    6a2e:	f000 f99d 	bl	6d6c <__aeabi_dmul>
    6a32:	4a2d      	ldr	r2, [pc, #180]	; (6ae8 <_sincos+0x1d0>)
    6a34:	4b2d      	ldr	r3, [pc, #180]	; (6aec <_sincos+0x1d4>)
    6a36:	f000 fafd 	bl	7034 <__aeabi_dsub>
    6a3a:	0032      	movs	r2, r6
    6a3c:	003b      	movs	r3, r7
    6a3e:	f000 f995 	bl	6d6c <__aeabi_dmul>
    6a42:	4a2b      	ldr	r2, [pc, #172]	; (6af0 <_sincos+0x1d8>)
    6a44:	4b2b      	ldr	r3, [pc, #172]	; (6af4 <_sincos+0x1dc>)
    6a46:	f000 fbd9 	bl	71fc <__aeabi_dadd>
    6a4a:	0032      	movs	r2, r6
    6a4c:	003b      	movs	r3, r7
    6a4e:	f000 f98d 	bl	6d6c <__aeabi_dmul>
    6a52:	4a29      	ldr	r2, [pc, #164]	; (6af8 <_sincos+0x1e0>)
    6a54:	4b29      	ldr	r3, [pc, #164]	; (6afc <_sincos+0x1e4>)
    6a56:	f000 faed 	bl	7034 <__aeabi_dsub>
    6a5a:	0032      	movs	r2, r6
    6a5c:	003b      	movs	r3, r7
    6a5e:	f000 f985 	bl	6d6c <__aeabi_dmul>
    6a62:	002a      	movs	r2, r5
    6a64:	0023      	movs	r3, r4
    6a66:	f000 f981 	bl	6d6c <__aeabi_dmul>
    6a6a:	0002      	movs	r2, r0
    6a6c:	000b      	movs	r3, r1
    6a6e:	0028      	movs	r0, r5
    6a70:	0021      	movs	r1, r4
    6a72:	f000 fbc3 	bl	71fc <__aeabi_dadd>
    6a76:	0005      	movs	r5, r0
    6a78:	000c      	movs	r4, r1
    6a7a:	9b08      	ldr	r3, [sp, #32]
    6a7c:	2b00      	cmp	r3, #0
    6a7e:	da02      	bge.n	6a86 <_sincos+0x16e>
    6a80:	2380      	movs	r3, #128	; 0x80
    6a82:	061b      	lsls	r3, r3, #24
    6a84:	18e4      	adds	r4, r4, r3
    6a86:	0028      	movs	r0, r5
    6a88:	0021      	movs	r1, r4
    6a8a:	b003      	add	sp, #12
    6a8c:	bdf0      	pop	{r4, r5, r6, r7, pc}
    6a8e:	46c0      	nop			; (mov r8, r8)
    6a90:	41cdcd65 	.word	0x41cdcd65
    6a94:	10000b08 	.word	0x10000b08
    6a98:	00006910 	.word	0x00006910
    6a9c:	54442d18 	.word	0x54442d18
    6aa0:	3ff921fb 	.word	0x3ff921fb
    6aa4:	400921fb 	.word	0x400921fb
    6aa8:	3fe00000 	.word	0x3fe00000
    6aac:	40092200 	.word	0x40092200
    6ab0:	4b9ee59e 	.word	0x4b9ee59e
    6ab4:	3ee2aeef 	.word	0x3ee2aeef
    6ab8:	d9d7bdbb 	.word	0xd9d7bdbb
    6abc:	3ddb7cdf 	.word	0x3ddb7cdf
    6ac0:	6993df95 	.word	0x6993df95
    6ac4:	3ce880ff 	.word	0x3ce880ff
    6ac8:	dc08499c 	.word	0xdc08499c
    6acc:	3d6ae420 	.word	0x3d6ae420
    6ad0:	686ad430 	.word	0x686ad430
    6ad4:	3de6123c 	.word	0x3de6123c
    6ad8:	4b5dc0ab 	.word	0x4b5dc0ab
    6adc:	3e5ae645 	.word	0x3e5ae645
    6ae0:	a524f063 	.word	0xa524f063
    6ae4:	3ec71de3 	.word	0x3ec71de3
    6ae8:	1a013e1a 	.word	0x1a013e1a
    6aec:	3f2a01a0 	.word	0x3f2a01a0
    6af0:	111110b0 	.word	0x111110b0
    6af4:	3f811111 	.word	0x3f811111
    6af8:	55555555 	.word	0x55555555
    6afc:	3fc55555 	.word	0x3fc55555

00006b00 <atan>:
    6b00:	b5f0      	push	{r4, r5, r6, r7, lr}
    6b02:	b087      	sub	sp, #28
    6b04:	9002      	str	r0, [sp, #8]
    6b06:	9103      	str	r1, [sp, #12]
    6b08:	f7ff fc1a 	bl	6340 <fabs>
    6b0c:	0005      	movs	r5, r0
    6b0e:	000c      	movs	r4, r1
    6b10:	2200      	movs	r2, #0
    6b12:	4b61      	ldr	r3, [pc, #388]	; (6c98 <atan+0x198>)
    6b14:	0028      	movs	r0, r5
    6b16:	0021      	movs	r1, r4
    6b18:	f000 fcfc 	bl	7514 <__aeabi_dcmpgt>
    6b1c:	2800      	cmp	r0, #0
    6b1e:	d00a      	beq.n	6b36 <atan+0x36>
    6b20:	0023      	movs	r3, r4
    6b22:	002a      	movs	r2, r5
    6b24:	2000      	movs	r0, #0
    6b26:	495c      	ldr	r1, [pc, #368]	; (6c98 <atan+0x198>)
    6b28:	f000 f9de 	bl	6ee8 <__aeabi_ddiv>
    6b2c:	2302      	movs	r3, #2
    6b2e:	0005      	movs	r5, r0
    6b30:	000c      	movs	r4, r1
    6b32:	9301      	str	r3, [sp, #4]
    6b34:	e000      	b.n	6b38 <atan+0x38>
    6b36:	9001      	str	r0, [sp, #4]
    6b38:	4a58      	ldr	r2, [pc, #352]	; (6c9c <atan+0x19c>)
    6b3a:	4b59      	ldr	r3, [pc, #356]	; (6ca0 <atan+0x1a0>)
    6b3c:	0028      	movs	r0, r5
    6b3e:	0021      	movs	r1, r4
    6b40:	f000 fce8 	bl	7514 <__aeabi_dcmpgt>
    6b44:	2800      	cmp	r0, #0
    6b46:	d024      	beq.n	6b92 <atan+0x92>
    6b48:	4a56      	ldr	r2, [pc, #344]	; (6ca4 <atan+0x1a4>)
    6b4a:	4b57      	ldr	r3, [pc, #348]	; (6ca8 <atan+0x1a8>)
    6b4c:	0028      	movs	r0, r5
    6b4e:	0021      	movs	r1, r4
    6b50:	f000 f90c 	bl	6d6c <__aeabi_dmul>
    6b54:	2200      	movs	r2, #0
    6b56:	4b55      	ldr	r3, [pc, #340]	; (6cac <atan+0x1ac>)
    6b58:	f000 fa6c 	bl	7034 <__aeabi_dsub>
    6b5c:	2200      	movs	r2, #0
    6b5e:	4b53      	ldr	r3, [pc, #332]	; (6cac <atan+0x1ac>)
    6b60:	f000 fa68 	bl	7034 <__aeabi_dsub>
    6b64:	002a      	movs	r2, r5
    6b66:	0023      	movs	r3, r4
    6b68:	f000 fb48 	bl	71fc <__aeabi_dadd>
    6b6c:	4a50      	ldr	r2, [pc, #320]	; (6cb0 <atan+0x1b0>)
    6b6e:	0006      	movs	r6, r0
    6b70:	000f      	movs	r7, r1
    6b72:	4b50      	ldr	r3, [pc, #320]	; (6cb4 <atan+0x1b4>)
    6b74:	0028      	movs	r0, r5
    6b76:	0021      	movs	r1, r4
    6b78:	f000 fb40 	bl	71fc <__aeabi_dadd>
    6b7c:	000b      	movs	r3, r1
    6b7e:	0002      	movs	r2, r0
    6b80:	0039      	movs	r1, r7
    6b82:	0030      	movs	r0, r6
    6b84:	f000 f9b0 	bl	6ee8 <__aeabi_ddiv>
    6b88:	0005      	movs	r5, r0
    6b8a:	000c      	movs	r4, r1
    6b8c:	9b01      	ldr	r3, [sp, #4]
    6b8e:	3301      	adds	r3, #1
    6b90:	9301      	str	r3, [sp, #4]
    6b92:	0028      	movs	r0, r5
    6b94:	0021      	movs	r1, r4
    6b96:	f7ff fbd3 	bl	6340 <fabs>
    6b9a:	4a47      	ldr	r2, [pc, #284]	; (6cb8 <atan+0x1b8>)
    6b9c:	4b47      	ldr	r3, [pc, #284]	; (6cbc <atan+0x1bc>)
    6b9e:	f000 fcb9 	bl	7514 <__aeabi_dcmpgt>
    6ba2:	2800      	cmp	r0, #0
    6ba4:	d055      	beq.n	6c52 <atan+0x152>
    6ba6:	002a      	movs	r2, r5
    6ba8:	0023      	movs	r3, r4
    6baa:	0028      	movs	r0, r5
    6bac:	0021      	movs	r1, r4
    6bae:	f000 f8dd 	bl	6d6c <__aeabi_dmul>
    6bb2:	0006      	movs	r6, r0
    6bb4:	000f      	movs	r7, r1
    6bb6:	4a42      	ldr	r2, [pc, #264]	; (6cc0 <atan+0x1c0>)
    6bb8:	4b42      	ldr	r3, [pc, #264]	; (6cc4 <atan+0x1c4>)
    6bba:	f000 f8d7 	bl	6d6c <__aeabi_dmul>
    6bbe:	4a42      	ldr	r2, [pc, #264]	; (6cc8 <atan+0x1c8>)
    6bc0:	4b42      	ldr	r3, [pc, #264]	; (6ccc <atan+0x1cc>)
    6bc2:	f000 fa37 	bl	7034 <__aeabi_dsub>
    6bc6:	0032      	movs	r2, r6
    6bc8:	003b      	movs	r3, r7
    6bca:	f000 f8cf 	bl	6d6c <__aeabi_dmul>
    6bce:	4a40      	ldr	r2, [pc, #256]	; (6cd0 <atan+0x1d0>)
    6bd0:	4b40      	ldr	r3, [pc, #256]	; (6cd4 <atan+0x1d4>)
    6bd2:	f000 fa2f 	bl	7034 <__aeabi_dsub>
    6bd6:	0032      	movs	r2, r6
    6bd8:	003b      	movs	r3, r7
    6bda:	f000 f8c7 	bl	6d6c <__aeabi_dmul>
    6bde:	4a3e      	ldr	r2, [pc, #248]	; (6cd8 <atan+0x1d8>)
    6be0:	4b3e      	ldr	r3, [pc, #248]	; (6cdc <atan+0x1dc>)
    6be2:	f000 fa27 	bl	7034 <__aeabi_dsub>
    6be6:	0032      	movs	r2, r6
    6be8:	003b      	movs	r3, r7
    6bea:	f000 f8bf 	bl	6d6c <__aeabi_dmul>
    6bee:	4a3c      	ldr	r2, [pc, #240]	; (6ce0 <atan+0x1e0>)
    6bf0:	9004      	str	r0, [sp, #16]
    6bf2:	9105      	str	r1, [sp, #20]
    6bf4:	4b3b      	ldr	r3, [pc, #236]	; (6ce4 <atan+0x1e4>)
    6bf6:	0030      	movs	r0, r6
    6bf8:	0039      	movs	r1, r7
    6bfa:	f000 faff 	bl	71fc <__aeabi_dadd>
    6bfe:	0032      	movs	r2, r6
    6c00:	003b      	movs	r3, r7
    6c02:	f000 f8b3 	bl	6d6c <__aeabi_dmul>
    6c06:	4a38      	ldr	r2, [pc, #224]	; (6ce8 <atan+0x1e8>)
    6c08:	4b38      	ldr	r3, [pc, #224]	; (6cec <atan+0x1ec>)
    6c0a:	f000 faf7 	bl	71fc <__aeabi_dadd>
    6c0e:	0032      	movs	r2, r6
    6c10:	003b      	movs	r3, r7
    6c12:	f000 f8ab 	bl	6d6c <__aeabi_dmul>
    6c16:	4a36      	ldr	r2, [pc, #216]	; (6cf0 <atan+0x1f0>)
    6c18:	4b36      	ldr	r3, [pc, #216]	; (6cf4 <atan+0x1f4>)
    6c1a:	f000 faef 	bl	71fc <__aeabi_dadd>
    6c1e:	0032      	movs	r2, r6
    6c20:	003b      	movs	r3, r7
    6c22:	f000 f8a3 	bl	6d6c <__aeabi_dmul>
    6c26:	4a34      	ldr	r2, [pc, #208]	; (6cf8 <atan+0x1f8>)
    6c28:	4b34      	ldr	r3, [pc, #208]	; (6cfc <atan+0x1fc>)
    6c2a:	f000 fae7 	bl	71fc <__aeabi_dadd>
    6c2e:	0002      	movs	r2, r0
    6c30:	000b      	movs	r3, r1
    6c32:	9804      	ldr	r0, [sp, #16]
    6c34:	9905      	ldr	r1, [sp, #20]
    6c36:	f000 f957 	bl	6ee8 <__aeabi_ddiv>
    6c3a:	002a      	movs	r2, r5
    6c3c:	0023      	movs	r3, r4
    6c3e:	f000 f895 	bl	6d6c <__aeabi_dmul>
    6c42:	0002      	movs	r2, r0
    6c44:	000b      	movs	r3, r1
    6c46:	0028      	movs	r0, r5
    6c48:	0021      	movs	r1, r4
    6c4a:	f000 fad7 	bl	71fc <__aeabi_dadd>
    6c4e:	0005      	movs	r5, r0
    6c50:	000c      	movs	r4, r1
    6c52:	9b01      	ldr	r3, [sp, #4]
    6c54:	2b01      	cmp	r3, #1
    6c56:	dd02      	ble.n	6c5e <atan+0x15e>
    6c58:	2380      	movs	r3, #128	; 0x80
    6c5a:	061b      	lsls	r3, r3, #24
    6c5c:	18e4      	adds	r4, r4, r3
    6c5e:	9b01      	ldr	r3, [sp, #4]
    6c60:	0021      	movs	r1, r4
    6c62:	00d8      	lsls	r0, r3, #3
    6c64:	4b26      	ldr	r3, [pc, #152]	; (6d00 <atan+0x200>)
    6c66:	1818      	adds	r0, r3, r0
    6c68:	6802      	ldr	r2, [r0, #0]
    6c6a:	6843      	ldr	r3, [r0, #4]
    6c6c:	0028      	movs	r0, r5
    6c6e:	f000 fac5 	bl	71fc <__aeabi_dadd>
    6c72:	2300      	movs	r3, #0
    6c74:	000c      	movs	r4, r1
    6c76:	0005      	movs	r5, r0
    6c78:	000e      	movs	r6, r1
    6c7a:	9802      	ldr	r0, [sp, #8]
    6c7c:	9903      	ldr	r1, [sp, #12]
    6c7e:	2200      	movs	r2, #0
    6c80:	f000 fc1a 	bl	74b8 <__aeabi_dcmplt>
    6c84:	2380      	movs	r3, #128	; 0x80
    6c86:	061b      	lsls	r3, r3, #24
    6c88:	18e4      	adds	r4, r4, r3
    6c8a:	2800      	cmp	r0, #0
    6c8c:	d100      	bne.n	6c90 <atan+0x190>
    6c8e:	0034      	movs	r4, r6
    6c90:	0028      	movs	r0, r5
    6c92:	0021      	movs	r1, r4
    6c94:	b007      	add	sp, #28
    6c96:	bdf0      	pop	{r4, r5, r6, r7, pc}
    6c98:	3ff00000 	.word	0x3ff00000
    6c9c:	5e9ecd56 	.word	0x5e9ecd56
    6ca0:	3fd12614 	.word	0x3fd12614
    6ca4:	d0b09955 	.word	0xd0b09955
    6ca8:	3fe76cf5 	.word	0x3fe76cf5
    6cac:	3fe00000 	.word	0x3fe00000
    6cb0:	e8584caa 	.word	0xe8584caa
    6cb4:	3ffbb67a 	.word	0x3ffbb67a
    6cb8:	d9d7bdbb 	.word	0xd9d7bdbb
    6cbc:	3ddb7cdf 	.word	0x3ddb7cdf
    6cc0:	d9b187bd 	.word	0xd9b187bd
    6cc4:	bfeacd7a 	.word	0xbfeacd7a
    6cc8:	5c8d6a63 	.word	0x5c8d6a63
    6ccc:	4020fd3f 	.word	0x4020fd3f
    6cd0:	b9e2bccb 	.word	0xb9e2bccb
    6cd4:	4034817f 	.word	0x4034817f
    6cd8:	51061ce2 	.word	0x51061ce2
    6cdc:	402b60a6 	.word	0x402b60a6
    6ce0:	e14ac710 	.word	0xe14ac710
    6ce4:	402e0c49 	.word	0x402e0c49
    6ce8:	320da3d7 	.word	0x320da3d7
    6cec:	404dca0a 	.word	0x404dca0a
    6cf0:	040b6da5 	.word	0x040b6da5
    6cf4:	40558a12 	.word	0x40558a12
    6cf8:	bcc495a9 	.word	0xbcc495a9
    6cfc:	4044887c 	.word	0x4044887c
    6d00:	00006d08 	.word	0x00006d08
    6d04:	ffffffff 	.word	0xffffffff

00006d08 <a.3983>:
	...
    6d10:	382d7365 3fe0c152 54442d18 3ff921fb     es-8R..?.-DT.!.?
    6d20:	382d7366 3ff0c152                       fs-8R..?

00006d28 <strcspn>:
    6d28:	0003      	movs	r3, r0
    6d2a:	b530      	push	{r4, r5, lr}
    6d2c:	781d      	ldrb	r5, [r3, #0]
    6d2e:	2d00      	cmp	r5, #0
    6d30:	d001      	beq.n	6d36 <strcspn+0xe>
    6d32:	000a      	movs	r2, r1
    6d34:	e004      	b.n	6d40 <strcspn+0x18>
    6d36:	1a18      	subs	r0, r3, r0
    6d38:	bd30      	pop	{r4, r5, pc}
    6d3a:	42a5      	cmp	r5, r4
    6d3c:	d0fb      	beq.n	6d36 <strcspn+0xe>
    6d3e:	3201      	adds	r2, #1
    6d40:	7814      	ldrb	r4, [r2, #0]
    6d42:	2c00      	cmp	r4, #0
    6d44:	d1f9      	bne.n	6d3a <strcspn+0x12>
    6d46:	3301      	adds	r3, #1
    6d48:	e7f0      	b.n	6d2c <strcspn+0x4>

00006d4a <strspn>:
    6d4a:	0003      	movs	r3, r0
    6d4c:	b530      	push	{r4, r5, lr}
    6d4e:	781c      	ldrb	r4, [r3, #0]
    6d50:	2c00      	cmp	r4, #0
    6d52:	d003      	beq.n	6d5c <strspn+0x12>
    6d54:	000a      	movs	r2, r1
    6d56:	7815      	ldrb	r5, [r2, #0]
    6d58:	2d00      	cmp	r5, #0
    6d5a:	d101      	bne.n	6d60 <strspn+0x16>
    6d5c:	1a18      	subs	r0, r3, r0
    6d5e:	bd30      	pop	{r4, r5, pc}
    6d60:	42ac      	cmp	r4, r5
    6d62:	d001      	beq.n	6d68 <strspn+0x1e>
    6d64:	3201      	adds	r2, #1
    6d66:	e7f6      	b.n	6d56 <strspn+0xc>
    6d68:	3301      	adds	r3, #1
    6d6a:	e7f0      	b.n	6d4e <strspn+0x4>

00006d6c <__aeabi_dmul>:
    6d6c:	b5f0      	push	{r4, r5, r6, r7, lr}
    6d6e:	0016      	movs	r6, r2
    6d70:	001a      	movs	r2, r3
    6d72:	004c      	lsls	r4, r1, #1
    6d74:	b089      	sub	sp, #36	; 0x24
    6d76:	0007      	movs	r7, r0
    6d78:	0d64      	lsrs	r4, r4, #21
    6d7a:	404a      	eors	r2, r1
    6d7c:	2c00      	cmp	r4, #0
    6d7e:	d100      	bne.n	6d82 <__aeabi_dmul+0x16>
    6d80:	e07e      	b.n	6e80 <__aeabi_dmul+0x114>
    6d82:	4d50      	ldr	r5, [pc, #320]	; (6ec4 <__aeabi_dmul+0x158>)
    6d84:	42ac      	cmp	r4, r5
    6d86:	d07b      	beq.n	6e80 <__aeabi_dmul+0x114>
    6d88:	0058      	lsls	r0, r3, #1
    6d8a:	0d40      	lsrs	r0, r0, #21
    6d8c:	d078      	beq.n	6e80 <__aeabi_dmul+0x114>
    6d8e:	42a8      	cmp	r0, r5
    6d90:	d076      	beq.n	6e80 <__aeabi_dmul+0x114>
    6d92:	1820      	adds	r0, r4, r0
    6d94:	2480      	movs	r4, #128	; 0x80
    6d96:	0fd2      	lsrs	r2, r2, #31
    6d98:	07d2      	lsls	r2, r2, #31
    6d9a:	9201      	str	r2, [sp, #4]
    6d9c:	2580      	movs	r5, #128	; 0x80
    6d9e:	0d72      	lsrs	r2, r6, #21
    6da0:	02db      	lsls	r3, r3, #11
    6da2:	4313      	orrs	r3, r2
    6da4:	0624      	lsls	r4, r4, #24
    6da6:	431c      	orrs	r4, r3
    6da8:	2300      	movs	r3, #0
    6daa:	0309      	lsls	r1, r1, #12
    6dac:	0b09      	lsrs	r1, r1, #12
    6dae:	036d      	lsls	r5, r5, #13
    6db0:	430d      	orrs	r5, r1
    6db2:	0022      	movs	r2, r4
    6db4:	9006      	str	r0, [sp, #24]
    6db6:	0019      	movs	r1, r3
    6db8:	0028      	movs	r0, r5
    6dba:	f000 fc37 	bl	762c <__aeabi_lmul>
    6dbe:	2300      	movs	r3, #0
    6dc0:	02f6      	lsls	r6, r6, #11
    6dc2:	9002      	str	r0, [sp, #8]
    6dc4:	9103      	str	r1, [sp, #12]
    6dc6:	0032      	movs	r2, r6
    6dc8:	0028      	movs	r0, r5
    6dca:	0019      	movs	r1, r3
    6dcc:	f000 fc2e 	bl	762c <__aeabi_lmul>
    6dd0:	2300      	movs	r3, #0
    6dd2:	0005      	movs	r5, r0
    6dd4:	003a      	movs	r2, r7
    6dd6:	9107      	str	r1, [sp, #28]
    6dd8:	0020      	movs	r0, r4
    6dda:	0019      	movs	r1, r3
    6ddc:	f000 fc26 	bl	762c <__aeabi_lmul>
    6de0:	2300      	movs	r3, #0
    6de2:	9004      	str	r0, [sp, #16]
    6de4:	9105      	str	r1, [sp, #20]
    6de6:	003a      	movs	r2, r7
    6de8:	0030      	movs	r0, r6
    6dea:	0019      	movs	r1, r3
    6dec:	f000 fc1e 	bl	762c <__aeabi_lmul>
    6df0:	000b      	movs	r3, r1
    6df2:	2100      	movs	r1, #0
    6df4:	4684      	mov	ip, r0
    6df6:	001c      	movs	r4, r3
    6df8:	9a04      	ldr	r2, [sp, #16]
    6dfa:	9b05      	ldr	r3, [sp, #20]
    6dfc:	0028      	movs	r0, r5
    6dfe:	000d      	movs	r5, r1
    6e00:	1824      	adds	r4, r4, r0
    6e02:	414d      	adcs	r5, r1
    6e04:	18a4      	adds	r4, r4, r2
    6e06:	415d      	adcs	r5, r3
    6e08:	000f      	movs	r7, r1
    6e0a:	000b      	movs	r3, r1
    6e0c:	9802      	ldr	r0, [sp, #8]
    6e0e:	9903      	ldr	r1, [sp, #12]
    6e10:	002a      	movs	r2, r5
    6e12:	9e07      	ldr	r6, [sp, #28]
    6e14:	1992      	adds	r2, r2, r6
    6e16:	417b      	adcs	r3, r7
    6e18:	1812      	adds	r2, r2, r0
    6e1a:	414b      	adcs	r3, r1
    6e1c:	4661      	mov	r1, ip
    6e1e:	0888      	lsrs	r0, r1, #2
    6e20:	4304      	orrs	r4, r0
    6e22:	9906      	ldr	r1, [sp, #24]
    6e24:	4828      	ldr	r0, [pc, #160]	; (6ec8 <__aeabi_dmul+0x15c>)
    6e26:	1809      	adds	r1, r1, r0
    6e28:	4828      	ldr	r0, [pc, #160]	; (6ecc <__aeabi_dmul+0x160>)
    6e2a:	4298      	cmp	r0, r3
    6e2c:	d30c      	bcc.n	6e48 <__aeabi_dmul+0xdc>
    6e2e:	0016      	movs	r6, r2
    6e30:	001f      	movs	r7, r3
    6e32:	18b6      	adds	r6, r6, r2
    6e34:	415f      	adcs	r7, r3
    6e36:	4826      	ldr	r0, [pc, #152]	; (6ed0 <__aeabi_dmul+0x164>)
    6e38:	003b      	movs	r3, r7
    6e3a:	4684      	mov	ip, r0
    6e3c:	0fe0      	lsrs	r0, r4, #31
    6e3e:	4330      	orrs	r0, r6
    6e40:	0002      	movs	r2, r0
    6e42:	9906      	ldr	r1, [sp, #24]
    6e44:	0064      	lsls	r4, r4, #1
    6e46:	4461      	add	r1, ip
    6e48:	2700      	movs	r7, #0
    6e4a:	0fe6      	lsrs	r6, r4, #31
    6e4c:	1992      	adds	r2, r2, r6
    6e4e:	417b      	adcs	r3, r7
    6e50:	2080      	movs	r0, #128	; 0x80
    6e52:	0015      	movs	r5, r2
    6e54:	0600      	lsls	r0, r0, #24
    6e56:	4284      	cmp	r4, r0
    6e58:	d101      	bne.n	6e5e <__aeabi_dmul+0xf2>
    6e5a:	2001      	movs	r0, #1
    6e5c:	4385      	bics	r5, r0
    6e5e:	481d      	ldr	r0, [pc, #116]	; (6ed4 <__aeabi_dmul+0x168>)
    6e60:	4281      	cmp	r1, r0
    6e62:	d805      	bhi.n	6e70 <__aeabi_dmul+0x104>
    6e64:	9801      	ldr	r0, [sp, #4]
    6e66:	4318      	orrs	r0, r3
    6e68:	050b      	lsls	r3, r1, #20
    6e6a:	18c1      	adds	r1, r0, r3
    6e6c:	0028      	movs	r0, r5
    6e6e:	e027      	b.n	6ec0 <__aeabi_dmul+0x154>
    6e70:	9b01      	ldr	r3, [sp, #4]
    6e72:	2900      	cmp	r1, #0
    6e74:	db02      	blt.n	6e7c <__aeabi_dmul+0x110>
    6e76:	4b18      	ldr	r3, [pc, #96]	; (6ed8 <__aeabi_dmul+0x16c>)
    6e78:	9a01      	ldr	r2, [sp, #4]
    6e7a:	4313      	orrs	r3, r2
    6e7c:	2000      	movs	r0, #0
    6e7e:	e01e      	b.n	6ebe <__aeabi_dmul+0x152>
    6e80:	4816      	ldr	r0, [pc, #88]	; (6edc <__aeabi_dmul+0x170>)
    6e82:	0fd2      	lsrs	r2, r2, #31
    6e84:	07d2      	lsls	r2, r2, #31
    6e86:	0049      	lsls	r1, r1, #1
    6e88:	4281      	cmp	r1, r0
    6e8a:	d805      	bhi.n	6e98 <__aeabi_dmul+0x12c>
    6e8c:	005c      	lsls	r4, r3, #1
    6e8e:	4284      	cmp	r4, r0
    6e90:	d805      	bhi.n	6e9e <__aeabi_dmul+0x132>
    6e92:	2000      	movs	r0, #0
    6e94:	0011      	movs	r1, r2
    6e96:	e013      	b.n	6ec0 <__aeabi_dmul+0x154>
    6e98:	4811      	ldr	r0, [pc, #68]	; (6ee0 <__aeabi_dmul+0x174>)
    6e9a:	4281      	cmp	r1, r0
    6e9c:	d103      	bne.n	6ea6 <__aeabi_dmul+0x13a>
    6e9e:	4810      	ldr	r0, [pc, #64]	; (6ee0 <__aeabi_dmul+0x174>)
    6ea0:	005b      	lsls	r3, r3, #1
    6ea2:	4283      	cmp	r3, r0
    6ea4:	d901      	bls.n	6eaa <__aeabi_dmul+0x13e>
    6ea6:	2000      	movs	r0, #0
    6ea8:	e005      	b.n	6eb6 <__aeabi_dmul+0x14a>
    6eaa:	0d49      	lsrs	r1, r1, #21
    6eac:	2000      	movs	r0, #0
    6eae:	2900      	cmp	r1, #0
    6eb0:	d001      	beq.n	6eb6 <__aeabi_dmul+0x14a>
    6eb2:	0d5b      	lsrs	r3, r3, #21
    6eb4:	d101      	bne.n	6eba <__aeabi_dmul+0x14e>
    6eb6:	490b      	ldr	r1, [pc, #44]	; (6ee4 <__aeabi_dmul+0x178>)
    6eb8:	e002      	b.n	6ec0 <__aeabi_dmul+0x154>
    6eba:	4b07      	ldr	r3, [pc, #28]	; (6ed8 <__aeabi_dmul+0x16c>)
    6ebc:	4313      	orrs	r3, r2
    6ebe:	0019      	movs	r1, r3
    6ec0:	b009      	add	sp, #36	; 0x24
    6ec2:	bdf0      	pop	{r4, r5, r6, r7, pc}
    6ec4:	000007ff 	.word	0x000007ff
    6ec8:	fffffc01 	.word	0xfffffc01
    6ecc:	000fffff 	.word	0x000fffff
    6ed0:	fffffc00 	.word	0xfffffc00
    6ed4:	000007fd 	.word	0x000007fd
    6ed8:	7ff00000 	.word	0x7ff00000
    6edc:	ffdfffff 	.word	0xffdfffff
    6ee0:	ffe00000 	.word	0xffe00000
    6ee4:	7ff80000 	.word	0x7ff80000

00006ee8 <__aeabi_ddiv>:
    6ee8:	b5f7      	push	{r0, r1, r2, r4, r5, r6, r7, lr}
    6eea:	004f      	lsls	r7, r1, #1
    6eec:	0d7d      	lsrs	r5, r7, #21
    6eee:	d064      	beq.n	6fba <__aeabi_ddiv+0xd2>
    6ef0:	4c49      	ldr	r4, [pc, #292]	; (7018 <__aeabi_ddiv+0x130>)
    6ef2:	46a4      	mov	ip, r4
    6ef4:	42a5      	cmp	r5, r4
    6ef6:	d060      	beq.n	6fba <__aeabi_ddiv+0xd2>
    6ef8:	005f      	lsls	r7, r3, #1
    6efa:	0d7c      	lsrs	r4, r7, #21
    6efc:	d05d      	beq.n	6fba <__aeabi_ddiv+0xd2>
    6efe:	4564      	cmp	r4, ip
    6f00:	d05b      	beq.n	6fba <__aeabi_ddiv+0xd2>
    6f02:	1b2f      	subs	r7, r5, r4
    6f04:	001c      	movs	r4, r3
    6f06:	404c      	eors	r4, r1
    6f08:	9401      	str	r4, [sp, #4]
    6f0a:	02c9      	lsls	r1, r1, #11
    6f0c:	0d44      	lsrs	r4, r0, #21
    6f0e:	4321      	orrs	r1, r4
    6f10:	2480      	movs	r4, #128	; 0x80
    6f12:	0624      	lsls	r4, r4, #24
    6f14:	46a4      	mov	ip, r4
    6f16:	02c4      	lsls	r4, r0, #11
    6f18:	4660      	mov	r0, ip
    6f1a:	4308      	orrs	r0, r1
    6f1c:	4661      	mov	r1, ip
    6f1e:	0005      	movs	r5, r0
    6f20:	02db      	lsls	r3, r3, #11
    6f22:	0d50      	lsrs	r0, r2, #21
    6f24:	4303      	orrs	r3, r0
    6f26:	430b      	orrs	r3, r1
    6f28:	02d2      	lsls	r2, r2, #11
    6f2a:	42ab      	cmp	r3, r5
    6f2c:	d802      	bhi.n	6f34 <__aeabi_ddiv+0x4c>
    6f2e:	d103      	bne.n	6f38 <__aeabi_ddiv+0x50>
    6f30:	42a2      	cmp	r2, r4
    6f32:	d901      	bls.n	6f38 <__aeabi_ddiv+0x50>
    6f34:	4939      	ldr	r1, [pc, #228]	; (701c <__aeabi_ddiv+0x134>)
    6f36:	e008      	b.n	6f4a <__aeabi_ddiv+0x62>
    6f38:	07e9      	lsls	r1, r5, #31
    6f3a:	468c      	mov	ip, r1
    6f3c:	4666      	mov	r6, ip
    6f3e:	0860      	lsrs	r0, r4, #1
    6f40:	4306      	orrs	r6, r0
    6f42:	0034      	movs	r4, r6
    6f44:	0869      	lsrs	r1, r5, #1
    6f46:	000d      	movs	r5, r1
    6f48:	4935      	ldr	r1, [pc, #212]	; (7020 <__aeabi_ddiv+0x138>)
    6f4a:	0850      	lsrs	r0, r2, #1
    6f4c:	187f      	adds	r7, r7, r1
    6f4e:	07d9      	lsls	r1, r3, #31
    6f50:	4308      	orrs	r0, r1
    6f52:	2235      	movs	r2, #53	; 0x35
    6f54:	0859      	lsrs	r1, r3, #1
    6f56:	2300      	movs	r3, #0
    6f58:	005b      	lsls	r3, r3, #1
    6f5a:	42a9      	cmp	r1, r5
    6f5c:	d806      	bhi.n	6f6c <__aeabi_ddiv+0x84>
    6f5e:	d101      	bne.n	6f64 <__aeabi_ddiv+0x7c>
    6f60:	42a0      	cmp	r0, r4
    6f62:	d803      	bhi.n	6f6c <__aeabi_ddiv+0x84>
    6f64:	2601      	movs	r6, #1
    6f66:	1a24      	subs	r4, r4, r0
    6f68:	418d      	sbcs	r5, r1
    6f6a:	4333      	orrs	r3, r6
    6f6c:	1924      	adds	r4, r4, r4
    6f6e:	416d      	adcs	r5, r5
    6f70:	1e56      	subs	r6, r2, #1
    6f72:	2a21      	cmp	r2, #33	; 0x21
    6f74:	d102      	bne.n	6f7c <__aeabi_ddiv+0x94>
    6f76:	9300      	str	r3, [sp, #0]
    6f78:	0032      	movs	r2, r6
    6f7a:	e7ed      	b.n	6f58 <__aeabi_ddiv+0x70>
    6f7c:	1e32      	subs	r2, r6, #0
    6f7e:	d1eb      	bne.n	6f58 <__aeabi_ddiv+0x70>
    6f80:	42a9      	cmp	r1, r5
    6f82:	d808      	bhi.n	6f96 <__aeabi_ddiv+0xae>
    6f84:	d101      	bne.n	6f8a <__aeabi_ddiv+0xa2>
    6f86:	42a0      	cmp	r0, r4
    6f88:	d805      	bhi.n	6f96 <__aeabi_ddiv+0xae>
    6f8a:	3301      	adds	r3, #1
    6f8c:	425a      	negs	r2, r3
    6f8e:	415a      	adcs	r2, r3
    6f90:	9900      	ldr	r1, [sp, #0]
    6f92:	188a      	adds	r2, r1, r2
    6f94:	9200      	str	r2, [sp, #0]
    6f96:	9a01      	ldr	r2, [sp, #4]
    6f98:	4922      	ldr	r1, [pc, #136]	; (7024 <__aeabi_ddiv+0x13c>)
    6f9a:	0fd2      	lsrs	r2, r2, #31
    6f9c:	07d2      	lsls	r2, r2, #31
    6f9e:	428f      	cmp	r7, r1
    6fa0:	d805      	bhi.n	6fae <__aeabi_ddiv+0xc6>
    6fa2:	053f      	lsls	r7, r7, #20
    6fa4:	9c00      	ldr	r4, [sp, #0]
    6fa6:	18ba      	adds	r2, r7, r2
    6fa8:	1911      	adds	r1, r2, r4
    6faa:	0018      	movs	r0, r3
    6fac:	e032      	b.n	7014 <__aeabi_ddiv+0x12c>
    6fae:	0013      	movs	r3, r2
    6fb0:	2f00      	cmp	r7, #0
    6fb2:	db2a      	blt.n	700a <__aeabi_ddiv+0x122>
    6fb4:	4b1c      	ldr	r3, [pc, #112]	; (7028 <__aeabi_ddiv+0x140>)
    6fb6:	4313      	orrs	r3, r2
    6fb8:	e027      	b.n	700a <__aeabi_ddiv+0x122>
    6fba:	4d1c      	ldr	r5, [pc, #112]	; (702c <__aeabi_ddiv+0x144>)
    6fbc:	004c      	lsls	r4, r1, #1
    6fbe:	42ac      	cmp	r4, r5
    6fc0:	d826      	bhi.n	7010 <__aeabi_ddiv+0x128>
    6fc2:	0058      	lsls	r0, r3, #1
    6fc4:	42a8      	cmp	r0, r5
    6fc6:	d823      	bhi.n	7010 <__aeabi_ddiv+0x128>
    6fc8:	001a      	movs	r2, r3
    6fca:	430a      	orrs	r2, r1
    6fcc:	0052      	lsls	r2, r2, #1
    6fce:	0d52      	lsrs	r2, r2, #21
    6fd0:	0552      	lsls	r2, r2, #21
    6fd2:	d101      	bne.n	6fd8 <__aeabi_ddiv+0xf0>
    6fd4:	4916      	ldr	r1, [pc, #88]	; (7030 <__aeabi_ddiv+0x148>)
    6fd6:	e006      	b.n	6fe6 <__aeabi_ddiv+0xfe>
    6fd8:	404b      	eors	r3, r1
    6fda:	0fdb      	lsrs	r3, r3, #31
    6fdc:	0d62      	lsrs	r2, r4, #21
    6fde:	07db      	lsls	r3, r3, #31
    6fe0:	0552      	lsls	r2, r2, #21
    6fe2:	d102      	bne.n	6fea <__aeabi_ddiv+0x102>
    6fe4:	0019      	movs	r1, r3
    6fe6:	0010      	movs	r0, r2
    6fe8:	e014      	b.n	7014 <__aeabi_ddiv+0x12c>
    6fea:	0d42      	lsrs	r2, r0, #21
    6fec:	0552      	lsls	r2, r2, #21
    6fee:	d103      	bne.n	6ff8 <__aeabi_ddiv+0x110>
    6ff0:	4c0d      	ldr	r4, [pc, #52]	; (7028 <__aeabi_ddiv+0x140>)
    6ff2:	431c      	orrs	r4, r3
    6ff4:	0021      	movs	r1, r4
    6ff6:	e7f6      	b.n	6fe6 <__aeabi_ddiv+0xfe>
    6ff8:	42a8      	cmp	r0, r5
    6ffa:	d004      	beq.n	7006 <__aeabi_ddiv+0x11e>
    6ffc:	4a0a      	ldr	r2, [pc, #40]	; (7028 <__aeabi_ddiv+0x140>)
    6ffe:	2000      	movs	r0, #0
    7000:	431a      	orrs	r2, r3
    7002:	0011      	movs	r1, r2
    7004:	e006      	b.n	7014 <__aeabi_ddiv+0x12c>
    7006:	4284      	cmp	r4, r0
    7008:	d002      	beq.n	7010 <__aeabi_ddiv+0x128>
    700a:	2000      	movs	r0, #0
    700c:	0019      	movs	r1, r3
    700e:	e001      	b.n	7014 <__aeabi_ddiv+0x12c>
    7010:	2000      	movs	r0, #0
    7012:	4907      	ldr	r1, [pc, #28]	; (7030 <__aeabi_ddiv+0x148>)
    7014:	b003      	add	sp, #12
    7016:	bdf0      	pop	{r4, r5, r6, r7, pc}
    7018:	000007ff 	.word	0x000007ff
    701c:	000003fd 	.word	0x000003fd
    7020:	000003fe 	.word	0x000003fe
    7024:	000007fd 	.word	0x000007fd
    7028:	7ff00000 	.word	0x7ff00000
    702c:	ffe00000 	.word	0xffe00000
    7030:	7ff80000 	.word	0x7ff80000

00007034 <__aeabi_dsub>:
    7034:	b5f8      	push	{r3, r4, r5, r6, r7, lr}
    7036:	4694      	mov	ip, r2
    7038:	000e      	movs	r6, r1
    703a:	001f      	movs	r7, r3
    703c:	000d      	movs	r5, r1
    703e:	001a      	movs	r2, r3
    7040:	0004      	movs	r4, r0
    7042:	4661      	mov	r1, ip
    7044:	4073      	eors	r3, r6
    7046:	d507      	bpl.n	7058 <__aeabi_dsub+0x24>
    7048:	2480      	movs	r4, #128	; 0x80
    704a:	0624      	lsls	r4, r4, #24
    704c:	193b      	adds	r3, r7, r4
    704e:	4662      	mov	r2, ip
    7050:	0031      	movs	r1, r6
    7052:	f000 f8d3 	bl	71fc <__aeabi_dadd>
    7056:	e0c8      	b.n	71ea <__aeabi_dsub+0x1b6>
    7058:	42be      	cmp	r6, r7
    705a:	d303      	bcc.n	7064 <__aeabi_dsub+0x30>
    705c:	4560      	cmp	r0, ip
    705e:	d80d      	bhi.n	707c <__aeabi_dsub+0x48>
    7060:	42be      	cmp	r6, r7
    7062:	d10b      	bne.n	707c <__aeabi_dsub+0x48>
    7064:	2280      	movs	r2, #128	; 0x80
    7066:	0612      	lsls	r2, r2, #24
    7068:	189a      	adds	r2, r3, r2
    706a:	4663      	mov	r3, ip
    706c:	4661      	mov	r1, ip
    706e:	4058      	eors	r0, r3
    7070:	4041      	eors	r1, r0
    7072:	0035      	movs	r5, r6
    7074:	4048      	eors	r0, r1
    7076:	0004      	movs	r4, r0
    7078:	4055      	eors	r5, r2
    707a:	407a      	eors	r2, r7
    707c:	4b5b      	ldr	r3, [pc, #364]	; (71ec <__aeabi_dsub+0x1b8>)
    707e:	485c      	ldr	r0, [pc, #368]	; (71f0 <__aeabi_dsub+0x1bc>)
    7080:	0d2f      	lsrs	r7, r5, #20
    7082:	0d16      	lsrs	r6, r2, #20
    7084:	1bbe      	subs	r6, r7, r6
    7086:	403b      	ands	r3, r7
    7088:	4283      	cmp	r3, r0
    708a:	d100      	bne.n	708e <__aeabi_dsub+0x5a>
    708c:	e0a0      	b.n	71d0 <__aeabi_dsub+0x19c>
    708e:	429e      	cmp	r6, r3
    7090:	d100      	bne.n	7094 <__aeabi_dsub+0x60>
    7092:	e09a      	b.n	71ca <__aeabi_dsub+0x196>
    7094:	2080      	movs	r0, #128	; 0x80
    7096:	032b      	lsls	r3, r5, #12
    7098:	0312      	lsls	r2, r2, #12
    709a:	0340      	lsls	r0, r0, #13
    709c:	0b1b      	lsrs	r3, r3, #12
    709e:	0b12      	lsrs	r2, r2, #12
    70a0:	4303      	orrs	r3, r0
    70a2:	4302      	orrs	r2, r0
    70a4:	2e1f      	cmp	r6, #31
    70a6:	d851      	bhi.n	714c <__aeabi_dsub+0x118>
    70a8:	0010      	movs	r0, r2
    70aa:	40f0      	lsrs	r0, r6
    70ac:	2520      	movs	r5, #32
    70ae:	1a1b      	subs	r3, r3, r0
    70b0:	0008      	movs	r0, r1
    70b2:	40f0      	lsrs	r0, r6
    70b4:	1bae      	subs	r6, r5, r6
    70b6:	40b2      	lsls	r2, r6
    70b8:	4302      	orrs	r2, r0
    70ba:	1aa5      	subs	r5, r4, r2
    70bc:	42ac      	cmp	r4, r5
    70be:	41a4      	sbcs	r4, r4
    70c0:	000a      	movs	r2, r1
    70c2:	4264      	negs	r4, r4
    70c4:	1b1b      	subs	r3, r3, r4
    70c6:	40b2      	lsls	r2, r6
    70c8:	002c      	movs	r4, r5
    70ca:	2a00      	cmp	r2, #0
    70cc:	d005      	beq.n	70da <__aeabi_dsub+0xa6>
    70ce:	3c01      	subs	r4, #1
    70d0:	1c61      	adds	r1, r4, #1
    70d2:	4248      	negs	r0, r1
    70d4:	4141      	adcs	r1, r0
    70d6:	4252      	negs	r2, r2
    70d8:	1a5b      	subs	r3, r3, r1
    70da:	21c0      	movs	r1, #192	; 0xc0
    70dc:	0349      	lsls	r1, r1, #13
    70de:	420b      	tst	r3, r1
    70e0:	d152      	bne.n	7188 <__aeabi_dsub+0x154>
    70e2:	0fe1      	lsrs	r1, r4, #31
    70e4:	005b      	lsls	r3, r3, #1
    70e6:	0fd2      	lsrs	r2, r2, #31
    70e8:	430b      	orrs	r3, r1
    70ea:	0064      	lsls	r4, r4, #1
    70ec:	4314      	orrs	r4, r2
    70ee:	001a      	movs	r2, r3
    70f0:	4322      	orrs	r2, r4
    70f2:	d001      	beq.n	70f8 <__aeabi_dsub+0xc4>
    70f4:	1eba      	subs	r2, r7, #2
    70f6:	e002      	b.n	70fe <__aeabi_dsub+0xca>
    70f8:	0011      	movs	r1, r2
    70fa:	0010      	movs	r0, r2
    70fc:	e075      	b.n	71ea <__aeabi_dsub+0x1b6>
    70fe:	0b59      	lsrs	r1, r3, #13
    7100:	d105      	bne.n	710e <__aeabi_dsub+0xda>
    7102:	0e21      	lsrs	r1, r4, #24
    7104:	021b      	lsls	r3, r3, #8
    7106:	430b      	orrs	r3, r1
    7108:	0224      	lsls	r4, r4, #8
    710a:	3a08      	subs	r2, #8
    710c:	e7f7      	b.n	70fe <__aeabi_dsub+0xca>
    710e:	0c59      	lsrs	r1, r3, #17
    7110:	d104      	bne.n	711c <__aeabi_dsub+0xe8>
    7112:	0f21      	lsrs	r1, r4, #28
    7114:	011b      	lsls	r3, r3, #4
    7116:	430b      	orrs	r3, r1
    7118:	0124      	lsls	r4, r4, #4
    711a:	3a04      	subs	r2, #4
    711c:	0cd9      	lsrs	r1, r3, #19
    711e:	d104      	bne.n	712a <__aeabi_dsub+0xf6>
    7120:	0fa1      	lsrs	r1, r4, #30
    7122:	009b      	lsls	r3, r3, #2
    7124:	430b      	orrs	r3, r1
    7126:	00a4      	lsls	r4, r4, #2
    7128:	3a02      	subs	r2, #2
    712a:	0d19      	lsrs	r1, r3, #20
    712c:	d104      	bne.n	7138 <__aeabi_dsub+0x104>
    712e:	0fe1      	lsrs	r1, r4, #31
    7130:	005b      	lsls	r3, r3, #1
    7132:	430b      	orrs	r3, r1
    7134:	0064      	lsls	r4, r4, #1
    7136:	3a01      	subs	r2, #1
    7138:	0aff      	lsrs	r7, r7, #11
    713a:	0ad1      	lsrs	r1, r2, #11
    713c:	428f      	cmp	r7, r1
    713e:	d102      	bne.n	7146 <__aeabi_dsub+0x112>
    7140:	0512      	lsls	r2, r2, #20
    7142:	18d1      	adds	r1, r2, r3
    7144:	e050      	b.n	71e8 <__aeabi_dsub+0x1b4>
    7146:	2000      	movs	r0, #0
    7148:	07f9      	lsls	r1, r7, #31
    714a:	e04e      	b.n	71ea <__aeabi_dsub+0x1b6>
    714c:	2e35      	cmp	r6, #53	; 0x35
    714e:	d81b      	bhi.n	7188 <__aeabi_dsub+0x154>
    7150:	0015      	movs	r5, r2
    7152:	3e20      	subs	r6, #32
    7154:	40f5      	lsrs	r5, r6
    7156:	1b65      	subs	r5, r4, r5
    7158:	42ac      	cmp	r4, r5
    715a:	41a4      	sbcs	r4, r4
    715c:	2020      	movs	r0, #32
    715e:	4264      	negs	r4, r4
    7160:	1b1b      	subs	r3, r3, r4
    7162:	000c      	movs	r4, r1
    7164:	1b80      	subs	r0, r0, r6
    7166:	4082      	lsls	r2, r0
    7168:	40f4      	lsrs	r4, r6
    716a:	0609      	lsls	r1, r1, #24
    716c:	4322      	orrs	r2, r4
    716e:	2900      	cmp	r1, #0
    7170:	d002      	beq.n	7178 <__aeabi_dsub+0x144>
    7172:	21ff      	movs	r1, #255	; 0xff
    7174:	430a      	orrs	r2, r1
    7176:	e002      	b.n	717e <__aeabi_dsub+0x14a>
    7178:	002c      	movs	r4, r5
    717a:	2a00      	cmp	r2, #0
    717c:	d004      	beq.n	7188 <__aeabi_dsub+0x154>
    717e:	1e6c      	subs	r4, r5, #1
    7180:	4269      	negs	r1, r5
    7182:	4169      	adcs	r1, r5
    7184:	4252      	negs	r2, r2
    7186:	1a5b      	subs	r3, r3, r1
    7188:	02d9      	lsls	r1, r3, #11
    718a:	d40d      	bmi.n	71a8 <__aeabi_dsub+0x174>
    718c:	3f01      	subs	r7, #1
    718e:	057d      	lsls	r5, r7, #21
    7190:	d007      	beq.n	71a2 <__aeabi_dsub+0x16e>
    7192:	0fe1      	lsrs	r1, r4, #31
    7194:	0fd0      	lsrs	r0, r2, #31
    7196:	005b      	lsls	r3, r3, #1
    7198:	0064      	lsls	r4, r4, #1
    719a:	430b      	orrs	r3, r1
    719c:	4304      	orrs	r4, r0
    719e:	0052      	lsls	r2, r2, #1
    71a0:	e002      	b.n	71a8 <__aeabi_dsub+0x174>
    71a2:	0539      	lsls	r1, r7, #20
    71a4:	0028      	movs	r0, r5
    71a6:	e020      	b.n	71ea <__aeabi_dsub+0x1b6>
    71a8:	4912      	ldr	r1, [pc, #72]	; (71f4 <__aeabi_dsub+0x1c0>)
    71aa:	053f      	lsls	r7, r7, #20
    71ac:	400b      	ands	r3, r1
    71ae:	2a00      	cmp	r2, #0
    71b0:	da09      	bge.n	71c6 <__aeabi_dsub+0x192>
    71b2:	3401      	adds	r4, #1
    71b4:	4261      	negs	r1, r4
    71b6:	4161      	adcs	r1, r4
    71b8:	185b      	adds	r3, r3, r1
    71ba:	2180      	movs	r1, #128	; 0x80
    71bc:	0609      	lsls	r1, r1, #24
    71be:	428a      	cmp	r2, r1
    71c0:	d101      	bne.n	71c6 <__aeabi_dsub+0x192>
    71c2:	2201      	movs	r2, #1
    71c4:	4394      	bics	r4, r2
    71c6:	18f9      	adds	r1, r7, r3
    71c8:	e00e      	b.n	71e8 <__aeabi_dsub+0x1b4>
    71ca:	1e31      	subs	r1, r6, #0
    71cc:	d009      	beq.n	71e2 <__aeabi_dsub+0x1ae>
    71ce:	e00a      	b.n	71e6 <__aeabi_dsub+0x1b2>
    71d0:	032b      	lsls	r3, r5, #12
    71d2:	2000      	movs	r0, #0
    71d4:	2b00      	cmp	r3, #0
    71d6:	d001      	beq.n	71dc <__aeabi_dsub+0x1a8>
    71d8:	4907      	ldr	r1, [pc, #28]	; (71f8 <__aeabi_dsub+0x1c4>)
    71da:	e006      	b.n	71ea <__aeabi_dsub+0x1b6>
    71dc:	2e00      	cmp	r6, #0
    71de:	d102      	bne.n	71e6 <__aeabi_dsub+0x1b2>
    71e0:	4905      	ldr	r1, [pc, #20]	; (71f8 <__aeabi_dsub+0x1c4>)
    71e2:	0030      	movs	r0, r6
    71e4:	e001      	b.n	71ea <__aeabi_dsub+0x1b6>
    71e6:	0029      	movs	r1, r5
    71e8:	0020      	movs	r0, r4
    71ea:	bdf8      	pop	{r3, r4, r5, r6, r7, pc}
    71ec:	fffff7ff 	.word	0xfffff7ff
    71f0:	000007ff 	.word	0x000007ff
    71f4:	ffefffff 	.word	0xffefffff
    71f8:	7ff80000 	.word	0x7ff80000

000071fc <__aeabi_dadd>:
    71fc:	4694      	mov	ip, r2
    71fe:	b5f8      	push	{r3, r4, r5, r6, r7, lr}
    7200:	001a      	movs	r2, r3
    7202:	001d      	movs	r5, r3
    7204:	000e      	movs	r6, r1
    7206:	0004      	movs	r4, r0
    7208:	4667      	mov	r7, ip
    720a:	404b      	eors	r3, r1
    720c:	d506      	bpl.n	721c <__aeabi_dadd+0x20>
    720e:	2480      	movs	r4, #128	; 0x80
    7210:	0624      	lsls	r4, r4, #24
    7212:	192b      	adds	r3, r5, r4
    7214:	4662      	mov	r2, ip
    7216:	f7ff ff0d 	bl	7034 <__aeabi_dsub>
    721a:	e07d      	b.n	7318 <__aeabi_dadd+0x11c>
    721c:	42a9      	cmp	r1, r5
    721e:	d208      	bcs.n	7232 <__aeabi_dadd+0x36>
    7220:	4078      	eors	r0, r7
    7222:	4667      	mov	r7, ip
    7224:	4047      	eors	r7, r0
    7226:	4059      	eors	r1, r3
    7228:	4078      	eors	r0, r7
    722a:	406b      	eors	r3, r5
    722c:	000e      	movs	r6, r1
    722e:	001a      	movs	r2, r3
    7230:	0004      	movs	r4, r0
    7232:	4b3a      	ldr	r3, [pc, #232]	; (731c <__aeabi_dadd+0x120>)
    7234:	483a      	ldr	r0, [pc, #232]	; (7320 <__aeabi_dadd+0x124>)
    7236:	0d31      	lsrs	r1, r6, #20
    7238:	400b      	ands	r3, r1
    723a:	4283      	cmp	r3, r0
    723c:	d064      	beq.n	7308 <__aeabi_dadd+0x10c>
    723e:	0d15      	lsrs	r5, r2, #20
    7240:	1b4d      	subs	r5, r1, r5
    7242:	429d      	cmp	r5, r3
    7244:	d05a      	beq.n	72fc <__aeabi_dadd+0x100>
    7246:	2080      	movs	r0, #128	; 0x80
    7248:	0333      	lsls	r3, r6, #12
    724a:	0312      	lsls	r2, r2, #12
    724c:	0340      	lsls	r0, r0, #13
    724e:	0b1b      	lsrs	r3, r3, #12
    7250:	0b12      	lsrs	r2, r2, #12
    7252:	4303      	orrs	r3, r0
    7254:	4302      	orrs	r2, r0
    7256:	2d1f      	cmp	r5, #31
    7258:	d810      	bhi.n	727c <__aeabi_dadd+0x80>
    725a:	0010      	movs	r0, r2
    725c:	40e8      	lsrs	r0, r5
    725e:	2620      	movs	r6, #32
    7260:	181b      	adds	r3, r3, r0
    7262:	0038      	movs	r0, r7
    7264:	40e8      	lsrs	r0, r5
    7266:	1b75      	subs	r5, r6, r5
    7268:	40aa      	lsls	r2, r5
    726a:	4302      	orrs	r2, r0
    726c:	18a4      	adds	r4, r4, r2
    726e:	4294      	cmp	r4, r2
    7270:	4192      	sbcs	r2, r2
    7272:	4252      	negs	r2, r2
    7274:	189b      	adds	r3, r3, r2
    7276:	003a      	movs	r2, r7
    7278:	40aa      	lsls	r2, r5
    727a:	e014      	b.n	72a6 <__aeabi_dadd+0xaa>
    727c:	2d35      	cmp	r5, #53	; 0x35
    727e:	d812      	bhi.n	72a6 <__aeabi_dadd+0xaa>
    7280:	0010      	movs	r0, r2
    7282:	3d20      	subs	r5, #32
    7284:	40e8      	lsrs	r0, r5
    7286:	1824      	adds	r4, r4, r0
    7288:	4284      	cmp	r4, r0
    728a:	4180      	sbcs	r0, r0
    728c:	4240      	negs	r0, r0
    728e:	181b      	adds	r3, r3, r0
    7290:	2020      	movs	r0, #32
    7292:	1b40      	subs	r0, r0, r5
    7294:	4082      	lsls	r2, r0
    7296:	0038      	movs	r0, r7
    7298:	40e8      	lsrs	r0, r5
    729a:	063f      	lsls	r7, r7, #24
    729c:	4302      	orrs	r2, r0
    729e:	2f00      	cmp	r7, #0
    72a0:	d001      	beq.n	72a6 <__aeabi_dadd+0xaa>
    72a2:	20ff      	movs	r0, #255	; 0xff
    72a4:	4302      	orrs	r2, r0
    72a6:	0298      	lsls	r0, r3, #10
    72a8:	d518      	bpl.n	72dc <__aeabi_dadd+0xe0>
    72aa:	3401      	adds	r4, #1
    72ac:	4260      	negs	r0, r4
    72ae:	4160      	adcs	r0, r4
    72b0:	181b      	adds	r3, r3, r0
    72b2:	2a00      	cmp	r2, #0
    72b4:	d101      	bne.n	72ba <__aeabi_dadd+0xbe>
    72b6:	3202      	adds	r2, #2
    72b8:	4394      	bics	r4, r2
    72ba:	0858      	lsrs	r0, r3, #1
    72bc:	050a      	lsls	r2, r1, #20
    72be:	1812      	adds	r2, r2, r0
    72c0:	4818      	ldr	r0, [pc, #96]	; (7324 <__aeabi_dadd+0x128>)
    72c2:	0055      	lsls	r5, r2, #1
    72c4:	4285      	cmp	r5, r0
    72c6:	d805      	bhi.n	72d4 <__aeabi_dadd+0xd8>
    72c8:	0864      	lsrs	r4, r4, #1
    72ca:	07db      	lsls	r3, r3, #31
    72cc:	4323      	orrs	r3, r4
    72ce:	0011      	movs	r1, r2
    72d0:	0018      	movs	r0, r3
    72d2:	e021      	b.n	7318 <__aeabi_dadd+0x11c>
    72d4:	1c4b      	adds	r3, r1, #1
    72d6:	2000      	movs	r0, #0
    72d8:	0519      	lsls	r1, r3, #20
    72da:	e01d      	b.n	7318 <__aeabi_dadd+0x11c>
    72dc:	3901      	subs	r1, #1
    72de:	2a00      	cmp	r2, #0
    72e0:	da09      	bge.n	72f6 <__aeabi_dadd+0xfa>
    72e2:	3401      	adds	r4, #1
    72e4:	4260      	negs	r0, r4
    72e6:	4160      	adcs	r0, r4
    72e8:	181b      	adds	r3, r3, r0
    72ea:	2080      	movs	r0, #128	; 0x80
    72ec:	0600      	lsls	r0, r0, #24
    72ee:	4282      	cmp	r2, r0
    72f0:	d101      	bne.n	72f6 <__aeabi_dadd+0xfa>
    72f2:	2201      	movs	r2, #1
    72f4:	4394      	bics	r4, r2
    72f6:	050a      	lsls	r2, r1, #20
    72f8:	18d1      	adds	r1, r2, r3
    72fa:	e00c      	b.n	7316 <__aeabi_dadd+0x11a>
    72fc:	2d00      	cmp	r5, #0
    72fe:	d109      	bne.n	7314 <__aeabi_dadd+0x118>
    7300:	0ff6      	lsrs	r6, r6, #31
    7302:	07f1      	lsls	r1, r6, #31
    7304:	0028      	movs	r0, r5
    7306:	e007      	b.n	7318 <__aeabi_dadd+0x11c>
    7308:	0333      	lsls	r3, r6, #12
    730a:	2000      	movs	r0, #0
    730c:	2b00      	cmp	r3, #0
    730e:	d001      	beq.n	7314 <__aeabi_dadd+0x118>
    7310:	4905      	ldr	r1, [pc, #20]	; (7328 <__aeabi_dadd+0x12c>)
    7312:	e001      	b.n	7318 <__aeabi_dadd+0x11c>
    7314:	0031      	movs	r1, r6
    7316:	0020      	movs	r0, r4
    7318:	bdf8      	pop	{r3, r4, r5, r6, r7, pc}
    731a:	46c0      	nop			; (mov r8, r8)
    731c:	fffff7ff 	.word	0xfffff7ff
    7320:	000007ff 	.word	0x000007ff
    7324:	ffdfffff 	.word	0xffdfffff
    7328:	7ff80000 	.word	0x7ff80000

0000732c <__aeabi_d2f>:
    732c:	b570      	push	{r4, r5, r6, lr}
    732e:	4b14      	ldr	r3, [pc, #80]	; (7380 <__aeabi_d2f+0x54>)
    7330:	0005      	movs	r5, r0
    7332:	0fc8      	lsrs	r0, r1, #31
    7334:	0049      	lsls	r1, r1, #1
    7336:	07c4      	lsls	r4, r0, #31
    7338:	084a      	lsrs	r2, r1, #1
    733a:	4812      	ldr	r0, [pc, #72]	; (7384 <__aeabi_d2f+0x58>)
    733c:	18d3      	adds	r3, r2, r3
    733e:	4283      	cmp	r3, r0
    7340:	d811      	bhi.n	7366 <__aeabi_d2f+0x3a>
    7342:	23c8      	movs	r3, #200	; 0xc8
    7344:	061b      	lsls	r3, r3, #24
    7346:	18d2      	adds	r2, r2, r3
    7348:	00d1      	lsls	r1, r2, #3
    734a:	00ee      	lsls	r6, r5, #3
    734c:	0f6a      	lsrs	r2, r5, #29
    734e:	430a      	orrs	r2, r1
    7350:	0ff3      	lsrs	r3, r6, #31
    7352:	189b      	adds	r3, r3, r2
    7354:	2280      	movs	r2, #128	; 0x80
    7356:	0612      	lsls	r2, r2, #24
    7358:	4296      	cmp	r6, r2
    735a:	d101      	bne.n	7360 <__aeabi_d2f+0x34>
    735c:	2201      	movs	r2, #1
    735e:	4393      	bics	r3, r2
    7360:	4323      	orrs	r3, r4
    7362:	0018      	movs	r0, r3
    7364:	e00a      	b.n	737c <__aeabi_d2f+0x50>
    7366:	1c20      	adds	r0, r4, #0
    7368:	2b00      	cmp	r3, #0
    736a:	db07      	blt.n	737c <__aeabi_d2f+0x50>
    736c:	4b06      	ldr	r3, [pc, #24]	; (7388 <__aeabi_d2f+0x5c>)
    736e:	4299      	cmp	r1, r3
    7370:	d803      	bhi.n	737a <__aeabi_d2f+0x4e>
    7372:	20ff      	movs	r0, #255	; 0xff
    7374:	05c0      	lsls	r0, r0, #23
    7376:	4320      	orrs	r0, r4
    7378:	e000      	b.n	737c <__aeabi_d2f+0x50>
    737a:	4804      	ldr	r0, [pc, #16]	; (738c <__aeabi_d2f+0x60>)
    737c:	bd70      	pop	{r4, r5, r6, pc}
    737e:	46c0      	nop			; (mov r8, r8)
    7380:	c7f00000 	.word	0xc7f00000
    7384:	0fdfffff 	.word	0x0fdfffff
    7388:	ffe00000 	.word	0xffe00000
    738c:	7fc00000 	.word	0x7fc00000

00007390 <__aeabi_d2iz>:
    7390:	02cb      	lsls	r3, r1, #11
    7392:	0d40      	lsrs	r0, r0, #21
    7394:	4318      	orrs	r0, r3
    7396:	2380      	movs	r3, #128	; 0x80
    7398:	061b      	lsls	r3, r3, #24
    739a:	4318      	orrs	r0, r3
    739c:	4b0a      	ldr	r3, [pc, #40]	; (73c8 <__aeabi_d2iz+0x38>)
    739e:	0d0a      	lsrs	r2, r1, #20
    73a0:	1a9b      	subs	r3, r3, r2
    73a2:	40d8      	lsrs	r0, r3
    73a4:	2bff      	cmp	r3, #255	; 0xff
    73a6:	d90e      	bls.n	73c6 <__aeabi_d2iz+0x36>
    73a8:	22e0      	movs	r2, #224	; 0xe0
    73aa:	00d2      	lsls	r2, r2, #3
    73ac:	4240      	negs	r0, r0
    73ae:	4213      	tst	r3, r2
    73b0:	d009      	beq.n	73c6 <__aeabi_d2iz+0x36>
    73b2:	2000      	movs	r0, #0
    73b4:	004b      	lsls	r3, r1, #1
    73b6:	d506      	bpl.n	73c6 <__aeabi_d2iz+0x36>
    73b8:	4a04      	ldr	r2, [pc, #16]	; (73cc <__aeabi_d2iz+0x3c>)
    73ba:	004b      	lsls	r3, r1, #1
    73bc:	4293      	cmp	r3, r2
    73be:	d802      	bhi.n	73c6 <__aeabi_d2iz+0x36>
    73c0:	4b03      	ldr	r3, [pc, #12]	; (73d0 <__aeabi_d2iz+0x40>)
    73c2:	0fc8      	lsrs	r0, r1, #31
    73c4:	18c0      	adds	r0, r0, r3
    73c6:	4770      	bx	lr
    73c8:	0000041e 	.word	0x0000041e
    73cc:	ffe00000 	.word	0xffe00000
    73d0:	7fffffff 	.word	0x7fffffff

000073d4 <__aeabi_d2uiz>:
    73d4:	4b0a      	ldr	r3, [pc, #40]	; (7400 <__aeabi_d2uiz+0x2c>)
    73d6:	0d0a      	lsrs	r2, r1, #20
    73d8:	1a9b      	subs	r3, r3, r2
    73da:	2bff      	cmp	r3, #255	; 0xff
    73dc:	d807      	bhi.n	73ee <__aeabi_d2uiz+0x1a>
    73de:	02c9      	lsls	r1, r1, #11
    73e0:	0d40      	lsrs	r0, r0, #21
    73e2:	4308      	orrs	r0, r1
    73e4:	2180      	movs	r1, #128	; 0x80
    73e6:	0609      	lsls	r1, r1, #24
    73e8:	4308      	orrs	r0, r1
    73ea:	40d8      	lsrs	r0, r3
    73ec:	e007      	b.n	73fe <__aeabi_d2uiz+0x2a>
    73ee:	4b05      	ldr	r3, [pc, #20]	; (7404 <__aeabi_d2uiz+0x30>)
    73f0:	2000      	movs	r0, #0
    73f2:	18c9      	adds	r1, r1, r3
    73f4:	2380      	movs	r3, #128	; 0x80
    73f6:	05db      	lsls	r3, r3, #23
    73f8:	428b      	cmp	r3, r1
    73fa:	4140      	adcs	r0, r0
    73fc:	4240      	negs	r0, r0
    73fe:	4770      	bx	lr
    7400:	0000041e 	.word	0x0000041e
    7404:	c0100000 	.word	0xc0100000

00007408 <__bhs_ui2d>:
    7408:	b510      	push	{r4, lr}
    740a:	2800      	cmp	r0, #0
    740c:	d102      	bne.n	7414 <__bhs_ui2d+0xc>
    740e:	0003      	movs	r3, r0
    7410:	0002      	movs	r2, r0
    7412:	e025      	b.n	7460 <__bhs_ui2d+0x58>
    7414:	0c03      	lsrs	r3, r0, #16
    7416:	d101      	bne.n	741c <__bhs_ui2d+0x14>
    7418:	0400      	lsls	r0, r0, #16
    741a:	e002      	b.n	7422 <__bhs_ui2d+0x1a>
    741c:	2380      	movs	r3, #128	; 0x80
    741e:	045b      	lsls	r3, r3, #17
    7420:	18c9      	adds	r1, r1, r3
    7422:	0e03      	lsrs	r3, r0, #24
    7424:	d101      	bne.n	742a <__bhs_ui2d+0x22>
    7426:	0200      	lsls	r0, r0, #8
    7428:	e002      	b.n	7430 <__bhs_ui2d+0x28>
    742a:	2380      	movs	r3, #128	; 0x80
    742c:	041b      	lsls	r3, r3, #16
    742e:	18c9      	adds	r1, r1, r3
    7430:	0f03      	lsrs	r3, r0, #28
    7432:	d101      	bne.n	7438 <__bhs_ui2d+0x30>
    7434:	0100      	lsls	r0, r0, #4
    7436:	e002      	b.n	743e <__bhs_ui2d+0x36>
    7438:	2380      	movs	r3, #128	; 0x80
    743a:	03db      	lsls	r3, r3, #15
    743c:	18c9      	adds	r1, r1, r3
    743e:	0f83      	lsrs	r3, r0, #30
    7440:	d101      	bne.n	7446 <__bhs_ui2d+0x3e>
    7442:	0080      	lsls	r0, r0, #2
    7444:	e002      	b.n	744c <__bhs_ui2d+0x44>
    7446:	2380      	movs	r3, #128	; 0x80
    7448:	039b      	lsls	r3, r3, #14
    744a:	18c9      	adds	r1, r1, r3
    744c:	2800      	cmp	r0, #0
    744e:	db01      	blt.n	7454 <__bhs_ui2d+0x4c>
    7450:	0040      	lsls	r0, r0, #1
    7452:	e002      	b.n	745a <__bhs_ui2d+0x52>
    7454:	2380      	movs	r3, #128	; 0x80
    7456:	035b      	lsls	r3, r3, #13
    7458:	18c9      	adds	r1, r1, r3
    745a:	12c4      	asrs	r4, r0, #11
    745c:	1863      	adds	r3, r4, r1
    745e:	0542      	lsls	r2, r0, #21
    7460:	0010      	movs	r0, r2
    7462:	0019      	movs	r1, r3
    7464:	bd10      	pop	{r4, pc}

00007466 <__aeabi_i2d>:
    7466:	0fc1      	lsrs	r1, r0, #31
    7468:	b510      	push	{r4, lr}
    746a:	07c9      	lsls	r1, r1, #31
    746c:	d000      	beq.n	7470 <__aeabi_i2d+0xa>
    746e:	4240      	negs	r0, r0
    7470:	2380      	movs	r3, #128	; 0x80
    7472:	05db      	lsls	r3, r3, #23
    7474:	18c9      	adds	r1, r1, r3
    7476:	f7ff ffc7 	bl	7408 <__bhs_ui2d>
    747a:	bd10      	pop	{r4, pc}

0000747c <__aeabi_ui2d>:
    747c:	2180      	movs	r1, #128	; 0x80
    747e:	b510      	push	{r4, lr}
    7480:	05c9      	lsls	r1, r1, #23
    7482:	f7ff ffc1 	bl	7408 <__bhs_ui2d>
    7486:	bd10      	pop	{r4, pc}

00007488 <__aeabi_dcmpeq>:
    7488:	b5f0      	push	{r4, r5, r6, r7, lr}
    748a:	000f      	movs	r7, r1
    748c:	0049      	lsls	r1, r1, #1
    748e:	0005      	movs	r5, r0
    7490:	001e      	movs	r6, r3
    7492:	0014      	movs	r4, r2
    7494:	4308      	orrs	r0, r1
    7496:	d104      	bne.n	74a2 <__aeabi_dcmpeq+0x1a>
    7498:	005b      	lsls	r3, r3, #1
    749a:	431a      	orrs	r2, r3
    749c:	3001      	adds	r0, #1
    749e:	2a00      	cmp	r2, #0
    74a0:	d007      	beq.n	74b2 <__aeabi_dcmpeq+0x2a>
    74a2:	2000      	movs	r0, #0
    74a4:	42b7      	cmp	r7, r6
    74a6:	d104      	bne.n	74b2 <__aeabi_dcmpeq+0x2a>
    74a8:	42a5      	cmp	r5, r4
    74aa:	d102      	bne.n	74b2 <__aeabi_dcmpeq+0x2a>
    74ac:	4b01      	ldr	r3, [pc, #4]	; (74b4 <__aeabi_dcmpeq+0x2c>)
    74ae:	428b      	cmp	r3, r1
    74b0:	4140      	adcs	r0, r0
    74b2:	bdf0      	pop	{r4, r5, r6, r7, pc}
    74b4:	ffe00000 	.word	0xffe00000

000074b8 <__aeabi_dcmplt>:
    74b8:	b5f0      	push	{r4, r5, r6, r7, lr}
    74ba:	001c      	movs	r4, r3
    74bc:	000e      	movs	r6, r1
    74be:	001d      	movs	r5, r3
    74c0:	430c      	orrs	r4, r1
    74c2:	4f13      	ldr	r7, [pc, #76]	; (7510 <__aeabi_dcmplt+0x58>)
    74c4:	d40c      	bmi.n	74e0 <__aeabi_dcmplt+0x28>
    74c6:	005b      	lsls	r3, r3, #1
    74c8:	2400      	movs	r4, #0
    74ca:	42bb      	cmp	r3, r7
    74cc:	d81e      	bhi.n	750c <__aeabi_dcmplt+0x54>
    74ce:	3401      	adds	r4, #1
    74d0:	42a9      	cmp	r1, r5
    74d2:	d31b      	bcc.n	750c <__aeabi_dcmplt+0x54>
    74d4:	2400      	movs	r4, #0
    74d6:	4290      	cmp	r0, r2
    74d8:	4180      	sbcs	r0, r0
    74da:	42a9      	cmp	r1, r5
    74dc:	d116      	bne.n	750c <__aeabi_dcmplt+0x54>
    74de:	e014      	b.n	750a <__aeabi_dcmplt+0x52>
    74e0:	0049      	lsls	r1, r1, #1
    74e2:	2400      	movs	r4, #0
    74e4:	42b9      	cmp	r1, r7
    74e6:	d811      	bhi.n	750c <__aeabi_dcmplt+0x54>
    74e8:	005b      	lsls	r3, r3, #1
    74ea:	42bb      	cmp	r3, r7
    74ec:	d80e      	bhi.n	750c <__aeabi_dcmplt+0x54>
    74ee:	4301      	orrs	r1, r0
    74f0:	42a1      	cmp	r1, r4
    74f2:	d102      	bne.n	74fa <__aeabi_dcmplt+0x42>
    74f4:	4313      	orrs	r3, r2
    74f6:	42a3      	cmp	r3, r4
    74f8:	d008      	beq.n	750c <__aeabi_dcmplt+0x54>
    74fa:	2401      	movs	r4, #1
    74fc:	42ae      	cmp	r6, r5
    74fe:	d805      	bhi.n	750c <__aeabi_dcmplt+0x54>
    7500:	2400      	movs	r4, #0
    7502:	42ae      	cmp	r6, r5
    7504:	d102      	bne.n	750c <__aeabi_dcmplt+0x54>
    7506:	4282      	cmp	r2, r0
    7508:	4180      	sbcs	r0, r0
    750a:	4244      	negs	r4, r0
    750c:	0020      	movs	r0, r4
    750e:	bdf0      	pop	{r4, r5, r6, r7, pc}
    7510:	ffe00000 	.word	0xffe00000

00007514 <__aeabi_dcmpgt>:
    7514:	b5f0      	push	{r4, r5, r6, r7, lr}
    7516:	001c      	movs	r4, r3
    7518:	000e      	movs	r6, r1
    751a:	430c      	orrs	r4, r1
    751c:	001d      	movs	r5, r3
    751e:	0049      	lsls	r1, r1, #1
    7520:	4f12      	ldr	r7, [pc, #72]	; (756c <__aeabi_dcmpgt+0x58>)
    7522:	2c00      	cmp	r4, #0
    7524:	db0b      	blt.n	753e <__aeabi_dcmpgt+0x2a>
    7526:	2400      	movs	r4, #0
    7528:	42b9      	cmp	r1, r7
    752a:	d81d      	bhi.n	7568 <__aeabi_dcmpgt+0x54>
    752c:	3401      	adds	r4, #1
    752e:	429e      	cmp	r6, r3
    7530:	d81a      	bhi.n	7568 <__aeabi_dcmpgt+0x54>
    7532:	2400      	movs	r4, #0
    7534:	429e      	cmp	r6, r3
    7536:	d117      	bne.n	7568 <__aeabi_dcmpgt+0x54>
    7538:	4282      	cmp	r2, r0
    753a:	41a4      	sbcs	r4, r4
    753c:	e013      	b.n	7566 <__aeabi_dcmpgt+0x52>
    753e:	2400      	movs	r4, #0
    7540:	42b9      	cmp	r1, r7
    7542:	d811      	bhi.n	7568 <__aeabi_dcmpgt+0x54>
    7544:	005b      	lsls	r3, r3, #1
    7546:	42bb      	cmp	r3, r7
    7548:	d80e      	bhi.n	7568 <__aeabi_dcmpgt+0x54>
    754a:	4301      	orrs	r1, r0
    754c:	42a1      	cmp	r1, r4
    754e:	d102      	bne.n	7556 <__aeabi_dcmpgt+0x42>
    7550:	4313      	orrs	r3, r2
    7552:	42a3      	cmp	r3, r4
    7554:	d008      	beq.n	7568 <__aeabi_dcmpgt+0x54>
    7556:	2401      	movs	r4, #1
    7558:	42ae      	cmp	r6, r5
    755a:	d305      	bcc.n	7568 <__aeabi_dcmpgt+0x54>
    755c:	2400      	movs	r4, #0
    755e:	42ae      	cmp	r6, r5
    7560:	d102      	bne.n	7568 <__aeabi_dcmpgt+0x54>
    7562:	4290      	cmp	r0, r2
    7564:	41a4      	sbcs	r4, r4
    7566:	4264      	negs	r4, r4
    7568:	0020      	movs	r0, r4
    756a:	bdf0      	pop	{r4, r5, r6, r7, pc}
    756c:	ffe00000 	.word	0xffe00000

00007570 <__aeabi_dcmple>:
    7570:	b5f7      	push	{r0, r1, r2, r4, r5, r6, r7, lr}
    7572:	001c      	movs	r4, r3
    7574:	000e      	movs	r6, r1
    7576:	001d      	movs	r5, r3
    7578:	9201      	str	r2, [sp, #4]
    757a:	430c      	orrs	r4, r1
    757c:	4f12      	ldr	r7, [pc, #72]	; (75c8 <__aeabi_dcmple+0x58>)
    757e:	d40d      	bmi.n	759c <__aeabi_dcmple+0x2c>
    7580:	005b      	lsls	r3, r3, #1
    7582:	2400      	movs	r4, #0
    7584:	42bb      	cmp	r3, r7
    7586:	d81d      	bhi.n	75c4 <__aeabi_dcmple+0x54>
    7588:	3401      	adds	r4, #1
    758a:	42a9      	cmp	r1, r5
    758c:	d31a      	bcc.n	75c4 <__aeabi_dcmple+0x54>
    758e:	2400      	movs	r4, #0
    7590:	42a9      	cmp	r1, r5
    7592:	d117      	bne.n	75c4 <__aeabi_dcmple+0x54>
    7594:	0013      	movs	r3, r2
    7596:	4283      	cmp	r3, r0
    7598:	4164      	adcs	r4, r4
    759a:	e013      	b.n	75c4 <__aeabi_dcmple+0x54>
    759c:	0049      	lsls	r1, r1, #1
    759e:	2400      	movs	r4, #0
    75a0:	42b9      	cmp	r1, r7
    75a2:	d80f      	bhi.n	75c4 <__aeabi_dcmple+0x54>
    75a4:	005b      	lsls	r3, r3, #1
    75a6:	42bb      	cmp	r3, r7
    75a8:	d80c      	bhi.n	75c4 <__aeabi_dcmple+0x54>
    75aa:	3401      	adds	r4, #1
    75ac:	42ae      	cmp	r6, r5
    75ae:	d809      	bhi.n	75c4 <__aeabi_dcmple+0x54>
    75b0:	d101      	bne.n	75b6 <__aeabi_dcmple+0x46>
    75b2:	4290      	cmp	r0, r2
    75b4:	d206      	bcs.n	75c4 <__aeabi_dcmple+0x54>
    75b6:	2400      	movs	r4, #0
    75b8:	4301      	orrs	r1, r0
    75ba:	42a1      	cmp	r1, r4
    75bc:	d102      	bne.n	75c4 <__aeabi_dcmple+0x54>
    75be:	4313      	orrs	r3, r2
    75c0:	425c      	negs	r4, r3
    75c2:	415c      	adcs	r4, r3
    75c4:	0020      	movs	r0, r4
    75c6:	bdfe      	pop	{r1, r2, r3, r4, r5, r6, r7, pc}
    75c8:	ffe00000 	.word	0xffe00000

000075cc <__aeabi_dcmpge>:
    75cc:	b5f7      	push	{r0, r1, r2, r4, r5, r6, r7, lr}
    75ce:	0004      	movs	r4, r0
    75d0:	0018      	movs	r0, r3
    75d2:	4308      	orrs	r0, r1
    75d4:	9000      	str	r0, [sp, #0]
    75d6:	4814      	ldr	r0, [pc, #80]	; (7628 <__aeabi_dcmpge+0x5c>)
    75d8:	000e      	movs	r6, r1
    75da:	4684      	mov	ip, r0
    75dc:	9800      	ldr	r0, [sp, #0]
    75de:	001d      	movs	r5, r3
    75e0:	9201      	str	r2, [sp, #4]
    75e2:	0049      	lsls	r1, r1, #1
    75e4:	2800      	cmp	r0, #0
    75e6:	db0b      	blt.n	7600 <__aeabi_dcmpge+0x34>
    75e8:	2000      	movs	r0, #0
    75ea:	4561      	cmp	r1, ip
    75ec:	d81b      	bhi.n	7626 <__aeabi_dcmpge+0x5a>
    75ee:	3001      	adds	r0, #1
    75f0:	429e      	cmp	r6, r3
    75f2:	d818      	bhi.n	7626 <__aeabi_dcmpge+0x5a>
    75f4:	2000      	movs	r0, #0
    75f6:	429e      	cmp	r6, r3
    75f8:	d115      	bne.n	7626 <__aeabi_dcmpge+0x5a>
    75fa:	4294      	cmp	r4, r2
    75fc:	4140      	adcs	r0, r0
    75fe:	e012      	b.n	7626 <__aeabi_dcmpge+0x5a>
    7600:	2000      	movs	r0, #0
    7602:	4561      	cmp	r1, ip
    7604:	d80f      	bhi.n	7626 <__aeabi_dcmpge+0x5a>
    7606:	005b      	lsls	r3, r3, #1
    7608:	4563      	cmp	r3, ip
    760a:	d80c      	bhi.n	7626 <__aeabi_dcmpge+0x5a>
    760c:	3001      	adds	r0, #1
    760e:	42ae      	cmp	r6, r5
    7610:	d309      	bcc.n	7626 <__aeabi_dcmpge+0x5a>
    7612:	d101      	bne.n	7618 <__aeabi_dcmpge+0x4c>
    7614:	4294      	cmp	r4, r2
    7616:	d906      	bls.n	7626 <__aeabi_dcmpge+0x5a>
    7618:	2000      	movs	r0, #0
    761a:	4321      	orrs	r1, r4
    761c:	4281      	cmp	r1, r0
    761e:	d102      	bne.n	7626 <__aeabi_dcmpge+0x5a>
    7620:	4313      	orrs	r3, r2
    7622:	4258      	negs	r0, r3
    7624:	4158      	adcs	r0, r3
    7626:	bdfe      	pop	{r1, r2, r3, r4, r5, r6, r7, pc}
    7628:	ffe00000 	.word	0xffe00000

0000762c <__aeabi_lmul>:
    762c:	b510      	push	{r4, lr}
    762e:	4343      	muls	r3, r0
    7630:	4351      	muls	r1, r2
    7632:	18c9      	adds	r1, r1, r3
    7634:	0c04      	lsrs	r4, r0, #16
    7636:	0c13      	lsrs	r3, r2, #16
    7638:	435c      	muls	r4, r3
    763a:	1909      	adds	r1, r1, r4
    763c:	b292      	uxth	r2, r2
    763e:	0c04      	lsrs	r4, r0, #16
    7640:	4354      	muls	r4, r2
    7642:	b280      	uxth	r0, r0
    7644:	4343      	muls	r3, r0
    7646:	4350      	muls	r0, r2
    7648:	0422      	lsls	r2, r4, #16
    764a:	0c24      	lsrs	r4, r4, #16
    764c:	1880      	adds	r0, r0, r2
    764e:	4161      	adcs	r1, r4
    7650:	041a      	lsls	r2, r3, #16
    7652:	0c1b      	lsrs	r3, r3, #16
    7654:	1880      	adds	r0, r0, r2
    7656:	4159      	adcs	r1, r3
    7658:	bd10      	pop	{r4, pc}

0000765a <__aeabi_memcpy>:
    765a:	4684      	mov	ip, r0
    765c:	0783      	lsls	r3, r0, #30
    765e:	d108      	bne.n	7672 <copy1_start>
    7660:	078b      	lsls	r3, r1, #30
    7662:	d106      	bne.n	7672 <copy1_start>
    7664:	1f13      	subs	r3, r2, #4
    7666:	d304      	bcc.n	7672 <copy1_start>

00007668 <copy4>:
    7668:	c904      	ldmia	r1!, {r2}
    766a:	c004      	stmia	r0!, {r2}
    766c:	3b04      	subs	r3, #4
    766e:	d2fb      	bcs.n	7668 <copy4>
    7670:	1d1a      	adds	r2, r3, #4

00007672 <copy1_start>:
    7672:	4252      	negs	r2, r2
    7674:	d005      	beq.n	7682 <copy1_ret>
    7676:	1a89      	subs	r1, r1, r2
    7678:	1a80      	subs	r0, r0, r2

0000767a <copy1>:
    767a:	5c8b      	ldrb	r3, [r1, r2]
    767c:	5483      	strb	r3, [r0, r2]
    767e:	3201      	adds	r2, #1
    7680:	d1fb      	bne.n	767a <copy1>

00007682 <copy1_ret>:
    7682:	4660      	mov	r0, ip
    7684:	4770      	bx	lr

00007686 <__aeabi_lowlevel_memset>:
    7686:	4684      	mov	ip, r0
    7688:	3a04      	subs	r2, #4
    768a:	d309      	bcc.n	76a0 <memset1>
    768c:	0783      	lsls	r3, r0, #30
    768e:	d107      	bne.n	76a0 <memset1>
    7690:	0609      	lsls	r1, r1, #24
    7692:	0a0b      	lsrs	r3, r1, #8
    7694:	4319      	orrs	r1, r3
    7696:	0c0b      	lsrs	r3, r1, #16
    7698:	4319      	orrs	r1, r3

0000769a <memset4>:
    769a:	3a04      	subs	r2, #4
    769c:	c002      	stmia	r0!, {r1}
    769e:	d2fc      	bcs.n	769a <memset4>

000076a0 <memset1>:
    76a0:	3204      	adds	r2, #4
    76a2:	d003      	beq.n	76ac <memset1_ret>

000076a4 <memset1a>:
    76a4:	7001      	strb	r1, [r0, #0]
    76a6:	3001      	adds	r0, #1
    76a8:	3a01      	subs	r2, #1
    76aa:	d1fb      	bne.n	76a4 <memset1a>

000076ac <memset1_ret>:
    76ac:	4660      	mov	r0, ip
    76ae:	4770      	bx	lr

000076b0 <__aeabi_uldivmod>:
    76b0:	b5f0      	push	{r4, r5, r6, r7, lr}
    76b2:	0017      	movs	r7, r2
    76b4:	431f      	orrs	r7, r3
    76b6:	d023      	beq.n	7700 <ldiv_divzero>
    76b8:	2601      	movs	r6, #1
    76ba:	0844      	lsrs	r4, r0, #1
    76bc:	07cf      	lsls	r7, r1, #31
    76be:	433c      	orrs	r4, r7
    76c0:	084d      	lsrs	r5, r1, #1

000076c2 <loop1>:
    76c2:	1aa7      	subs	r7, r4, r2
    76c4:	462f      	mov	r7, r5
    76c6:	419f      	sbcs	r7, r3
    76c8:	d303      	bcc.n	76d2 <loop1_end>
    76ca:	1892      	adds	r2, r2, r2
    76cc:	415b      	adcs	r3, r3
    76ce:	3601      	adds	r6, #1
    76d0:	e7f7      	b.n	76c2 <loop1>

000076d2 <loop1_end>:
    76d2:	2400      	movs	r4, #0
    76d4:	2500      	movs	r5, #0
    76d6:	e005      	b.n	76e4 <loop_start>

000076d8 <loop>:
    76d8:	0852      	lsrs	r2, r2, #1
    76da:	07df      	lsls	r7, r3, #31
    76dc:	433a      	orrs	r2, r7
    76de:	085b      	lsrs	r3, r3, #1
    76e0:	1924      	adds	r4, r4, r4
    76e2:	416d      	adcs	r5, r5

000076e4 <loop_start>:
    76e4:	1a87      	subs	r7, r0, r2
    76e6:	460f      	mov	r7, r1
    76e8:	419f      	sbcs	r7, r3
    76ea:	d302      	bcc.n	76f2 <ldiv1>
    76ec:	1a80      	subs	r0, r0, r2
    76ee:	4199      	sbcs	r1, r3
    76f0:	3401      	adds	r4, #1

000076f2 <ldiv1>:
    76f2:	3e01      	subs	r6, #1
    76f4:	d1f0      	bne.n	76d8 <loop>
    76f6:	4602      	mov	r2, r0
    76f8:	460b      	mov	r3, r1
    76fa:	4620      	mov	r0, r4
    76fc:	4629      	mov	r1, r5
    76fe:	bdf0      	pop	{r4, r5, r6, r7, pc}

00007700 <ldiv_divzero>:
    7700:	2000      	movs	r0, #0
    7702:	2100      	movs	r1, #0
    7704:	f000 f801 	bl	770a <__aeabi_idiv0>
    7708:	bdf0      	pop	{r4, r5, r6, r7, pc}

0000770a <__aeabi_idiv0>:
    770a:	4770      	bx	lr

0000770c <__aeabi_fsub>:
    770c:	b570      	push	{r4, r5, r6, lr}
    770e:	000c      	movs	r4, r1
    7710:	0003      	movs	r3, r0
    7712:	000a      	movs	r2, r1
    7714:	4044      	eors	r4, r0
    7716:	d505      	bpl.n	7724 <__aeabi_fsub+0x18>
    7718:	2380      	movs	r3, #128	; 0x80
    771a:	061b      	lsls	r3, r3, #24
    771c:	18c9      	adds	r1, r1, r3
    771e:	f000 f88d 	bl	783c <__aeabi_fadd>
    7722:	e07b      	b.n	781c <__aeabi_fsub+0x110>
    7724:	4288      	cmp	r0, r1
    7726:	d205      	bcs.n	7734 <__aeabi_fsub+0x28>
    7728:	2380      	movs	r3, #128	; 0x80
    772a:	061b      	lsls	r3, r3, #24
    772c:	18e2      	adds	r2, r4, r3
    772e:	0003      	movs	r3, r0
    7730:	4053      	eors	r3, r2
    7732:	404a      	eors	r2, r1
    7734:	0dd9      	lsrs	r1, r3, #23
    7736:	0dd4      	lsrs	r4, r2, #23
    7738:	b2c8      	uxtb	r0, r1
    773a:	1b0c      	subs	r4, r1, r4
    773c:	28ff      	cmp	r0, #255	; 0xff
    773e:	d064      	beq.n	780a <__aeabi_fsub+0xfe>
    7740:	4284      	cmp	r4, r0
    7742:	d05d      	beq.n	7800 <__aeabi_fsub+0xf4>
    7744:	0218      	lsls	r0, r3, #8
    7746:	2380      	movs	r3, #128	; 0x80
    7748:	0212      	lsls	r2, r2, #8
    774a:	061b      	lsls	r3, r3, #24
    774c:	431a      	orrs	r2, r3
    774e:	4318      	orrs	r0, r3
    7750:	0013      	movs	r3, r2
    7752:	40e3      	lsrs	r3, r4
    7754:	1ac3      	subs	r3, r0, r3
    7756:	d510      	bpl.n	777a <__aeabi_fsub+0x6e>
    7758:	4831      	ldr	r0, [pc, #196]	; (7820 <__aeabi_fsub+0x114>)
    775a:	181b      	adds	r3, r3, r0
    775c:	0a1d      	lsrs	r5, r3, #8
    775e:	05c8      	lsls	r0, r1, #23
    7760:	1940      	adds	r0, r0, r5
    7762:	061b      	lsls	r3, r3, #24
    7764:	d15a      	bne.n	781c <__aeabi_fsub+0x110>
    7766:	2320      	movs	r3, #32
    7768:	1b1c      	subs	r4, r3, r4
    776a:	40a2      	lsls	r2, r4
    776c:	1e43      	subs	r3, r0, #1
    776e:	2a00      	cmp	r2, #0
    7770:	d14f      	bne.n	7812 <__aeabi_fsub+0x106>
    7772:	2301      	movs	r3, #1
    7774:	4398      	bics	r0, r3
    7776:	0003      	movs	r3, r0
    7778:	e04b      	b.n	7812 <__aeabi_fsub+0x106>
    777a:	0058      	lsls	r0, r3, #1
    777c:	d518      	bpl.n	77b0 <__aeabi_fsub+0xa4>
    777e:	0003      	movs	r3, r0
    7780:	3380      	adds	r3, #128	; 0x80
    7782:	1218      	asrs	r0, r3, #8
    7784:	05cd      	lsls	r5, r1, #23
    7786:	1828      	adds	r0, r5, r0
    7788:	061b      	lsls	r3, r3, #24
    778a:	d002      	beq.n	7792 <__aeabi_fsub+0x86>
    778c:	23fe      	movs	r3, #254	; 0xfe
    778e:	4219      	tst	r1, r3
    7790:	d144      	bne.n	781c <__aeabi_fsub+0x110>
    7792:	2320      	movs	r3, #32
    7794:	1b1c      	subs	r4, r3, r4
    7796:	40a2      	lsls	r2, r4
    7798:	1e43      	subs	r3, r0, #1
    779a:	2a00      	cmp	r2, #0
    779c:	d102      	bne.n	77a4 <__aeabi_fsub+0x98>
    779e:	2301      	movs	r3, #1
    77a0:	4398      	bics	r0, r3
    77a2:	0003      	movs	r3, r0
    77a4:	22fe      	movs	r2, #254	; 0xfe
    77a6:	4211      	tst	r1, r2
    77a8:	d133      	bne.n	7812 <__aeabi_fsub+0x106>
    77aa:	0fd8      	lsrs	r0, r3, #31
    77ac:	07c3      	lsls	r3, r0, #31
    77ae:	e030      	b.n	7812 <__aeabi_fsub+0x106>
    77b0:	2800      	cmp	r0, #0
    77b2:	d030      	beq.n	7816 <__aeabi_fsub+0x10a>
    77b4:	4c1b      	ldr	r4, [pc, #108]	; (7824 <__aeabi_fsub+0x118>)
    77b6:	05ca      	lsls	r2, r1, #23
    77b8:	42a0      	cmp	r0, r4
    77ba:	d901      	bls.n	77c0 <__aeabi_fsub+0xb4>
    77bc:	0a00      	lsrs	r0, r0, #8
    77be:	e006      	b.n	77ce <__aeabi_fsub+0xc2>
    77c0:	4c19      	ldr	r4, [pc, #100]	; (7828 <__aeabi_fsub+0x11c>)
    77c2:	42a0      	cmp	r0, r4
    77c4:	d901      	bls.n	77ca <__aeabi_fsub+0xbe>
    77c6:	3908      	subs	r1, #8
    77c8:	e001      	b.n	77ce <__aeabi_fsub+0xc2>
    77ca:	0258      	lsls	r0, r3, #9
    77cc:	3910      	subs	r1, #16
    77ce:	4b17      	ldr	r3, [pc, #92]	; (782c <__aeabi_fsub+0x120>)
    77d0:	4298      	cmp	r0, r3
    77d2:	d801      	bhi.n	77d8 <__aeabi_fsub+0xcc>
    77d4:	0100      	lsls	r0, r0, #4
    77d6:	3904      	subs	r1, #4
    77d8:	4b15      	ldr	r3, [pc, #84]	; (7830 <__aeabi_fsub+0x124>)
    77da:	4298      	cmp	r0, r3
    77dc:	d801      	bhi.n	77e2 <__aeabi_fsub+0xd6>
    77de:	0080      	lsls	r0, r0, #2
    77e0:	3902      	subs	r1, #2
    77e2:	4b14      	ldr	r3, [pc, #80]	; (7834 <__aeabi_fsub+0x128>)
    77e4:	4298      	cmp	r0, r3
    77e6:	d801      	bhi.n	77ec <__aeabi_fsub+0xe0>
    77e8:	0040      	lsls	r0, r0, #1
    77ea:	3901      	subs	r1, #1
    77ec:	0013      	movs	r3, r2
    77ee:	3902      	subs	r1, #2
    77f0:	05c9      	lsls	r1, r1, #23
    77f2:	404b      	eors	r3, r1
    77f4:	1840      	adds	r0, r0, r1
    77f6:	2b00      	cmp	r3, #0
    77f8:	da10      	bge.n	781c <__aeabi_fsub+0x110>
    77fa:	0fd0      	lsrs	r0, r2, #31
    77fc:	07c0      	lsls	r0, r0, #31
    77fe:	e00d      	b.n	781c <__aeabi_fsub+0x110>
    7800:	2000      	movs	r0, #0
    7802:	4284      	cmp	r4, r0
    7804:	d00a      	beq.n	781c <__aeabi_fsub+0x110>
    7806:	0018      	movs	r0, r3
    7808:	e008      	b.n	781c <__aeabi_fsub+0x110>
    780a:	025a      	lsls	r2, r3, #9
    780c:	d105      	bne.n	781a <__aeabi_fsub+0x10e>
    780e:	2c00      	cmp	r4, #0
    7810:	d003      	beq.n	781a <__aeabi_fsub+0x10e>
    7812:	1c18      	adds	r0, r3, #0
    7814:	e002      	b.n	781c <__aeabi_fsub+0x110>
    7816:	2000      	movs	r0, #0
    7818:	e000      	b.n	781c <__aeabi_fsub+0x110>
    781a:	4807      	ldr	r0, [pc, #28]	; (7838 <__aeabi_fsub+0x12c>)
    781c:	bd70      	pop	{r4, r5, r6, pc}
    781e:	46c0      	nop			; (mov r8, r8)
    7820:	80000080 	.word	0x80000080
    7824:	00ffffff 	.word	0x00ffffff
    7828:	0000ffff 	.word	0x0000ffff
    782c:	000fffff 	.word	0x000fffff
    7830:	003fffff 	.word	0x003fffff
    7834:	007fffff 	.word	0x007fffff
    7838:	7fc00000 	.word	0x7fc00000

0000783c <__aeabi_fadd>:
    783c:	b570      	push	{r4, r5, r6, lr}
    783e:	000c      	movs	r4, r1
    7840:	0003      	movs	r3, r0
    7842:	000a      	movs	r2, r1
    7844:	4044      	eors	r4, r0
    7846:	d505      	bpl.n	7854 <__aeabi_fadd+0x18>
    7848:	2380      	movs	r3, #128	; 0x80
    784a:	061b      	lsls	r3, r3, #24
    784c:	18c9      	adds	r1, r1, r3
    784e:	f7ff ff5d 	bl	770c <__aeabi_fsub>
    7852:	e049      	b.n	78e8 <__aeabi_fadd+0xac>
    7854:	4288      	cmp	r0, r1
    7856:	d203      	bcs.n	7860 <__aeabi_fadd+0x24>
    7858:	0003      	movs	r3, r0
    785a:	0022      	movs	r2, r4
    785c:	4063      	eors	r3, r4
    785e:	404a      	eors	r2, r1
    7860:	0dd8      	lsrs	r0, r3, #23
    7862:	25ff      	movs	r5, #255	; 0xff
    7864:	0004      	movs	r4, r0
    7866:	402c      	ands	r4, r5
    7868:	42ac      	cmp	r4, r5
    786a:	d038      	beq.n	78de <__aeabi_fadd+0xa2>
    786c:	0dd1      	lsrs	r1, r2, #23
    786e:	1a41      	subs	r1, r0, r1
    7870:	42a1      	cmp	r1, r4
    7872:	d02e      	beq.n	78d2 <__aeabi_fadd+0x96>
    7874:	2480      	movs	r4, #128	; 0x80
    7876:	0212      	lsls	r2, r2, #8
    7878:	0624      	lsls	r4, r4, #24
    787a:	021b      	lsls	r3, r3, #8
    787c:	4323      	orrs	r3, r4
    787e:	4314      	orrs	r4, r2
    7880:	0022      	movs	r2, r4
    7882:	40ca      	lsrs	r2, r1
    7884:	189b      	adds	r3, r3, r2
    7886:	429a      	cmp	r2, r3
    7888:	d80d      	bhi.n	78a6 <__aeabi_fadd+0x6a>
    788a:	4a18      	ldr	r2, [pc, #96]	; (78ec <__aeabi_fadd+0xb0>)
    788c:	05c0      	lsls	r0, r0, #23
    788e:	189b      	adds	r3, r3, r2
    7890:	0a1a      	lsrs	r2, r3, #8
    7892:	1880      	adds	r0, r0, r2
    7894:	061b      	lsls	r3, r3, #24
    7896:	d127      	bne.n	78e8 <__aeabi_fadd+0xac>
    7898:	2320      	movs	r3, #32
    789a:	1a59      	subs	r1, r3, r1
    789c:	408c      	lsls	r4, r1
    789e:	d123      	bne.n	78e8 <__aeabi_fadd+0xac>
    78a0:	3b1f      	subs	r3, #31
    78a2:	4398      	bics	r0, r3
    78a4:	e020      	b.n	78e8 <__aeabi_fadd+0xac>
    78a6:	3301      	adds	r3, #1
    78a8:	1c46      	adds	r6, r0, #1
    78aa:	33ff      	adds	r3, #255	; 0xff
    78ac:	0a58      	lsrs	r0, r3, #9
    78ae:	05f2      	lsls	r2, r6, #23
    78b0:	1880      	adds	r0, r0, r2
    78b2:	05db      	lsls	r3, r3, #23
    78b4:	d002      	beq.n	78bc <__aeabi_fadd+0x80>
    78b6:	4035      	ands	r5, r6
    78b8:	2dff      	cmp	r5, #255	; 0xff
    78ba:	d115      	bne.n	78e8 <__aeabi_fadd+0xac>
    78bc:	2320      	movs	r3, #32
    78be:	1a59      	subs	r1, r3, r1
    78c0:	408c      	lsls	r4, r1
    78c2:	d101      	bne.n	78c8 <__aeabi_fadd+0x8c>
    78c4:	3b1f      	subs	r3, #31
    78c6:	4398      	bics	r0, r3
    78c8:	b2f6      	uxtb	r6, r6
    78ca:	2eff      	cmp	r6, #255	; 0xff
    78cc:	d10c      	bne.n	78e8 <__aeabi_fadd+0xac>
    78ce:	1c10      	adds	r0, r2, #0
    78d0:	e00a      	b.n	78e8 <__aeabi_fadd+0xac>
    78d2:	0018      	movs	r0, r3
    78d4:	2900      	cmp	r1, #0
    78d6:	d107      	bne.n	78e8 <__aeabi_fadd+0xac>
    78d8:	0fd8      	lsrs	r0, r3, #31
    78da:	07c0      	lsls	r0, r0, #31
    78dc:	e004      	b.n	78e8 <__aeabi_fadd+0xac>
    78de:	025a      	lsls	r2, r3, #9
    78e0:	1c18      	adds	r0, r3, #0
    78e2:	2a00      	cmp	r2, #0
    78e4:	d000      	beq.n	78e8 <__aeabi_fadd+0xac>
    78e6:	4802      	ldr	r0, [pc, #8]	; (78f0 <__aeabi_fadd+0xb4>)
    78e8:	bd70      	pop	{r4, r5, r6, pc}
    78ea:	46c0      	nop			; (mov r8, r8)
    78ec:	80000080 	.word	0x80000080
    78f0:	7fc00000 	.word	0x7fc00000

000078f4 <__aeabi_f2uiz>:
    78f4:	b510      	push	{r4, lr}
    78f6:	2480      	movs	r4, #128	; 0x80
    78f8:	219e      	movs	r1, #158	; 0x9e
    78fa:	0dc2      	lsrs	r2, r0, #23
    78fc:	0203      	lsls	r3, r0, #8
    78fe:	0624      	lsls	r4, r4, #24
    7900:	4323      	orrs	r3, r4
    7902:	1a89      	subs	r1, r1, r2
    7904:	d402      	bmi.n	790c <__aeabi_f2uiz+0x18>
    7906:	40cb      	lsrs	r3, r1
    7908:	0018      	movs	r0, r3
    790a:	e006      	b.n	791a <__aeabi_f2uiz+0x26>
    790c:	2afe      	cmp	r2, #254	; 0xfe
    790e:	d902      	bls.n	7916 <__aeabi_f2uiz+0x22>
    7910:	2000      	movs	r0, #0
    7912:	42a3      	cmp	r3, r4
    7914:	d101      	bne.n	791a <__aeabi_f2uiz+0x26>
    7916:	0a12      	lsrs	r2, r2, #8
    7918:	1e50      	subs	r0, r2, #1
    791a:	bd10      	pop	{r4, pc}

0000791c <__bhs_ui2f>:
    791c:	2800      	cmp	r0, #0
    791e:	d02c      	beq.n	797a <__bhs_ui2f+0x5e>
    7920:	0c03      	lsrs	r3, r0, #16
    7922:	d101      	bne.n	7928 <__bhs_ui2f+0xc>
    7924:	0400      	lsls	r0, r0, #16
    7926:	e002      	b.n	792e <__bhs_ui2f+0x12>
    7928:	2380      	movs	r3, #128	; 0x80
    792a:	051b      	lsls	r3, r3, #20
    792c:	18c9      	adds	r1, r1, r3
    792e:	0e03      	lsrs	r3, r0, #24
    7930:	d101      	bne.n	7936 <__bhs_ui2f+0x1a>
    7932:	0200      	lsls	r0, r0, #8
    7934:	e002      	b.n	793c <__bhs_ui2f+0x20>
    7936:	2380      	movs	r3, #128	; 0x80
    7938:	04db      	lsls	r3, r3, #19
    793a:	18c9      	adds	r1, r1, r3
    793c:	0f03      	lsrs	r3, r0, #28
    793e:	d101      	bne.n	7944 <__bhs_ui2f+0x28>
    7940:	0100      	lsls	r0, r0, #4
    7942:	e002      	b.n	794a <__bhs_ui2f+0x2e>
    7944:	2380      	movs	r3, #128	; 0x80
    7946:	049b      	lsls	r3, r3, #18
    7948:	18c9      	adds	r1, r1, r3
    794a:	0f83      	lsrs	r3, r0, #30
    794c:	d101      	bne.n	7952 <__bhs_ui2f+0x36>
    794e:	0080      	lsls	r0, r0, #2
    7950:	e002      	b.n	7958 <__bhs_ui2f+0x3c>
    7952:	2380      	movs	r3, #128	; 0x80
    7954:	045b      	lsls	r3, r3, #17
    7956:	18c9      	adds	r1, r1, r3
    7958:	2800      	cmp	r0, #0
    795a:	db01      	blt.n	7960 <__bhs_ui2f+0x44>
    795c:	0040      	lsls	r0, r0, #1
    795e:	e002      	b.n	7966 <__bhs_ui2f+0x4a>
    7960:	2380      	movs	r3, #128	; 0x80
    7962:	041b      	lsls	r3, r3, #16
    7964:	18c9      	adds	r1, r1, r3
    7966:	0003      	movs	r3, r0
    7968:	3380      	adds	r3, #128	; 0x80
    796a:	1218      	asrs	r0, r3, #8
    796c:	1841      	adds	r1, r0, r1
    796e:	0618      	lsls	r0, r3, #24
    7970:	d101      	bne.n	7976 <__bhs_ui2f+0x5a>
    7972:	2301      	movs	r3, #1
    7974:	4399      	bics	r1, r3
    7976:	1c08      	adds	r0, r1, #0
    7978:	e000      	b.n	797c <__bhs_ui2f+0x60>
    797a:	2000      	movs	r0, #0
    797c:	4770      	bx	lr

0000797e <__aeabi_ui2f>:
    797e:	2180      	movs	r1, #128	; 0x80
    7980:	b510      	push	{r4, lr}
    7982:	05c9      	lsls	r1, r1, #23
    7984:	f7ff ffca 	bl	791c <__bhs_ui2f>
    7988:	bd10      	pop	{r4, pc}
    798a:	Address 0x0000798a is out of bounds.


0000798c <__aeabi_f2d>:
    798c:	10c3      	asrs	r3, r0, #3
    798e:	22ff      	movs	r2, #255	; 0xff
    7990:	0019      	movs	r1, r3
    7992:	0512      	lsls	r2, r2, #20
    7994:	b530      	push	{r4, r5, lr}
    7996:	4011      	ands	r1, r2
    7998:	d00a      	beq.n	79b0 <__aeabi_f2d+0x24>
    799a:	24e0      	movs	r4, #224	; 0xe0
    799c:	05e4      	lsls	r4, r4, #23
    799e:	0740      	lsls	r0, r0, #29
    79a0:	4323      	orrs	r3, r4
    79a2:	4291      	cmp	r1, r2
    79a4:	d009      	beq.n	79ba <__aeabi_f2d+0x2e>
    79a6:	22c8      	movs	r2, #200	; 0xc8
    79a8:	0612      	lsls	r2, r2, #24
    79aa:	189d      	adds	r5, r3, r2
    79ac:	0029      	movs	r1, r5
    79ae:	e009      	b.n	79c4 <__aeabi_f2d+0x38>
    79b0:	0fdb      	lsrs	r3, r3, #31
    79b2:	07db      	lsls	r3, r3, #31
    79b4:	2000      	movs	r0, #0
    79b6:	0019      	movs	r1, r3
    79b8:	e004      	b.n	79c4 <__aeabi_f2d+0x38>
    79ba:	031a      	lsls	r2, r3, #12
    79bc:	4310      	orrs	r0, r2
    79be:	d0f9      	beq.n	79b4 <__aeabi_f2d+0x28>
    79c0:	4b01      	ldr	r3, [pc, #4]	; (79c8 <__aeabi_f2d+0x3c>)
    79c2:	e7f7      	b.n	79b4 <__aeabi_f2d+0x28>
    79c4:	bd30      	pop	{r4, r5, pc}
    79c6:	46c0      	nop			; (mov r8, r8)
    79c8:	7ff80000 	.word	0x7ff80000

000079cc <__aeabi_fcmpge>:
    79cc:	b570      	push	{r4, r5, r6, lr}
    79ce:	000a      	movs	r2, r1
    79d0:	24ff      	movs	r4, #255	; 0xff
    79d2:	0006      	movs	r6, r0
    79d4:	4302      	orrs	r2, r0
    79d6:	0043      	lsls	r3, r0, #1
    79d8:	000d      	movs	r5, r1
    79da:	0624      	lsls	r4, r4, #24
    79dc:	2000      	movs	r0, #0
    79de:	2a00      	cmp	r2, #0
    79e0:	db04      	blt.n	79ec <__aeabi_fcmpge+0x20>
    79e2:	42a3      	cmp	r3, r4
    79e4:	d80f      	bhi.n	7a06 <__aeabi_fcmpge+0x3a>
    79e6:	428e      	cmp	r6, r1
    79e8:	4140      	adcs	r0, r0
    79ea:	e00c      	b.n	7a06 <__aeabi_fcmpge+0x3a>
    79ec:	42a3      	cmp	r3, r4
    79ee:	d80a      	bhi.n	7a06 <__aeabi_fcmpge+0x3a>
    79f0:	0049      	lsls	r1, r1, #1
    79f2:	42a1      	cmp	r1, r4
    79f4:	d807      	bhi.n	7a06 <__aeabi_fcmpge+0x3a>
    79f6:	3001      	adds	r0, #1
    79f8:	42ae      	cmp	r6, r5
    79fa:	d904      	bls.n	7a06 <__aeabi_fcmpge+0x3a>
    79fc:	2380      	movs	r3, #128	; 0x80
    79fe:	061b      	lsls	r3, r3, #24
    7a00:	18d2      	adds	r2, r2, r3
    7a02:	4250      	negs	r0, r2
    7a04:	4150      	adcs	r0, r2
    7a06:	bd70      	pop	{r4, r5, r6, pc}

00007a08 <__gnu_thumb1_case_uqi>:
    7a08:	468c      	mov	ip, r1
    7a0a:	4671      	mov	r1, lr
    7a0c:	3901      	subs	r1, #1
    7a0e:	5c09      	ldrb	r1, [r1, r0]
    7a10:	0049      	lsls	r1, r1, #1
    7a12:	448e      	add	lr, r1
    7a14:	4661      	mov	r1, ip
    7a16:	4770      	bx	lr

00007a18 <__gnu_thumb1_case_uhi>:
    7a18:	468c      	mov	ip, r1
    7a1a:	1e41      	subs	r1, r0, #1
    7a1c:	4471      	add	r1, lr
    7a1e:	5a09      	ldrh	r1, [r1, r0]
    7a20:	0049      	lsls	r1, r1, #1
    7a22:	448e      	add	lr, r1
    7a24:	4661      	mov	r1, ip
    7a26:	4770      	bx	lr
